

Microchip Technology PIC18 LITE Macro Assembler V2.00 build -1524193055 
                                                                                               Tue Jan 29 08:41:55 2019

Microchip Technology Omniscient Code Generator v2.00 (Free mode) build 20180527130849
     1                           	processor	18F47K42
     2                           	fnconf	rparam,??,?,0
     3                           	opt	pw 120
     4                           	opt	lm
     5                           	psect	idataCOMRAM,global,class=CODE,delta=1,noexec
     6                           	psect	idataBANK0,global,class=CODE,delta=1,noexec
     7                           	psect	mediumconst,global,reloc=2,class=MEDIUMCONST,delta=1,noexec
     8                           	psect	cinit,global,reloc=2,class=CODE,delta=1
     9                           	psect	bssCOMRAM,global,class=COMRAM,space=1,delta=1,noexec
    10                           	psect	dataCOMRAM,global,class=COMRAM,space=1,delta=1,noexec
    11                           	psect	bssBANK0,global,class=BANK0,space=1,delta=1,lowdata,noexec
    12                           	psect	dataBANK0,global,class=BANK0,space=1,delta=1,lowdata,noexec
    13                           	psect	cstackBANK0,global,class=BANK0,space=1,delta=1,noexec
    14                           	psect	cstackCOMRAM,global,class=COMRAM,space=1,delta=1,noexec
    15                           	psect	text0,global,reloc=2,class=CODE,delta=1
    16                           	psect	text1,global,reloc=2,class=CODE,delta=1
    17                           	psect	text2,global,reloc=2,class=CODE,delta=1,group=2
    18                           	psect	text3,global,reloc=2,class=CODE,delta=1
    19                           	psect	text4,global,reloc=2,class=CODE,delta=1
    20                           	psect	text5,global,reloc=2,class=CODE,delta=1
    21                           	psect	text6,global,reloc=2,class=CODE,delta=1
    22                           	psect	text7,global,reloc=2,class=CODE,delta=1
    23                           	psect	text8,global,reloc=2,class=CODE,delta=1
    24                           	psect	text9,global,reloc=2,class=CODE,delta=1
    25                           	psect	text10,global,reloc=2,class=CODE,delta=1
    26                           	psect	text11,global,reloc=2,class=CODE,delta=1
    27                           	psect	text12,global,reloc=2,class=CODE,delta=1
    28                           	psect	text13,global,reloc=2,class=CODE,delta=1
    29                           	psect	text14,global,reloc=2,class=CODE,delta=1
    30                           	psect	text15,global,reloc=2,class=CODE,delta=1
    31                           	psect	text16,global,reloc=2,class=CODE,delta=1
    32                           	psect	text17,global,reloc=2,class=CODE,delta=1
    33                           	psect	text18,global,reloc=2,class=CODE,delta=1
    34                           	psect	text19,global,reloc=2,class=CODE,delta=1
    35                           	psect	text20,global,reloc=2,class=CODE,delta=1
    36                           	psect	text21,global,reloc=2,class=CODE,delta=1
    37                           	psect	text22,global,reloc=2,class=CODE,delta=1
    38                           	psect	text23,global,reloc=2,class=CODE,delta=1
    39                           	psect	text24,global,reloc=2,class=CODE,delta=1
    40                           	psect	text25,global,reloc=2,class=CODE,delta=1
    41                           	psect	text26,global,reloc=2,class=CODE,delta=1
    42                           	psect	text27,global,reloc=2,class=CODE,delta=1
    43                           	psect	text28,global,reloc=2,class=CODE,delta=1
    44                           	psect	text29,global,reloc=2,class=CODE,delta=1
    45                           	psect	text30,global,reloc=2,class=CODE,delta=1
    46                           	psect	text31,global,reloc=2,class=CODE,delta=1
    47                           	psect	text32,global,reloc=2,class=CODE,delta=1
    48                           	psect	text33,global,reloc=2,class=CODE,delta=1
    49                           	psect	text34,global,reloc=2,class=CODE,delta=1
    50                           	psect	text35,global,reloc=2,class=CODE,delta=1
    51                           	psect	text36,global,reloc=2,class=CODE,delta=1
    52                           	psect	text37,global,reloc=2,class=CODE,delta=1,group=2
    53                           	psect	text38,global,reloc=2,class=CODE,delta=1
    54                           	psect	text39,global,reloc=2,class=CODE,delta=1
    55                           	psect	text40,global,reloc=2,class=CODE,delta=1
    56                           	psect	text41,global,reloc=2,class=CODE,delta=1
    57                           	psect	text42,global,reloc=2,class=CODE,delta=1
    58                           	psect	text43,global,reloc=2,class=CODE,delta=1
    59                           	psect	text44,global,reloc=2,class=CODE,delta=1
    60                           	psect	text45,global,reloc=2,class=CODE,delta=1
    61                           	psect	text46,global,reloc=2,class=CODE,delta=1
    62                           	psect	text47,global,reloc=2,class=CODE,delta=1
    63                           	psect	text48,global,reloc=2,class=CODE,delta=1
    64                           	psect	text49,global,reloc=2,class=CODE,delta=1
    65                           	psect	text50,global,reloc=2,class=CODE,delta=1
    66                           	psect	text51,global,reloc=2,class=CODE,delta=1
    67                           	psect	text52,global,reloc=2,class=CODE,delta=1
    68                           	psect	text53,global,reloc=2,class=CODE,delta=1
    69                           	psect	text54,global,reloc=2,class=CODE,delta=1
    70                           	psect	text55,global,reloc=2,class=CODE,delta=1
    71                           	psect	text56,global,reloc=2,class=CODE,delta=1
    72                           	psect	text57,global,reloc=2,class=CODE,delta=1
    73                           	psect	text58,global,reloc=2,class=CODE,delta=1
    74                           	psect	text59,global,reloc=2,class=CODE,delta=1
    75                           	psect	text60,global,reloc=2,class=CODE,delta=1
    76                           	psect	text61,global,reloc=2,class=CODE,delta=1
    77                           	psect	text62,global,reloc=2,class=CODE,delta=1
    78                           	psect	ivt0x8,global,reloc=2,class=CODE,delta=1,noexec,keep,optim=
    79                           	psect	intsave_regs,global,class=BIGRAM,space=1,delta=1,noexec
    80                           	psect	rparam,global,class=COMRAM,space=1,delta=1,noexec
    81  0000                     
    82                           ; Version 2.00
    83                           ; Generated 27/05/2018 GMT
    84                           ; 
    85                           ; Copyright © 2018, Microchip Technology Inc. and its subsidiaries ("Microchip")
    86                           ; All rights reserved.
    87                           ; 
    88                           ; This software is developed by Microchip Technology Inc. and its subsidiaries ("Microch
      +                          ip").
    89                           ; 
    90                           ; Redistribution and use in source and binary forms, with or without modification, are
    91                           ; permitted provided that the following conditions are met:
    92                           ; 
    93                           ;     1. Redistributions of source code must retain the above copyright notice, this lis
      +                          t of
    94                           ;        conditions and the following disclaimer.
    95                           ; 
    96                           ;     2. Redistributions in binary form must reproduce the above copyright notice, this 
      +                          list
    97                           ;        of conditions and the following disclaimer in the documentation and/or other
    98                           ;        materials provided with the distribution.
    99                           ; 
   100                           ;     3. Microchip's name may not be used to endorse or promote products derived from th
      +                          is
   101                           ;        software without specific prior written permission.
   102                           ; 
   103                           ; THIS SOFTWARE IS PROVIDED BY MICROCHIP "AS IS" AND ANY EXPRESS OR IMPLIED WARRANTIES,
   104                           ; INCLUDING, BUT NOT LIMITED TO, THE IMPLIED WARRANTIES OF MERCHANTABILITY AND FITNESS F
      +                          OR
   105                           ; PURPOSE ARE DISCLAIMED.  IN NO EVENT SHALL MICROCHIP BE LIABLE FOR ANY DIRECT, INDIREC
      +                          T,
   106                           ; INCIDENTAL, SPECIAL, EXEMPLARY, OR CONSEQUENTIAL DAMAGES (INCLUDING BUT NOT LIMITED TO
   107                           ; PROCUREMENT OF SUBSTITUTE GOODS OR SERVICES; LOSS OF USE, DATA OR PROFITS; OR BUSINESS
   108                           ; INTERRUPTION) HOWSOEVER CAUSED AND ON ANY THEORY OF LIABILITY, WHETHER IN CONTRACT, ST
      +                          RICT
   109                           ; LIABILITY, OR TORT (INCLUDING NEGLIGENCE OR OTHERWISE) ARISING IN ANY WAY OUT OF THE U
      +                          SE OF
   110                           ; THIS SOFTWARE, EVEN IF ADVISED OF THE POSSIBILITY OF SUCH DAMAGE.
   111                           ; 
   112                           ; 
   113                           ; Code-generator required, PIC18F47K42 Definitions
   114                           ; 
   115                           ; SFR Addresses
   116  0000                     
   117                           	psect	idataCOMRAM
   118  012F20                     __pidataCOMRAM:
   119                           	opt stack 0
   120                           
   121                           ;initializer for _numCountdownNowTime
   122  012F20  0000               	dw	0
   123  012F22  0001               	dw	1
   124  012F24  0000               	dw	0
   125  012F26  0000               	dw	0
   126  012F28  0000               	dw	0
   127  012F2A  0000               	dw	0
   128                           
   129                           ;initializer for _numCountdownInitialTime
   130  012F2C  0000               	dw	0
   131  012F2E  0001               	dw	1
   132  012F30  0000               	dw	0
   133  012F32  0000               	dw	0
   134  012F34  0000               	dw	0
   135  012F36  0000               	dw	0
   136                           
   137                           ;initializer for _TRUE
   138  012F38  0001               	dw	1
   139                           
   140                           ;initializer for _ON
   141  012F3A  0001               	dw	1
   142                           
   143                           ;initializer for _countdownBeepsMem
   144  012F3C  0001               	dw	1
   145                           
   146                           ;initializer for _countdownBeeps
   147  012F3E  0001               	dw	1
   148                           
   149                           ;initializer for _armed
   150  012F40  0001               	dw	1
   151                           
   152                           ;initializer for _alarmMode
   153  012F42  01                 	db	1
   154                           
   155                           	psect	idataBANK0
   156  013028                     __pidataBANK0:
   157                           	opt stack 0
   158                           
   159                           ;initializer for _strCountdownInitialTime
   160  013028  30                 	db	48
   161  013029  31                 	db	49
   162  01302A  3A                 	db	58
   163  01302B  30                 	db	48
   164  01302C  30                 	db	48
   165  01302D  3A                 	db	58
   166  01302E  30                 	db	48
   167  01302F  30                 	db	48
   168                           
   169                           ;initializer for _strCountdownNowTime
   170  013030  30                 	db	48
   171  013031  31                 	db	49
   172  013032  3A                 	db	58
   173  013033  30                 	db	48
   174  013034  30                 	db	48
   175  013035  3A                 	db	58
   176  013036  30                 	db	48
   177  013037  30                 	db	48
   178                           
   179                           ;initializer for _exploded
   180  013038  0003               	dw	3
   181                           
   182                           ;initializer for _disarmed
   183  01303A  0002               	dw	2
   184                           
   185                           ;initializer for _password
   186  01303C  31                 	db	49
   187  01303D  31                 	db	49
   188  01303E  31                 	db	49
   189  01303F  31                 	db	49
   190  013040  31                 	db	49
   191  013041  31                 	db	49
   192  013042  31                 	db	49
   193  013043  00                 	db	0
   194  0000                     _PIE0bits	set	14736
   195  0000                     _PMD7	set	14791
   196  0000                     _PMD6	set	14790
   197  0000                     _PMD5	set	14789
   198  0000                     _PMD4	set	14788
   199  0000                     _PMD3	set	14787
   200  0000                     _PMD2	set	14786
   201  0000                     _PMD1	set	14785
   202  0000                     _PMD0	set	14784
   203  0000                     _OSCTUNE	set	14814
   204  0000                     _OSCFRQ	set	14815
   205  0000                     _OSCEN	set	14813
   206  0000                     _OSCCON3	set	14811
   207  0000                     _OSCCON1	set	14809
   208  0000                     _IPR3bits	set	14723
   209  0000                     _PIE3bits	set	14739
   210  0000                     _PIR3bits	set	14755
   211  0000                     _PIR4bits	set	14756
   212  0000                     _PIE4bits	set	14740
   213  0000                     _RC1PPS	set	14865
   214  0000                     _U1RXPPS	set	15077
   215  0000                     _ODCOND	set	14962
   216  0000                     _ODCONA	set	14914
   217  0000                     _WPUA	set	14913
   218  0000                     _WPUD	set	14961
   219  0000                     _ANSELD	set	14960
   220  0000                     _ANSELBbits	set	14928
   221  0000                     _RA1PPS	set	14849
   222  0000                     _U1TXB	set	15850
   223  0000                     _U1BRGL	set	15861
   224  0000                     _U1BRGH	set	15862
   225  0000                     _U1CON1bits	set	15859
   226  0000                     _U1CON0bits	set	15858
   227  0000                     _CCPTMRS1bits	set	16223
   228  0000                     _TRISCbits	set	16324
   229  0000                     _LATC	set	16316
   230  0000                     _LATB	set	16315
   231  0000                     _LATA	set	16314
   232  0000                     _LATE	set	16318
   233  0000                     _INTCON0bits	set	16338
   234  0000                     _LATD	set	16317
   235  0000                     _LATCbits	set	16316
   236  0000                     _TRISC	set	16324
   237  0000                     _TRISD	set	16325
   238  0000                     _PORTBbits	set	16331
   239  0000                     _LATBbits	set	16315
   240  0000                     _TRISBbits	set	16323
   241  0000                     _T0CON1bits	set	16313
   242  0000                     _TMR1L	set	16304
   243  0000                     _TMR1H	set	16305
   244  0000                     _TMR0L	set	16310
   245  0000                     _TMR0H	set	16311
   246  0000                     _T0CON0bits	set	16312
   247  0000                     _T1CONbits	set	16306
   248  0000                     _LATAbits	set	16314
   249  0000                     _T1CLK	set	16309
   250  0000                     _T1CON	set	16306
   251  0000                     _T2CONbits	set	16300
   252  0000                     _T2PR	set	16299
   253  0000                     _T2CLKbits	set	16302
   254  0000                     _PWM5CONbits	set	16238
   255  0000                     _PWM5DCL	set	16236
   256  0000                     _PWM5DCH	set	16237
   257  0000                     _TRISAbits	set	16322
   258                           
   259                           	psect	mediumconst
   260  00FED0                     __pmediumconst:
   261                           	opt stack 0
   262  00FED0  00                 	db	0
   263  00FED1                     STR_28:
   264  00FED1  52                 	db	82	;'R'
   265  00FED2  45                 	db	69	;'E'
   266  00FED3  53                 	db	83	;'S'
   267  00FED4  45                 	db	69	;'E'
   268  00FED5  54                 	db	84	;'T'
   269  00FED6  54                 	db	84	;'T'
   270  00FED7  49                 	db	73	;'I'
   271  00FED8  4E                 	db	78	;'N'
   272  00FED9  47                 	db	71	;'G'
   273  00FEDA  20                 	db	32
   274  00FEDB  20                 	db	32
   275  00FEDC  20                 	db	32
   276  00FEDD  20                 	db	32
   277  00FEDE  20                 	db	32
   278  00FEDF  20                 	db	32
   279  00FEE0  20                 	db	32
   280  00FEE1  00                 	db	0
   281  00FEE2                     STR_19:
   282  00FEE2  43                 	db	67	;'C'
   283  00FEE3  75                 	db	117	;'u'
   284  00FEE4  72                 	db	114	;'r'
   285  00FEE5  73                 	db	115	;'s'
   286  00FEE6  6F                 	db	111	;'o'
   287  00FEE7  72                 	db	114	;'r'
   288  00FEE8  20                 	db	32
   289  00FEE9  4F                 	db	79	;'O'
   290  00FEEA  4E                 	db	78	;'N'
   291  00FEEB  20                 	db	32
   292  00FEEC  20                 	db	32
   293  00FEED  20                 	db	32
   294  00FEEE  20                 	db	32
   295  00FEEF  20                 	db	32
   296  00FEF0  20                 	db	32
   297  00FEF1  20                 	db	32
   298  00FEF2  00                 	db	0
   299  00FEF3                     STR_20:
   300  00FEF3  43                 	db	67	;'C'
   301  00FEF4  75                 	db	117	;'u'
   302  00FEF5  72                 	db	114	;'r'
   303  00FEF6  73                 	db	115	;'s'
   304  00FEF7  6F                 	db	111	;'o'
   305  00FEF8  72                 	db	114	;'r'
   306  00FEF9  20                 	db	32
   307  00FEFA  4F                 	db	79	;'O'
   308  00FEFB  46                 	db	70	;'F'
   309  00FEFC  46                 	db	70	;'F'
   310  00FEFD  20                 	db	32
   311  00FEFE  20                 	db	32
   312  00FEFF  20                 	db	32
   313  00FF00  20                 	db	32
   314  00FF01  20                 	db	32
   315  00FF02  20                 	db	32
   316  00FF03  00                 	db	0
   317  00FF04                     STR_17:
   318  00FF04  4B                 	db	75	;'K'
   319  00FF05  65                 	db	101	;'e'
   320  00FF06  79                 	db	121	;'y'
   321  00FF07  20                 	db	32
   322  00FF08  42                 	db	66	;'B'
   323  00FF09  65                 	db	101	;'e'
   324  00FF0A  65                 	db	101	;'e'
   325  00FF0B  70                 	db	112	;'p'
   326  00FF0C  20                 	db	32
   327  00FF0D  4F                 	db	79	;'O'
   328  00FF0E  4E                 	db	78	;'N'
   329  00FF0F  20                 	db	32
   330  00FF10  20                 	db	32
   331  00FF11  20                 	db	32
   332  00FF12  20                 	db	32
   333  00FF13  20                 	db	32
   334  00FF14  00                 	db	0
   335  00FF15                     STR_15:
   336  00FF15  4E                 	db	78	;'N'
   337  00FF16  45                 	db	69	;'E'
   338  00FF17  57                 	db	87	;'W'
   339  00FF18  20                 	db	32
   340  00FF19  50                 	db	80	;'P'
   341  00FF1A  41                 	db	65	;'A'
   342  00FF1B  53                 	db	83	;'S'
   343  00FF1C  53                 	db	83	;'S'
   344  00FF1D  57                 	db	87	;'W'
   345  00FF1E  4F                 	db	79	;'O'
   346  00FF1F  52                 	db	82	;'R'
   347  00FF20  44                 	db	68	;'D'
   348  00FF21  20                 	db	32
   349  00FF22  20                 	db	32
   350  00FF23  20                 	db	32
   351  00FF24  20                 	db	32
   352  00FF25  00                 	db	0
   353  00FF26                     STR_27:
   354  00FF26  54                 	db	84	;'T'
   355  00FF27  49                 	db	73	;'I'
   356  00FF28  4D                 	db	77	;'M'
   357  00FF29  45                 	db	69	;'E'
   358  00FF2A  52                 	db	82	;'R'
   359  00FF2B  20                 	db	32
   360  00FF2C  43                 	db	67	;'C'
   361  00FF2D  48                 	db	72	;'H'
   362  00FF2E  41                 	db	65	;'A'
   363  00FF2F  4E                 	db	78	;'N'
   364  00FF30  47                 	db	71	;'G'
   365  00FF31  45                 	db	69	;'E'
   366  00FF32  20                 	db	32
   367  00FF33  20                 	db	32
   368  00FF34  20                 	db	32
   369  00FF35  20                 	db	32
   370  00FF36  00                 	db	0
   371  00FF37                     STR_18:
   372  00FF37  4B                 	db	75	;'K'
   373  00FF38  65                 	db	101	;'e'
   374  00FF39  79                 	db	121	;'y'
   375  00FF3A  20                 	db	32
   376  00FF3B  42                 	db	66	;'B'
   377  00FF3C  65                 	db	101	;'e'
   378  00FF3D  65                 	db	101	;'e'
   379  00FF3E  70                 	db	112	;'p'
   380  00FF3F  20                 	db	32
   381  00FF40  4F                 	db	79	;'O'
   382  00FF41  46                 	db	70	;'F'
   383  00FF42  46                 	db	70	;'F'
   384  00FF43  20                 	db	32
   385  00FF44  20                 	db	32
   386  00FF45  20                 	db	32
   387  00FF46  20                 	db	32
   388  00FF47  00                 	db	0
   389  00FF48                     STR_23:
   390  00FF48  4E                 	db	78	;'N'
   391  00FF49  4F                 	db	79	;'O'
   392  00FF4A  54                 	db	84	;'T'
   393  00FF4B  20                 	db	32
   394  00FF4C  41                 	db	65	;'A'
   395  00FF4D  56                 	db	86	;'V'
   396  00FF4E  41                 	db	65	;'A'
   397  00FF4F  49                 	db	73	;'I'
   398  00FF50  4C                 	db	76	;'L'
   399  00FF51  41                 	db	65	;'A'
   400  00FF52  42                 	db	66	;'B'
   401  00FF53  4C                 	db	76	;'L'
   402  00FF54  45                 	db	69	;'E'
   403  00FF55  20                 	db	32
   404  00FF56  20                 	db	32
   405  00FF57  20                 	db	32
   406  00FF58  00                 	db	0
   407  00FF59                     STR_21:
   408  00FF59  54                 	db	84	;'T'
   409  00FF5A  69                 	db	105	;'i'
   410  00FF5B  6D                 	db	109	;'m'
   411  00FF5C  65                 	db	101	;'e'
   412  00FF5D  72                 	db	114	;'r'
   413  00FF5E  20                 	db	32
   414  00FF5F  42                 	db	66	;'B'
   415  00FF60  65                 	db	101	;'e'
   416  00FF61  65                 	db	101	;'e'
   417  00FF62  70                 	db	112	;'p'
   418  00FF63  20                 	db	32
   419  00FF64  4F                 	db	79	;'O'
   420  00FF65  4E                 	db	78	;'N'
   421  00FF66  20                 	db	32
   422  00FF67  20                 	db	32
   423  00FF68  20                 	db	32
   424  00FF69  00                 	db	0
   425  00FF6A                     STR_22:
   426  00FF6A  54                 	db	84	;'T'
   427  00FF6B  69                 	db	105	;'i'
   428  00FF6C  6D                 	db	109	;'m'
   429  00FF6D  65                 	db	101	;'e'
   430  00FF6E  72                 	db	114	;'r'
   431  00FF6F  20                 	db	32
   432  00FF70  42                 	db	66	;'B'
   433  00FF71  65                 	db	101	;'e'
   434  00FF72  65                 	db	101	;'e'
   435  00FF73  70                 	db	112	;'p'
   436  00FF74  20                 	db	32
   437  00FF75  4F                 	db	79	;'O'
   438  00FF76  46                 	db	70	;'F'
   439  00FF77  46                 	db	70	;'F'
   440  00FF78  20                 	db	32
   441  00FF79  20                 	db	32
   442  00FF7A  00                 	db	0
   443  00FF7B                     STR_14:
   444  00FF7B  50                 	db	80	;'P'
   445  00FF7C  41                 	db	65	;'A'
   446  00FF7D  53                 	db	83	;'S'
   447  00FF7E  53                 	db	83	;'S'
   448  00FF7F  57                 	db	87	;'W'
   449  00FF80  4F                 	db	79	;'O'
   450  00FF81  52                 	db	82	;'R'
   451  00FF82  44                 	db	68	;'D'
   452  00FF83  20                 	db	32
   453  00FF84  43                 	db	67	;'C'
   454  00FF85  48                 	db	72	;'H'
   455  00FF86  41                 	db	65	;'A'
   456  00FF87  4E                 	db	78	;'N'
   457  00FF88  47                 	db	71	;'G'
   458  00FF89  45                 	db	69	;'E'
   459  00FF8A  20                 	db	32
   460  00FF8B  00                 	db	0
   461  00FF8C                     STR_3:
   462  00FF8C  20                 	db	32
   463  00FF8D  20                 	db	32
   464  00FF8E  20                 	db	32
   465  00FF8F  20                 	db	32
   466  00FF90  20                 	db	32
   467  00FF91  20                 	db	32
   468  00FF92  20                 	db	32
   469  00FF93  20                 	db	32
   470  00FF94  20                 	db	32
   471  00FF95  20                 	db	32
   472  00FF96  20                 	db	32
   473  00FF97  20                 	db	32
   474  00FF98  20                 	db	32
   475  00FF99  20                 	db	32
   476  00FF9A  20                 	db	32
   477  00FF9B  20                 	db	32
   478  00FF9C  00                 	db	0
   479  00FF9D                     STR_9:
   480  00FF9D  50                 	db	80	;'P'
   481  00FF9E  41                 	db	65	;'A'
   482  00FF9F  53                 	db	83	;'S'
   483  00FFA0  53                 	db	83	;'S'
   484  00FFA1  57                 	db	87	;'W'
   485  00FFA2  4F                 	db	79	;'O'
   486  00FFA3  52                 	db	82	;'R'
   487  00FFA4  44                 	db	68	;'D'
   488  00FFA5  3A                 	db	58	;':'
   489  00FFA6  20                 	db	32
   490  00FFA7  20                 	db	32
   491  00FFA8  20                 	db	32
   492  00FFA9  20                 	db	32
   493  00FFAA  20                 	db	32
   494  00FFAB  20                 	db	32
   495  00FFAC  20                 	db	32
   496  00FFAD  00                 	db	0
   497  00FFAE                     STR_2:
   498  00FFAE  20                 	db	32
   499  00FFAF  20                 	db	32
   500  00FFB0  20                 	db	32
   501  00FFB1  20                 	db	32
   502  00FFB2  45                 	db	69	;'E'
   503  00FFB3  58                 	db	88	;'X'
   504  00FFB4  50                 	db	80	;'P'
   505  00FFB5  4C                 	db	76	;'L'
   506  00FFB6  4F                 	db	79	;'O'
   507  00FFB7  44                 	db	68	;'D'
   508  00FFB8  45                 	db	69	;'E'
   509  00FFB9  44                 	db	68	;'D'
   510  00FFBA  20                 	db	32
   511  00FFBB  20                 	db	32
   512  00FFBC  20                 	db	32
   513  00FFBD  20                 	db	32
   514  00FFBE  00                 	db	0
   515  00FFBF                     STR_16:
   516  00FFBF  54                 	db	84	;'T'
   517  00FFC0  49                 	db	73	;'I'
   518  00FFC1  4D                 	db	77	;'M'
   519  00FFC2  45                 	db	69	;'E'
   520  00FFC3  52                 	db	82	;'R'
   521  00FFC4  20                 	db	32
   522  00FFC5  43                 	db	67	;'C'
   523  00FFC6  48                 	db	72	;'H'
   524  00FFC7  41                 	db	65	;'A'
   525  00FFC8  4E                 	db	78	;'N'
   526  00FFC9  47                 	db	71	;'G'
   527  00FFCA  45                 	db	69	;'E'
   528  00FFCB  00                 	db	0
   529  00FFCC                     STR_12:
   530  00FFCC  53                 	db	83	;'S'
   531  00FFCD  54                 	db	84	;'T'
   532  00FFCE  4F                 	db	79	;'O'
   533  00FFCF  50                 	db	80	;'P'
   534  00FFD0  45                 	db	69	;'E'
   535  00FFD1  44                 	db	68	;'D'
   536  00FFD2  20                 	db	32
   537  00FFD3  20                 	db	32
   538  00FFD4  00                 	db	0
   539  00FFD5                     STR_10:
   540  00FFD5  53                 	db	83	;'S'
   541  00FFD6  54                 	db	84	;'T'
   542  00FFD7  41                 	db	65	;'A'
   543  00FFD8  4E                 	db	78	;'N'
   544  00FFD9  42                 	db	66	;'B'
   545  00FFDA  59                 	db	89	;'Y'
   546  00FFDB  20                 	db	32
   547  00FFDC  20                 	db	32
   548  00FFDD  00                 	db	0
   549  00FFDE                     STR_7:
   550  00FFDE  44                 	db	68	;'D'
   551  00FFDF  45                 	db	69	;'E'
   552  00FFE0  43                 	db	67	;'C'
   553  00FFE1  4C                 	db	76	;'L'
   554  00FFE2  49                 	db	73	;'I'
   555  00FFE3  4E                 	db	78	;'N'
   556  00FFE4  45                 	db	69	;'E'
   557  00FFE5  44                 	db	68	;'D'
   558  00FFE6  00                 	db	0
   559  00FFE7                     STR_4:
   560  00FFE7  41                 	db	65	;'A'
   561  00FFE8  43                 	db	67	;'C'
   562  00FFE9  43                 	db	67	;'C'
   563  00FFEA  45                 	db	69	;'E'
   564  00FFEB  50                 	db	80	;'P'
   565  00FFEC  54                 	db	84	;'T'
   566  00FFED  45                 	db	69	;'E'
   567  00FFEE  44                 	db	68	;'D'
   568  00FFEF  00                 	db	0
   569  00FFF0                     STR_11:
   570  00FFF0  41                 	db	65	;'A'
   571  00FFF1  52                 	db	82	;'R'
   572  00FFF2  4D                 	db	77	;'M'
   573  00FFF3  45                 	db	69	;'E'
   574  00FFF4  44                 	db	68	;'D'
   575  00FFF5  20                 	db	32
   576  00FFF6  00                 	db	0
   577  00FFF7                     STR_1:
   578  00FFF7  44                 	db	68	;'D'
   579  00FFF8  4F                 	db	79	;'O'
   580  00FFF9  4E                 	db	78	;'N'
   581  00FFFA  45                 	db	69	;'E'
   582  00FFFB  20                 	db	32
   583  00FFFC  20                 	db	32
   584  00FFFD  00                 	db	0
   585  0000                     
   586                           ; #config settings
   587  00FFFE  00                 	db	0	; dummy byte at the end
   588  0000                     
   589                           	psect	cinit
   590  01299E                     __pcinit:
   591                           	opt stack 0
   592  01299E                     start_initialization:
   593                           	opt stack 0
   594  01299E                     __initialization:
   595                           	opt stack 0
   596                           
   597                           ; Initialize objects allocated to BANK0 (28 bytes)
   598                           ; load TBLPTR registers with __pidataBANK0
   599  01299E  0E28               	movlw	low __pidataBANK0
   600  0129A0  6EF6               	movwf	16374,c
   601  0129A2  0E30               	movlw	high __pidataBANK0
   602  0129A4  6EF7               	movwf	16375,c
   603  0129A6  0E01               	movlw	low (__pidataBANK0 shr (0+16))
   604  0129A8  6EF8               	movwf	16376,c
   605  0129AA  EE00  F060         	lfsr	0,__pdataBANK0
   606  0129AE  EE10 F01C          	lfsr	1,28
   607  0129B2                     copy_data0:
   608  0129B2  0009               	tblrd		*+
   609  0129B4  006F FFD7 FFEE     	movff	16373,16366
   610  0129BA  50E5               	movf	16357,w,c
   611  0129BC  50E1               	movf	16353,w,c
   612  0129BE  E1F9               	bnz	copy_data0
   613                           
   614                           ; Initialize objects allocated to COMRAM (35 bytes)
   615                           ; load TBLPTR registers with __pidataCOMRAM
   616  0129C0  0E20               	movlw	low __pidataCOMRAM
   617  0129C2  6EF6               	movwf	16374,c
   618  0129C4  0E2F               	movlw	high __pidataCOMRAM
   619  0129C6  6EF7               	movwf	16375,c
   620  0129C8  0E01               	movlw	low (__pidataCOMRAM shr (0+16))
   621  0129CA  6EF8               	movwf	16376,c
   622  0129CC  EE00  F001         	lfsr	0,__pdataCOMRAM
   623  0129D0  EE10 F023          	lfsr	1,35
   624  0129D4                     copy_data1:
   625  0129D4  0009               	tblrd		*+
   626  0129D6  006F FFD7 FFEE     	movff	16373,16366
   627  0129DC  50E5               	movf	16357,w,c
   628  0129DE  50E1               	movf	16353,w,c
   629  0129E0  E1F9               	bnz	copy_data1
   630                           
   631                           ; Clear objects allocated to BANK0 (14 bytes)
   632  0129E2  EE00  F08D         	lfsr	0,__pbssBANK0
   633  0129E6  0E0E               	movlw	14
   634  0129E8                     clear_0:
   635  0129E8  6AEE               	clrf	16366,c
   636  0129EA  06E8               	decf	16360,f,c
   637  0129EC  E1FD               	bnz	clear_0
   638                           
   639                           ; Clear objects allocated to COMRAM (24 bytes)
   640  0129EE  EE00  F024         	lfsr	0,__pbssCOMRAM
   641  0129F2  0E18               	movlw	24
   642  0129F4                     clear_1:
   643  0129F4  6AEE               	clrf	16366,c
   644  0129F6  06E8               	decf	16360,f,c
   645  0129F8  E1FD               	bnz	clear_1
   646                           
   647                           ;
   648                           ; Setup IVTBASE
   649                           ;
   650  0129FA  0E08               	movlw	(ivt0x8_base shr 0)& (0+255)
   651  0129FC  6ED5               	movwf	213,c
   652  0129FE  0E00               	movlw	(ivt0x8_base shr (0+8))& (0+255)
   653  012A00  6ED6               	movwf	214,c
   654  012A02  0E00               	movlw	(ivt0x8_base shr (0+16))& (0+255)
   655  012A04  6ED7               	movwf	215,c
   656  012A06                     end_of_initialization:
   657                           	opt stack 0
   658  012A06                     __end_of__initialization:
   659                           	opt stack 0
   660  012A06  0E00               	movlw	low (__Lmediumconst shr (0+16))
   661  012A08  6EF8               	movwf	16376,c
   662  012A0A  0100               	movlb	0
   663  012A0C  EF00  F080         	goto	_main	;jump to C main() function
   664                           
   665                           	psect	bssCOMRAM
   666  000024                     __pbssCOMRAM:
   667                           	opt stack 0
   668  000024                     _keypadOutput:
   669                           	opt stack 0
   670  000024                     	ds	2
   671  000026                     _NONE:
   672                           	opt stack 0
   673  000026                     	ds	2
   674  000028                     _FALSE:
   675                           	opt stack 0
   676  000028                     	ds	2
   677  00002A                     _OFF:
   678                           	opt stack 0
   679  00002A                     	ds	2
   680  00002C                     _cursorBlinkMem:
   681                           	opt stack 0
   682  00002C                     	ds	2
   683  00002E                     _keyBeeps:
   684                           	opt stack 0
   685  00002E                     	ds	2
   686  000030                     _stanby:
   687                           	opt stack 0
   688  000030                     	ds	2
   689  000032                     _status:
   690                           	opt stack 0
   691  000032                     	ds	2
   692  000034                     _isPasswordTrue:
   693                           	opt stack 0
   694  000034                     	ds	2
   695  000036                     _keyIterrator:
   696                           	opt stack 0
   697  000036                     	ds	2
   698  000038                     _keyPressed:
   699                           	opt stack 0
   700  000038                     	ds	1
   701  000039                     _keyHeld:
   702                           	opt stack 0
   703  000039                     	ds	1
   704  00003A                     _countdownMode:
   705                           	opt stack 0
   706  00003A                     	ds	1
   707  00003B                     _mode:
   708                           	opt stack 0
   709  00003B                     	ds	1
   710                           
   711                           	psect	dataCOMRAM
   712  000001                     __pdataCOMRAM:
   713                           	opt stack 0
   714  000001                     _numCountdownNowTime:
   715                           	opt stack 0
   716  000001                     	ds	12
   717  00000D                     _numCountdownInitialTime:
   718                           	opt stack 0
   719  00000D                     	ds	12
   720  000019                     _TRUE:
   721                           	opt stack 0
   722  000019                     	ds	2
   723  00001B                     _ON:
   724                           	opt stack 0
   725  00001B                     	ds	2
   726  00001D                     _countdownBeepsMem:
   727                           	opt stack 0
   728  00001D                     	ds	2
   729  00001F                     _countdownBeeps:
   730                           	opt stack 0
   731  00001F                     	ds	2
   732  000021                     _armed:
   733                           	opt stack 0
   734  000021                     	ds	2
   735  000023                     _alarmMode:
   736                           	opt stack 0
   737  000023                     	ds	1
   738                           
   739                           	psect	bssBANK0
   740  00008D                     __pbssBANK0:
   741                           	opt stack 0
   742  00008D                     _keyBeepsMem:
   743                           	opt stack 0
   744  00008D                     	ds	2
   745  00008F                     _passwordChange:
   746                           	opt stack 0
   747  00008F                     	ds	2
   748  000091                     _timerChange:
   749                           	opt stack 0
   750  000091                     	ds	2
   751  000093                     _userPswdEntry:
   752                           	opt stack 0
   753  000093                     	ds	8
   754                           
   755                           	psect	dataBANK0
   756  000060                     __pdataBANK0:
   757                           	opt stack 0
   758  000060                     _strCountdownInitialTime:
   759                           	opt stack 0
   760  000060                     	ds	8
   761  000068                     _strCountdownNowTime:
   762                           	opt stack 0
   763  000068                     	ds	8
   764  000070                     _exploded:
   765                           	opt stack 0
   766  000070                     	ds	2
   767  000072                     _disarmed:
   768                           	opt stack 0
   769  000072                     	ds	2
   770  000074                     _password:
   771                           	opt stack 0
   772  000074                     	ds	8
   773                           
   774                           	psect	cstackBANK0
   775  00007C                     __pcstackBANK0:
   776                           	opt stack 0
   777  00007C                     keypadRead@keyHoldTime:
   778                           	opt stack 0
   779                           
   780                           ; 2 bytes @ 0x0
   781  00007C                     	ds	2
   782  00007E                     keypadRead@flagPressed:
   783                           	opt stack 0
   784                           
   785                           ; 2 bytes @ 0x2
   786  00007E                     	ds	2
   787  000080                     keypadRead@output:
   788                           	opt stack 0
   789                           
   790                           ; 2 bytes @ 0x4
   791  000080                     	ds	2
   792  000082                     keypadRead@keyHeld:
   793                           	opt stack 0
   794                           
   795                           ; 1 bytes @ 0x6
   796  000082                     	ds	1
   797  000083                     keypadRead@keyPressed:
   798                           	opt stack 0
   799                           
   800                           ; 1 bytes @ 0x7
   801  000083                     	ds	1
   802  000084                     keypadRead@key:
   803                           	opt stack 0
   804                           
   805                           ; 1 bytes @ 0x8
   806  000084                     	ds	1
   807  000085                     ??_main:
   808                           
   809                           ; 1 bytes @ 0x9
   810  000085                     	ds	2
   811  000087                     main@i:
   812                           	opt stack 0
   813                           
   814                           ; 2 bytes @ 0xB
   815  000087                     	ds	2
   816  000089                     main@cursorPos:
   817                           	opt stack 0
   818                           
   819                           ; 2 bytes @ 0xD
   820  000089                     	ds	2
   821  00008B                     main@cursorPos_1250:
   822                           	opt stack 0
   823                           
   824                           ; 2 bytes @ 0xF
   825  00008B                     	ds	2
   826                           
   827                           	psect	cstackCOMRAM
   828  00003C                     __pcstackCOMRAM:
   829                           	opt stack 0
   830  00003C                     ??_endBeep:
   831  00003C                     ??_countdown_now_num2str:
   832  00003C                     i2LCD_Cmd@b:
   833                           	opt stack 0
   834  00003C                     i2LCD_Write_Char@e:
   835                           	opt stack 0
   836                           
   837                           ; 1 bytes @ 0x0
   838  00003C                     	ds	1
   839  00003D                     endBeep@i:
   840                           	opt stack 0
   841  00003D                     i2LCD_Set_Cursor@c:
   842                           	opt stack 0
   843  00003D                     i2LCD_Write_String@f:
   844                           	opt stack 0
   845                           
   846                           ; 2 bytes @ 0x1
   847  00003D                     	ds	1
   848  00003E                     countdown_now_num2str@i:
   849                           	opt stack 0
   850                           
   851                           ; 2 bytes @ 0x2
   852  00003E                     	ds	1
   853  00003F                     ??i2_LCD_Write_String:
   854  00003F                     endBeep@i_538:
   855                           	opt stack 0
   856  00003F                     i2LCD_Set_Cursor@d:
   857                           	opt stack 0
   858                           
   859                           ; 2 bytes @ 0x3
   860  00003F                     	ds	2
   861  000041                     i2LCD_Set_Cursor@temp:
   862                           	opt stack 0
   863  000041                     i2LCD_Write_String@i:
   864                           	opt stack 0
   865                           
   866                           ; 2 bytes @ 0x5
   867  000041                     	ds	1
   868  000042                     i2LCD_printNowCountdown@i:
   869                           	opt stack 0
   870                           
   871                           ; 2 bytes @ 0x6
   872  000042                     	ds	2
   873  000044                     ??_ISR:
   874                           
   875                           ; 1 bytes @ 0x8
   876  000044                     	ds	4
   877  000048                     ??_LCD_Clear:
   878  000048                     ??_armBeep:
   879  000048                     ??_disarmBeep:
   880  000048                     ??_countdown_now_reset_to_initial:
   881  000048                     ??_countdown_initial_str2num:
   882  000048                     ?_keypadScan:
   883                           	opt stack 0
   884  000048                     ?_strlen:
   885                           	opt stack 0
   886  000048                     ?_strcmp:
   887                           	opt stack 0
   888  000048                     LCD_Cmd@b:
   889                           	opt stack 0
   890  000048                     LCD_Write_Char@e:
   891                           	opt stack 0
   892  000048                     serialSend@word:
   893                           	opt stack 0
   894  000048                     resetPasswordEntry@i:
   895                           	opt stack 0
   896  000048                     strcmp@s1:
   897                           	opt stack 0
   898  000048                     strlen@s:
   899                           	opt stack 0
   900                           
   901                           ; 2 bytes @ 0xC
   902  000048                     	ds	1
   903  000049                     ??_LCD_Initialize:
   904  000049                     LCD_Set_Cursor@c:
   905                           	opt stack 0
   906  000049                     LCD_Write_String@f:
   907                           	opt stack 0
   908                           
   909                           ; 2 bytes @ 0xD
   910  000049                     	ds	1
   911  00004A                     ??_keypadScan:
   912  00004A                     ??_strlen:
   913  00004A                     strcmp@s2:
   914                           	opt stack 0
   915                           
   916                           ; 2 bytes @ 0xE
   917  00004A                     	ds	1
   918  00004B                     ??_LCD_Write_String:
   919  00004B                     ?_keypadRead:
   920                           	opt stack 0
   921  00004B                     LCD_Set_Cursor@d:
   922                           	opt stack 0
   923                           
   924                           ; 2 bytes @ 0xF
   925  00004B                     	ds	1
   926  00004C                     ??_strcmp:
   927  00004C                     countdown_now_reset_to_initial@i:
   928                           	opt stack 0
   929  00004C                     countdown_initial_str2num@i:
   930                           	opt stack 0
   931  00004C                     strlen@cp:
   932                           	opt stack 0
   933                           
   934                           ; 2 bytes @ 0x10
   935  00004C                     	ds	1
   936  00004D                     ??_keypadRead:
   937  00004D                     LCD_Set_Cursor@temp:
   938                           	opt stack 0
   939  00004D                     strcmp@r:
   940                           	opt stack 0
   941  00004D                     LCD_Write_String@i:
   942                           	opt stack 0
   943                           
   944                           ; 2 bytes @ 0x11
   945  00004D                     	ds	1
   946  00004E                     ?_verifyPassword:
   947                           	opt stack 0
   948  00004E                     LCD_printNowCountdown@i:
   949                           	opt stack 0
   950  00004E                     LCD_printInitialCountdown@i:
   951                           	opt stack 0
   952  00004E                     resetEntry@str:
   953                           	opt stack 0
   954  00004E                     verifyPassword@user:
   955                           	opt stack 0
   956                           
   957                           ; 2 bytes @ 0x12
   958  00004E                     	ds	1
   959  00004F                     ??_LCD_printAccepted:
   960  00004F                     ??_LCD_printDeclined:
   961  00004F                     
   962                           ; 1 bytes @ 0x13
   963  00004F                     	ds	1
   964  000050                     resetEntry@i:
   965                           	opt stack 0
   966  000050                     verifyPassword@pass:
   967                           	opt stack 0
   968                           
   969                           ; 2 bytes @ 0x14
   970  000050                     	ds	1
   971  000051                     LCD_printAccepted@i:
   972                           	opt stack 0
   973  000051                     LCD_printDeclined@i:
   974                           	opt stack 0
   975                           
   976                           ; 2 bytes @ 0x15
   977  000051                     	ds	1
   978  000052                     
   979                           ; 1 bytes @ 0x16
   980  000052                     	ds	1
   981                           
   982 ;;
   983 ;;Main: autosize = 0, tempsize = 2, incstack = 0, save=0
   984 ;;
   985 ;; *************** function _main *****************
   986 ;; Defined at:
   987 ;;		line 103 in file "main.c"
   988 ;; Parameters:    Size  Location     Type
   989 ;;		None
   990 ;; Auto vars:     Size  Location     Type
   991 ;;  i               2   11[BANK0 ] int 
   992 ;;  cursorPos       2   15[BANK0 ] int 
   993 ;;  cursorPos       2   13[BANK0 ] int 
   994 ;; Return value:  Size  Location     Type
   995 ;;                  1    wreg      void 
   996 ;; Registers used:
   997 ;;		wreg, fsr1l, fsr1h, fsr2l, fsr2h, status,2, status,0, tblptrl, tblptrh, tblptru, cstack
   998 ;; Tracked objects:
   999 ;;		On entry : 0/0
  1000 ;;		On exit  : 0/0
  1001 ;;		Unchanged: 0/0
  1002 ;; Data sizes:     COMRAM   BANK0   BANK1   BANK2   BANK3   BANK4   BANK5   BANK6   BANK7   BANK8   BANK9  BANK10  BANK1
      +1  BANK12  BANK13  BANK14  BANK15  BANK16  BANK17  BANK18  BANK19  BANK20  BANK21  BANK22  BANK23  BANK24  BANK25  BANK2
      +6  BANK27  BANK28  BANK29  BANK30  BANK31
  1003 ;;      Params:         0       0       0       0       0       0       0       0       0       0       0       0       
      +0       0       0       0       0       0       0       0       0       0       0       0       0       0       0       
      +0       0       0       0       0       0
  1004 ;;      Locals:         0       6       0       0       0       0       0       0       0       0       0       0       
      +0       0       0       0       0       0       0       0       0       0       0       0       0       0       0       
      +0       0       0       0       0       0
  1005 ;;      Temps:          0       2       0       0       0       0       0       0       0       0       0       0       
      +0       0       0       0       0       0       0       0       0       0       0       0       0       0       0       
      +0       0       0       0       0       0
  1006 ;;      Totals:         0       8       0       0       0       0       0       0       0       0       0       0       
      +0       0       0       0       0       0       0       0       0       0       0       0       0       0       0       
      +0       0       0       0       0       0
  1007 ;;Total ram usage:        8 bytes
  1008 ;; Hardware stack levels required when called:    9
  1009 ;; This function calls:
  1010 ;;		_LCD_Cursor_Blink_Off
  1011 ;;		_LCD_Cursor_Blink_On
  1012 ;;		_LCD_Cursor_Left
  1013 ;;		_LCD_Cursor_Right
  1014 ;;		_LCD_Set_Cursor
  1015 ;;		_LCD_Write_Char
  1016 ;;		_LCD_Write_String
  1017 ;;		_LCD_printAccepted
  1018 ;;		_LCD_printDeclined
  1019 ;;		_LCD_printInitialCountdown
  1020 ;;		_LCD_printNowCountdown
  1021 ;;		_LCD_resetPasswordEntry
  1022 ;;		_armBeep
  1023 ;;		_armedPageReset
  1024 ;;		_countdownStart
  1025 ;;		_countdownStop
  1026 ;;		_countdown_initial_str2num
  1027 ;;		_countdown_now_reset_to_initial
  1028 ;;		_disarmBeep
  1029 ;;		_disarmedPageReset
  1030 ;;		_keypadRead
  1031 ;;		_resetEntry
  1032 ;;		_resetPasswordEntry
  1033 ;;		_serialSend
  1034 ;;		_setup
  1035 ;;		_stanbyPageReset
  1036 ;;		_verifyInterfaceOptions
  1037 ;;		_verifyPassword
  1038 ;; This function is called by:
  1039 ;;		Startup code after reset
  1040 ;; This function uses a non-reentrant model
  1041 ;;
  1042                           
  1043                           	psect	text0
  1044  010000                     __ptext0:
  1045                           	opt stack 0
  1046  010000                     _main:
  1047                           	opt stack 22
  1048                           
  1049                           ;main.c: 106: setup();
  1050                           
  1051                           ;incstack = 0
  1052  010000  ECD5  F097         	call	_setup	;wreg free
  1053                           
  1054                           ;main.c: 107: stanbyPageReset();
  1055  010004  EC38  F096         	call	_stanbyPageReset	;wreg free
  1056  010008                     
  1057                           ;main.c: 110: {;main.c: 112: if(mode == countdownMode)
  1058  010008  503A               	movf	_countdownMode,w,c
  1059  01000A  183B               	xorwf	_mode,w,c
  1060  01000C  A4D8               	btfss	16344,2,c
  1061  01000E  D7FC               	goto	l760
  1062                           
  1063                           ;main.c: 113: {;main.c: 114: verifyInterfaceOptions();
  1064  010010  EC48  F094         	call	_verifyInterfaceOptions	;wreg free
  1065                           
  1066                           ;main.c: 115: keypadOutput = keypadRead();
  1067  010014  EC73  F090         	call	_keypadRead	;wreg free
  1068  010018  0060  F12C  F024   	movff	?_keypadRead,_keypadOutput
  1069  01001E  0060  F130  F025   	movff	?_keypadRead+1,_keypadOutput+1
  1070                           
  1071                           ;main.c: 116: keyPressed = keypadOutput.keyPressed;
  1072  010024  0060  F090  F038   	movff	_keypadOutput,_keyPressed
  1073                           
  1074                           ;main.c: 117: keyHeld = keypadOutput.keyHeld;
  1075  01002A  0060  F094  F039   	movff	_keypadOutput+1,_keyHeld
  1076                           
  1077                           ;main.c: 121: if(status == stanby)
  1078  010030  5030               	movf	_stanby,w,c
  1079  010032  1832               	xorwf	_status,w,c
  1080  010034  E103               	bnz	u7211
  1081  010036  5031               	movf	_stanby+1,w,c
  1082  010038  1833               	xorwf	_status+1,w,c
  1083  01003A  A4D8               	btfss	16344,2,c
  1084  01003C                     u7211:
  1085  01003C  EF55  F084         	goto	l762
  1086                           
  1087                           ;main.c: 122: {;main.c: 123: if(keyPressed != NONE && keyHeld == NONE)
  1088  010040  5038               	movf	_keyPressed,w,c
  1089  010042  0100               	movlb	0	; () banked
  1090  010044  6F85               	movwf	??_main& (0+255),b
  1091  010046  6B86               	clrf	(??_main+1)& (0+255),b
  1092  010048  5026               	movf	_NONE,w,c
  1093  01004A  1985               	xorwf	??_main& (0+255),w,b
  1094  01004C  E104               	bnz	u7220
  1095  01004E  5027               	movf	_NONE+1,w,c
  1096  010050  1986               	xorwf	(??_main+1)& (0+255),w,b
  1097  010052  B4D8               	btfsc	16344,2,c
  1098  010054  D0B8               	goto	l763
  1099  010056                     u7220:
  1100                           
  1101                           ; BSR set to: 0
  1102  010056  5039               	movf	_keyHeld,w,c
  1103  010058  6F85               	movwf	??_main& (0+255),b
  1104  01005A  6B86               	clrf	(??_main+1)& (0+255),b
  1105  01005C  5026               	movf	_NONE,w,c
  1106  01005E  1985               	xorwf	??_main& (0+255),w,b
  1107  010060  E103               	bnz	u7231
  1108  010062  5027               	movf	_NONE+1,w,c
  1109  010064  1986               	xorwf	(??_main+1)& (0+255),w,b
  1110  010066  A4D8               	btfss	16344,2,c
  1111  010068                     u7231:
  1112  010068  D0AE               	goto	l763
  1113                           
  1114                           ; BSR set to: 0
  1115                           ;main.c: 124: {;main.c: 126: if(keyIterrator == 0 && keyBeeps == OFF)
  1116  01006A  5036               	movf	_keyIterrator,w,c
  1117  01006C  1037               	iorwf	_keyIterrator+1,w,c
  1118  01006E  A4D8               	btfss	16344,2,c
  1119  010070  D008               	goto	l764
  1120                           
  1121                           ; BSR set to: 0
  1122  010072  502A               	movf	_OFF,w,c
  1123  010074  182E               	xorwf	_keyBeeps,w,c
  1124  010076  E105               	bnz	l6502
  1125  010078  502B               	movf	_OFF+1,w,c
  1126  01007A  182F               	xorwf	_keyBeeps+1,w,c
  1127  01007C  B4D8               	btfsc	16344,2,c
  1128                           
  1129                           ; BSR set to: 0
  1130                           ;main.c: 127: {;main.c: 128: armBeep();
  1131  01007E  ECF5  F097         	call	_armBeep	;wreg free
  1132  010082                     l764:
  1133  010082                     l6502:
  1134                           
  1135                           ;main.c: 129: };main.c: 130: if (keyPressed != '#' && keyPressed != '*' && keyIterrator<
      +                          7)
  1136  010082  0E23               	movlw	35
  1137  010084  1838               	xorwf	_keyPressed,w,c
  1138  010086  B4D8               	btfsc	16344,2,c
  1139  010088  D02C               	goto	l765
  1140  01008A  0E2A               	movlw	42
  1141  01008C  1838               	xorwf	_keyPressed,w,c
  1142  01008E  B4D8               	btfsc	16344,2,c
  1143  010090  D028               	goto	l765
  1144  010092  BE37               	btfsc	_keyIterrator+1,7,c
  1145  010094  D006               	goto	u7280
  1146  010096  5037               	movf	_keyIterrator+1,w,c
  1147  010098  E124               	bnz	l6520
  1148  01009A  0E07               	movlw	7
  1149  01009C  5C36               	subwf	_keyIterrator,w,c
  1150  01009E  B0D8               	btfsc	16344,0,c
  1151  0100A0  D020               	goto	l765
  1152  0100A2                     u7280:
  1153                           
  1154                           ;main.c: 131: {;main.c: 132: serialSend('S');
  1155  0100A2  0E53               	movlw	83
  1156  0100A4  ECA4  F098         	call	_serialSend
  1157                           
  1158                           ;main.c: 133: serialSend(keyPressed);
  1159  0100A8  5038               	movf	_keyPressed,w,c
  1160  0100AA  ECA4  F098         	call	_serialSend
  1161                           
  1162                           ;main.c: 134: userPswdEntry[keyIterrator] = keyPressed;
  1163  0100AE  0E93               	movlw	low _userPswdEntry
  1164  0100B0  2436               	addwf	_keyIterrator,w,c
  1165  0100B2  6ED9               	movwf	16345,c
  1166  0100B4  0E00               	movlw	high _userPswdEntry
  1167  0100B6  2037               	addwfc	_keyIterrator+1,w,c
  1168  0100B8  6EDA               	movwf	16346,c
  1169  0100BA  0060  F0E3  FFDF   	movff	_keyPressed,16351
  1170                           
  1171                           ;main.c: 135: keyIterrator++;
  1172  0100C0  4A36               	infsnz	_keyIterrator,f,c
  1173  0100C2  2A37               	incf	_keyIterrator+1,f,c
  1174                           
  1175                           ;main.c: 137: LCD_Set_Cursor(2,9+keyIterrator);
  1176  0100C4  0E00               	movlw	0
  1177  0100C6  6E4A               	movwf	LCD_Set_Cursor@c+1,c
  1178  0100C8  0E02               	movlw	2
  1179  0100CA  6E49               	movwf	LCD_Set_Cursor@c,c
  1180  0100CC  0E09               	movlw	9
  1181  0100CE  2436               	addwf	_keyIterrator,w,c
  1182  0100D0  6E4B               	movwf	LCD_Set_Cursor@d,c
  1183  0100D2  0E00               	movlw	0
  1184  0100D4  2037               	addwfc	_keyIterrator+1,w,c
  1185  0100D6  6E4C               	movwf	LCD_Set_Cursor@d+1,c
  1186  0100D8  EC3A  F097         	call	_LCD_Set_Cursor	;wreg free
  1187                           
  1188                           ;main.c: 139: LCD_Write_Char(keyPressed);
  1189  0100DC  5038               	movf	_keyPressed,w,c
  1190  0100DE  ECB3  F097         	call	_LCD_Write_Char
  1191  0100E2                     l765:
  1192  0100E2                     l6520:
  1193                           
  1194                           ;main.c: 140: };main.c: 142: if (keyPressed == '#' || keyPressed == '*'&& keyHeld == NON
      +                          E)
  1195  0100E2  0E23               	movlw	35
  1196  0100E4  1838               	xorwf	_keyPressed,w,c
  1197  0100E6  B4D8               	btfsc	16344,2,c
  1198  0100E8  D00F               	goto	u7310
  1199  0100EA  0E2A               	movlw	42
  1200  0100EC  1838               	xorwf	_keyPressed,w,c
  1201  0100EE  A4D8               	btfss	16344,2,c
  1202  0100F0  D78B               	goto	l760
  1203  0100F2  5039               	movf	_keyHeld,w,c
  1204  0100F4  0100               	movlb	0	; () banked
  1205  0100F6  6F85               	movwf	??_main& (0+255),b
  1206  0100F8  6B86               	clrf	(??_main+1)& (0+255),b
  1207  0100FA  5026               	movf	_NONE,w,c
  1208  0100FC  1985               	xorwf	??_main& (0+255),w,b
  1209  0100FE  E184               	bnz	l760
  1210  010100  5027               	movf	_NONE+1,w,c
  1211  010102  1986               	xorwf	(??_main+1)& (0+255),w,b
  1212  010104  A4D8               	btfss	16344,2,c
  1213  010106  D780               	goto	l760
  1214  010108                     u7310:
  1215                           
  1216                           ;main.c: 143: {;main.c: 144: serialSend('*');
  1217                           
  1218                           ; BSR set to: 0
  1219  010108  0E2A               	movlw	42
  1220  01010A  ECA4  F098         	call	_serialSend
  1221                           
  1222                           ;main.c: 145: _delay((unsigned long)((10)*(8000000/4000.0)));
  1223  01010E  0E1A               	movlw	26
  1224  010110  0100               	movlb	0	; () banked
  1225  010112  6F85               	movwf	??_main& (0+255),b
  1226  010114  0EF8               	movlw	248
  1227  010116                     u8847:
  1228  010116  2EE8               	decfsz	16360,f,c
  1229  010118  D7FE               	bra	u8847
  1230  01011A  2F85               	decfsz	??_main& (0+255),f,b
  1231  01011C  D7FC               	bra	u8847
  1232  01011E  F000               	nop	
  1233                           
  1234                           ;main.c: 146: isPasswordTrue = verifyPassword(userPswdEntry,password);
  1235  010120  0E93               	movlw	low _userPswdEntry
  1236  010122  6E4E               	movwf	verifyPassword@user,c
  1237  010124  0E00               	movlw	high _userPswdEntry
  1238  010126  6E4F               	movwf	verifyPassword@user+1,c
  1239  010128  0E74               	movlw	low _password
  1240  01012A  6E50               	movwf	verifyPassword@pass,c
  1241  01012C  0E00               	movlw	high _password
  1242  01012E  6E51               	movwf	verifyPassword@pass+1,c
  1243  010130  ECD2  F096         	call	_verifyPassword	;wreg free
  1244  010134  0060  F138  F034   	movff	?_verifyPassword,_isPasswordTrue
  1245  01013A  0060  F13C  F035   	movff	?_verifyPassword+1,_isPasswordTrue+1
  1246                           
  1247                           ;main.c: 147: _delay((unsigned long)((10)*(8000000/4000.0)));
  1248  010140  0E1A               	movlw	26
  1249  010142  0100               	movlb	0	; () banked
  1250  010144  6F85               	movwf	??_main& (0+255),b
  1251  010146  0EF8               	movlw	248
  1252  010148                     u8857:
  1253  010148  2EE8               	decfsz	16360,f,c
  1254  01014A  D7FE               	bra	u8857
  1255  01014C  2F85               	decfsz	??_main& (0+255),f,b
  1256  01014E  D7FC               	bra	u8857
  1257  010150  F000               	nop	
  1258                           
  1259                           ;main.c: 148: resetPasswordEntry();
  1260  010152  EC22  F097         	call	_resetPasswordEntry	;wreg free
  1261                           
  1262                           ;main.c: 150: if(isPasswordTrue == TRUE)
  1263  010156  5019               	movf	_TRUE,w,c
  1264  010158  1834               	xorwf	_isPasswordTrue,w,c
  1265  01015A  E11C               	bnz	l6552
  1266  01015C  501A               	movf	_TRUE+1,w,c
  1267  01015E  1835               	xorwf	_isPasswordTrue+1,w,c
  1268  010160  A4D8               	btfss	16344,2,c
  1269  010162  D018               	goto	l769
  1270                           
  1271                           ;main.c: 151: {;main.c: 152: LCD_printAccepted();
  1272  010164  ECA0  F093         	call	_LCD_printAccepted	;wreg free
  1273                           
  1274                           ;main.c: 153: LCD_Set_Cursor(1,1);
  1275  010168  0E00               	movlw	0
  1276  01016A  6E4A               	movwf	LCD_Set_Cursor@c+1,c
  1277  01016C  0E01               	movlw	1
  1278  01016E  6E49               	movwf	LCD_Set_Cursor@c,c
  1279  010170  0E00               	movlw	0
  1280  010172  6E4C               	movwf	LCD_Set_Cursor@d+1,c
  1281  010174  0E01               	movlw	1
  1282  010176  6E4B               	movwf	LCD_Set_Cursor@d,c
  1283  010178  EC3A  F097         	call	_LCD_Set_Cursor	;wreg free
  1284                           
  1285                           ;main.c: 154: LCD_Write_String("ARMED ");
  1286  01017C  0EF0               	movlw	low STR_11
  1287  01017E  6E49               	movwf	LCD_Write_String@f,c
  1288  010180  0EFF               	movlw	high STR_11
  1289  010182  6E4A               	movwf	LCD_Write_String@f+1,c
  1290  010184  EC31  F095         	call	_LCD_Write_String	;wreg free
  1291                           
  1292                           ;main.c: 155: armedPageReset();
  1293  010188  ECB5  F096         	call	_armedPageReset	;wreg free
  1294                           
  1295                           ;main.c: 156: countdownStart();
  1296  01018C  EC97  F098         	call	_countdownStart	;wreg free
  1297  010190  EF33  F086         	goto	l7054
  1298  010194                     l769:
  1299  010194                     l6552:
  1300                           
  1301                           ;main.c: 161: else if (isPasswordTrue == FALSE)
  1302  010194  5028               	movf	_FALSE,w,c
  1303  010196  1834               	xorwf	_isPasswordTrue,w,c
  1304  010198  E103               	bnz	u7331
  1305  01019A  5029               	movf	_FALSE+1,w,c
  1306  01019C  1835               	xorwf	_isPasswordTrue+1,w,c
  1307  01019E  A4D8               	btfss	16344,2,c
  1308  0101A0                     u7331:
  1309  0101A0  D733               	goto	l760
  1310                           
  1311                           ;main.c: 162: {;main.c: 163: LCD_printDeclined();
  1312  0101A2  EC44  F093         	call	_LCD_printDeclined	;wreg free
  1313                           
  1314                           ;main.c: 164: _delay((unsigned long)((250)*(8000000/4000.0)));
  1315  0101A6  0E03               	movlw	3
  1316  0101A8  0100               	movlb	0	; () banked
  1317  0101AA  6F86               	movwf	(??_main+1)& (0+255),b
  1318  0101AC  0E8A               	movlw	138
  1319  0101AE  6F85               	movwf	??_main& (0+255),b
  1320  0101B0  0E55               	movlw	85
  1321  0101B2                     u8867:
  1322  0101B2  2EE8               	decfsz	16360,f,c
  1323  0101B4  D7FE               	bra	u8867
  1324  0101B6  2F85               	decfsz	??_main& (0+255),f,b
  1325  0101B8  D7FC               	bra	u8867
  1326  0101BA  2F86               	decfsz	(??_main+1)& (0+255),f,b
  1327  0101BC  D7FA               	bra	u8867
  1328  0101BE  D000               	nop2	
  1329                           
  1330                           ;main.c: 165: stanbyPageReset();
  1331  0101C0  EC38  F096         	call	_stanbyPageReset	;wreg free
  1332                           
  1333                           ;main.c: 167: };main.c: 168: };main.c: 169: }
  1334                           
  1335                           ;main.c: 166: continue;
  1336  0101C4  D721               	goto	l760
  1337  0101C6                     l763:
  1338                           
  1339                           ;main.c: 171: else if(keyHeld != NONE)
  1340  0101C6  5039               	movf	_keyHeld,w,c
  1341  0101C8  0100               	movlb	0	; () banked
  1342  0101CA  6F85               	movwf	??_main& (0+255),b
  1343  0101CC  6B86               	clrf	(??_main+1)& (0+255),b
  1344  0101CE  5026               	movf	_NONE,w,c
  1345  0101D0  1985               	xorwf	??_main& (0+255),w,b
  1346  0101D2  E104               	bnz	u7340
  1347  0101D4  5027               	movf	_NONE+1,w,c
  1348  0101D6  1986               	xorwf	(??_main+1)& (0+255),w,b
  1349  0101D8  B4D8               	btfsc	16344,2,c
  1350  0101DA  D716               	goto	l760
  1351  0101DC                     u7340:
  1352                           
  1353                           ; BSR set to: 0
  1354                           ;main.c: 172: {;main.c: 174: if(keyPressed == '#' && keyHeld == '#')
  1355  0101DC  0E23               	movlw	35
  1356  0101DE  1838               	xorwf	_keyPressed,w,c
  1357  0101E0  A4D8               	btfss	16344,2,c
  1358  0101E2  D15F               	goto	l775
  1359                           
  1360                           ; BSR set to: 0
  1361  0101E4  0E23               	movlw	35
  1362  0101E6  1839               	xorwf	_keyHeld,w,c
  1363  0101E8  A4D8               	btfss	16344,2,c
  1364  0101EA  D15B               	goto	l775
  1365                           
  1366                           ; BSR set to: 0
  1367                           ;main.c: 175: {;main.c: 176: keyIterrator = 0;
  1368  0101EC  0E00               	movlw	0
  1369  0101EE  6E37               	movwf	_keyIterrator+1,c
  1370  0101F0  0E00               	movlw	0
  1371  0101F2  6E36               	movwf	_keyIterrator,c
  1372                           
  1373                           ; BSR set to: 0
  1374                           ;main.c: 177: passwordChange = TRUE;
  1375  0101F4  0060  F064  F08F   	movff	_TRUE,_passwordChange
  1376  0101FA  0060  F068  F090   	movff	_TRUE+1,_passwordChange+1
  1377                           
  1378                           ; BSR set to: 0
  1379                           ;main.c: 178: LCD_Set_Cursor(1,1);
  1380  010200  0E00               	movlw	0
  1381  010202  6E4A               	movwf	LCD_Set_Cursor@c+1,c
  1382  010204  0E01               	movlw	1
  1383  010206  6E49               	movwf	LCD_Set_Cursor@c,c
  1384  010208  0E00               	movlw	0
  1385  01020A  6E4C               	movwf	LCD_Set_Cursor@d+1,c
  1386  01020C  0E01               	movlw	1
  1387  01020E  6E4B               	movwf	LCD_Set_Cursor@d,c
  1388  010210  EC3A  F097         	call	_LCD_Set_Cursor	;wreg free
  1389                           
  1390                           ;main.c: 179: LCD_Write_String("PASSWORD CHANGE ");
  1391  010214  0E7B               	movlw	low STR_14
  1392  010216  6E49               	movwf	LCD_Write_String@f,c
  1393  010218  0EFF               	movlw	high STR_14
  1394  01021A  6E4A               	movwf	LCD_Write_String@f+1,c
  1395  01021C  EC31  F095         	call	_LCD_Write_String	;wreg free
  1396                           
  1397                           ;main.c: 180: resetEntry(userPswdEntry);
  1398  010220  0E93               	movlw	low _userPswdEntry
  1399  010222  6E4E               	movwf	resetEntry@str,c
  1400  010224  0E00               	movlw	high _userPswdEntry
  1401  010226  6E4F               	movwf	resetEntry@str+1,c
  1402  010228  EC7A  F096         	call	_resetEntry	;wreg free
  1403                           
  1404                           ;main.c: 181: LCD_resetPasswordEntry();
  1405  01022C  ECEE  F096         	call	_LCD_resetPasswordEntry	;wreg free
  1406                           
  1407                           ;main.c: 182: while (passwordChange == TRUE)
  1408  010230  D12E               	goto	l794
  1409  010232                     
  1410                           ;main.c: 183: {;main.c: 184: keypadOutput = keypadRead();
  1411  010232  EC73  F090         	call	_keypadRead	;wreg free
  1412  010236  0060  F12C  F024   	movff	?_keypadRead,_keypadOutput
  1413  01023C  0060  F130  F025   	movff	?_keypadRead+1,_keypadOutput+1
  1414                           
  1415                           ;main.c: 185: keyPressed = keypadOutput.keyPressed;
  1416  010242  0060  F090  F038   	movff	_keypadOutput,_keyPressed
  1417                           
  1418                           ;main.c: 186: keyHeld = keypadOutput.keyHeld;
  1419  010248  0060  F094  F039   	movff	_keypadOutput+1,_keyHeld
  1420                           
  1421                           ;main.c: 188: if (keyPressed != '#' && keyPressed != '*' && keyIterrator<7)
  1422  01024E  0E23               	movlw	35
  1423  010250  1838               	xorwf	_keyPressed,w,c
  1424  010252  B4D8               	btfsc	16344,2,c
  1425  010254  D026               	goto	l778
  1426  010256  0E2A               	movlw	42
  1427  010258  1838               	xorwf	_keyPressed,w,c
  1428  01025A  B4D8               	btfsc	16344,2,c
  1429  01025C  D022               	goto	l778
  1430  01025E  BE37               	btfsc	_keyIterrator+1,7,c
  1431  010260  D006               	goto	u7390
  1432  010262  5037               	movf	_keyIterrator+1,w,c
  1433  010264  E11E               	bnz	l6598
  1434  010266  0E07               	movlw	7
  1435  010268  5C36               	subwf	_keyIterrator,w,c
  1436  01026A  B0D8               	btfsc	16344,0,c
  1437  01026C  D01A               	goto	l778
  1438  01026E                     u7390:
  1439                           
  1440                           ;main.c: 189: {;main.c: 190: userPswdEntry[keyIterrator] = keyPressed;
  1441  01026E  0E93               	movlw	low _userPswdEntry
  1442  010270  2436               	addwf	_keyIterrator,w,c
  1443  010272  6ED9               	movwf	16345,c
  1444  010274  0E00               	movlw	high _userPswdEntry
  1445  010276  2037               	addwfc	_keyIterrator+1,w,c
  1446  010278  6EDA               	movwf	16346,c
  1447  01027A  0060  F0E3  FFDF   	movff	_keyPressed,16351
  1448                           
  1449                           ;main.c: 191: keyIterrator++;
  1450  010280  4A36               	infsnz	_keyIterrator,f,c
  1451  010282  2A37               	incf	_keyIterrator+1,f,c
  1452                           
  1453                           ;main.c: 193: LCD_Set_Cursor(2,9+keyIterrator);
  1454  010284  0E00               	movlw	0
  1455  010286  6E4A               	movwf	LCD_Set_Cursor@c+1,c
  1456  010288  0E02               	movlw	2
  1457  01028A  6E49               	movwf	LCD_Set_Cursor@c,c
  1458  01028C  0E09               	movlw	9
  1459  01028E  2436               	addwf	_keyIterrator,w,c
  1460  010290  6E4B               	movwf	LCD_Set_Cursor@d,c
  1461  010292  0E00               	movlw	0
  1462  010294  2037               	addwfc	_keyIterrator+1,w,c
  1463  010296  6E4C               	movwf	LCD_Set_Cursor@d+1,c
  1464  010298  EC3A  F097         	call	_LCD_Set_Cursor	;wreg free
  1465                           
  1466                           ;main.c: 195: LCD_Write_Char(keyPressed);
  1467  01029C  5038               	movf	_keyPressed,w,c
  1468  01029E  ECB3  F097         	call	_LCD_Write_Char
  1469  0102A2                     l778:
  1470  0102A2                     l6598:
  1471                           
  1472                           ;main.c: 196: };main.c: 198: if (keyPressed == '#' || keyPressed == '*'&& keyHeld == NON
      +                          E)
  1473  0102A2  0E23               	movlw	35
  1474  0102A4  1838               	xorwf	_keyPressed,w,c
  1475  0102A6  B4D8               	btfsc	16344,2,c
  1476  0102A8  D00F               	goto	u7420
  1477  0102AA  0E2A               	movlw	42
  1478  0102AC  1838               	xorwf	_keyPressed,w,c
  1479  0102AE  A4D8               	btfss	16344,2,c
  1480  0102B0  D0EE               	goto	l794
  1481  0102B2  5039               	movf	_keyHeld,w,c
  1482  0102B4  0100               	movlb	0	; () banked
  1483  0102B6  6F85               	movwf	??_main& (0+255),b
  1484  0102B8  6B86               	clrf	(??_main+1)& (0+255),b
  1485  0102BA  5026               	movf	_NONE,w,c
  1486  0102BC  1985               	xorwf	??_main& (0+255),w,b
  1487  0102BE  E103               	bnz	u7421
  1488  0102C0  5027               	movf	_NONE+1,w,c
  1489  0102C2  1986               	xorwf	(??_main+1)& (0+255),w,b
  1490  0102C4  A4D8               	btfss	16344,2,c
  1491  0102C6                     u7421:
  1492  0102C6  D0E3               	goto	l794
  1493  0102C8                     u7420:
  1494                           
  1495                           ;main.c: 199: {;main.c: 200: {;main.c: 201: _delay((unsigned long)((10)*(8000000/4000.0)
      +                          ));
  1496                           
  1497                           ; BSR set to: 0
  1498  0102C8  0E1A               	movlw	26
  1499  0102CA  0100               	movlb	0	; () banked
  1500  0102CC  6F85               	movwf	??_main& (0+255),b
  1501  0102CE  0EF8               	movlw	248
  1502  0102D0                     u8877:
  1503  0102D0  2EE8               	decfsz	16360,f,c
  1504  0102D2  D7FE               	bra	u8877
  1505  0102D4  2F85               	decfsz	??_main& (0+255),f,b
  1506  0102D6  D7FC               	bra	u8877
  1507  0102D8  F000               	nop	
  1508                           
  1509                           ;main.c: 202: isPasswordTrue = verifyPassword(userPswdEntry,password);
  1510  0102DA  0E93               	movlw	low _userPswdEntry
  1511  0102DC  6E4E               	movwf	verifyPassword@user,c
  1512  0102DE  0E00               	movlw	high _userPswdEntry
  1513  0102E0  6E4F               	movwf	verifyPassword@user+1,c
  1514  0102E2  0E74               	movlw	low _password
  1515  0102E4  6E50               	movwf	verifyPassword@pass,c
  1516  0102E6  0E00               	movlw	high _password
  1517  0102E8  6E51               	movwf	verifyPassword@pass+1,c
  1518  0102EA  ECD2  F096         	call	_verifyPassword	;wreg free
  1519  0102EE  0060  F138  F034   	movff	?_verifyPassword,_isPasswordTrue
  1520  0102F4  0060  F13C  F035   	movff	?_verifyPassword+1,_isPasswordTrue+1
  1521                           
  1522                           ;main.c: 203: resetPasswordEntry();
  1523  0102FA  EC22  F097         	call	_resetPasswordEntry	;wreg free
  1524                           
  1525                           ;main.c: 205: if(isPasswordTrue == TRUE)
  1526  0102FE  5019               	movf	_TRUE,w,c
  1527  010300  1834               	xorwf	_isPasswordTrue,w,c
  1528  010302  E103               	bnz	u7431
  1529  010304  501A               	movf	_TRUE+1,w,c
  1530  010306  1835               	xorwf	_isPasswordTrue+1,w,c
  1531  010308  A4D8               	btfss	16344,2,c
  1532  01030A                     u7431:
  1533  01030A  D0AA               	goto	l782
  1534                           
  1535                           ;main.c: 206: {;main.c: 207: serialSend('N');
  1536  01030C  0E4E               	movlw	78
  1537  01030E  ECA4  F098         	call	_serialSend
  1538                           
  1539                           ;main.c: 208: keyIterrator = 0;
  1540  010312  0E00               	movlw	0
  1541  010314  6E37               	movwf	_keyIterrator+1,c
  1542  010316  0E00               	movlw	0
  1543  010318  6E36               	movwf	_keyIterrator,c
  1544                           
  1545                           ;main.c: 209: LCD_printAccepted();
  1546  01031A  ECA0  F093         	call	_LCD_printAccepted	;wreg free
  1547                           
  1548                           ;main.c: 210: LCD_Set_Cursor(1,1);
  1549  01031E  0E00               	movlw	0
  1550  010320  6E4A               	movwf	LCD_Set_Cursor@c+1,c
  1551  010322  0E01               	movlw	1
  1552  010324  6E49               	movwf	LCD_Set_Cursor@c,c
  1553  010326  0E00               	movlw	0
  1554  010328  6E4C               	movwf	LCD_Set_Cursor@d+1,c
  1555  01032A  0E01               	movlw	1
  1556  01032C  6E4B               	movwf	LCD_Set_Cursor@d,c
  1557  01032E  EC3A  F097         	call	_LCD_Set_Cursor	;wreg free
  1558                           
  1559                           ;main.c: 211: LCD_Write_String("NEW PASSWORD    ");
  1560  010332  0E15               	movlw	low STR_15
  1561  010334  6E49               	movwf	LCD_Write_String@f,c
  1562  010336  0EFF               	movlw	high STR_15
  1563  010338  6E4A               	movwf	LCD_Write_String@f+1,c
  1564  01033A  EC31  F095         	call	_LCD_Write_String	;wreg free
  1565                           
  1566                           ;main.c: 212: LCD_resetPasswordEntry();
  1567  01033E  ECEE  F096         	call	_LCD_resetPasswordEntry	;wreg free
  1568                           
  1569                           ;main.c: 213: while (passwordChange == TRUE)
  1570  010342  D085               	goto	l6672
  1571  010344                     
  1572                           ;main.c: 214: {;main.c: 215: keypadOutput = keypadRead();
  1573  010344  EC73  F090         	call	_keypadRead	;wreg free
  1574  010348  0060  F12C  F024   	movff	?_keypadRead,_keypadOutput
  1575  01034E  0060  F130  F025   	movff	?_keypadRead+1,_keypadOutput+1
  1576                           
  1577                           ;main.c: 216: keyPressed = keypadOutput.keyPressed;
  1578  010354  0060  F090  F038   	movff	_keypadOutput,_keyPressed
  1579                           
  1580                           ;main.c: 217: keyHeld = keypadOutput.keyHeld;
  1581  01035A  0060  F094  F039   	movff	_keypadOutput+1,_keyHeld
  1582                           
  1583                           ;main.c: 219: if (keyPressed != '#' && keyPressed != '*' && keyIterrator<7)
  1584  010360  0E23               	movlw	35
  1585  010362  1838               	xorwf	_keyPressed,w,c
  1586  010364  B4D8               	btfsc	16344,2,c
  1587  010366  D02C               	goto	l785
  1588  010368  0E2A               	movlw	42
  1589  01036A  1838               	xorwf	_keyPressed,w,c
  1590  01036C  B4D8               	btfsc	16344,2,c
  1591  01036E  D028               	goto	l785
  1592  010370  BE37               	btfsc	_keyIterrator+1,7,c
  1593  010372  D006               	goto	u7460
  1594  010374  5037               	movf	_keyIterrator+1,w,c
  1595  010376  E124               	bnz	l6648
  1596  010378  0E07               	movlw	7
  1597  01037A  5C36               	subwf	_keyIterrator,w,c
  1598  01037C  B0D8               	btfsc	16344,0,c
  1599  01037E  D020               	goto	l785
  1600  010380                     u7460:
  1601                           
  1602                           ;main.c: 220: {;main.c: 221: serialSend('N');
  1603  010380  0E4E               	movlw	78
  1604  010382  ECA4  F098         	call	_serialSend
  1605                           
  1606                           ;main.c: 222: serialSend(keyPressed);
  1607  010386  5038               	movf	_keyPressed,w,c
  1608  010388  ECA4  F098         	call	_serialSend
  1609                           
  1610                           ;main.c: 223: userPswdEntry[keyIterrator] = keyPressed;
  1611  01038C  0E93               	movlw	low _userPswdEntry
  1612  01038E  2436               	addwf	_keyIterrator,w,c
  1613  010390  6ED9               	movwf	16345,c
  1614  010392  0E00               	movlw	high _userPswdEntry
  1615  010394  2037               	addwfc	_keyIterrator+1,w,c
  1616  010396  6EDA               	movwf	16346,c
  1617  010398  0060  F0E3  FFDF   	movff	_keyPressed,16351
  1618                           
  1619                           ;main.c: 224: keyIterrator++;
  1620  01039E  4A36               	infsnz	_keyIterrator,f,c
  1621  0103A0  2A37               	incf	_keyIterrator+1,f,c
  1622                           
  1623                           ;main.c: 226: LCD_Set_Cursor(2,9+keyIterrator);
  1624  0103A2  0E00               	movlw	0
  1625  0103A4  6E4A               	movwf	LCD_Set_Cursor@c+1,c
  1626  0103A6  0E02               	movlw	2
  1627  0103A8  6E49               	movwf	LCD_Set_Cursor@c,c
  1628  0103AA  0E09               	movlw	9
  1629  0103AC  2436               	addwf	_keyIterrator,w,c
  1630  0103AE  6E4B               	movwf	LCD_Set_Cursor@d,c
  1631  0103B0  0E00               	movlw	0
  1632  0103B2  2037               	addwfc	_keyIterrator+1,w,c
  1633  0103B4  6E4C               	movwf	LCD_Set_Cursor@d+1,c
  1634  0103B6  EC3A  F097         	call	_LCD_Set_Cursor	;wreg free
  1635                           
  1636                           ;main.c: 228: LCD_Write_Char(keyPressed);
  1637  0103BA  5038               	movf	_keyPressed,w,c
  1638  0103BC  ECB3  F097         	call	_LCD_Write_Char
  1639  0103C0                     l785:
  1640  0103C0                     l6648:
  1641                           
  1642                           ;main.c: 229: };main.c: 231: if (keyPressed == '#' || keyPressed == '*'&& keyHeld == NON
      +                          E)
  1643  0103C0  0E23               	movlw	35
  1644  0103C2  1838               	xorwf	_keyPressed,w,c
  1645  0103C4  B4D8               	btfsc	16344,2,c
  1646  0103C6  D00F               	goto	u7490
  1647  0103C8  0E2A               	movlw	42
  1648  0103CA  1838               	xorwf	_keyPressed,w,c
  1649  0103CC  A4D8               	btfss	16344,2,c
  1650  0103CE  D03F               	goto	l6672
  1651  0103D0  5039               	movf	_keyHeld,w,c
  1652  0103D2  0100               	movlb	0	; () banked
  1653  0103D4  6F85               	movwf	??_main& (0+255),b
  1654  0103D6  6B86               	clrf	(??_main+1)& (0+255),b
  1655  0103D8  5026               	movf	_NONE,w,c
  1656  0103DA  1985               	xorwf	??_main& (0+255),w,b
  1657  0103DC  E138               	bnz	l6674
  1658  0103DE  5027               	movf	_NONE+1,w,c
  1659  0103E0  1986               	xorwf	(??_main+1)& (0+255),w,b
  1660  0103E2  A4D8               	btfss	16344,2,c
  1661  0103E4  D034               	goto	l6672
  1662  0103E6                     u7490:
  1663                           
  1664                           ;main.c: 232: {;main.c: 233: serialSend('N');
  1665                           
  1666                           ; BSR set to: 0
  1667  0103E6  0E4E               	movlw	78
  1668  0103E8  ECA4  F098         	call	_serialSend
  1669                           
  1670                           ;main.c: 234: serialSend('*');
  1671  0103EC  0E2A               	movlw	42
  1672  0103EE  ECA4  F098         	call	_serialSend
  1673                           
  1674                           ;main.c: 235: for (int i=0;i<=6;i++){password[i] = userPswdEntry[i];}
  1675  0103F2  0E00               	movlw	0
  1676  0103F4  0100               	movlb	0	; () banked
  1677  0103F6  6F88               	movwf	(main@i+1)& (0+255),b
  1678  0103F8  0E00               	movlw	0
  1679  0103FA  6F87               	movwf	main@i& (0+255),b
  1680                           
  1681                           ; BSR set to: 0
  1682  0103FC  BF88               	btfsc	(main@i+1)& (0+255),7,b
  1683  0103FE  D003               	goto	l789
  1684  010400  5188               	movf	(main@i+1)& (0+255),w,b
  1685  010402  E11A               	bnz	l790
  1686  010404  D015               	goto	L1
  1687  010406                     l789:
  1688                           
  1689                           ; BSR set to: 0
  1690                           
  1691                           ; BSR set to: 0
  1692  010406  0E93               	movlw	low _userPswdEntry
  1693  010408  2587               	addwf	main@i& (0+255),w,b
  1694  01040A  6ED9               	movwf	16345,c
  1695  01040C  0E00               	movlw	high _userPswdEntry
  1696  01040E  2188               	addwfc	(main@i+1)& (0+255),w,b
  1697  010410  6EDA               	movwf	16346,c
  1698  010412  0E74               	movlw	low _password
  1699  010414  2587               	addwf	main@i& (0+255),w,b
  1700  010416  6EE1               	movwf	16353,c
  1701  010418  0E00               	movlw	high _password
  1702  01041A  2188               	addwfc	(main@i+1)& (0+255),w,b
  1703  01041C  6EE2               	movwf	16354,c
  1704  01041E  006F FF7F FFE7     	movff	16351,16359
  1705                           
  1706                           ; BSR set to: 0
  1707  010424  4B87               	infsnz	main@i& (0+255),f,b
  1708  010426  2B88               	incf	(main@i+1)& (0+255),f,b
  1709                           
  1710                           ; BSR set to: 0
  1711  010428  BF88               	btfsc	(main@i+1)& (0+255),7,b
  1712  01042A  D7ED               	goto	l789
  1713  01042C  5188               	movf	(main@i+1)& (0+255),w,b
  1714  01042E  E104               	bnz	u7510
  1715  010430                     L1:
  1716  010430  0E07               	movlw	7
  1717  010432  5D87               	subwf	main@i& (0+255),w,b
  1718  010434  A0D8               	btfss	16344,0,c
  1719  010436  D7E7               	goto	l789
  1720  010438                     u7510:
  1721  010438                     l790:
  1722                           
  1723                           ; BSR set to: 0
  1724                           ;main.c: 236: passwordChange = FALSE;
  1725  010438  0060  F0A0  F08F   	movff	_FALSE,_passwordChange
  1726  01043E  0060  F0A4  F090   	movff	_FALSE+1,_passwordChange+1
  1727                           
  1728                           ; BSR set to: 0
  1729                           ;main.c: 237: resetPasswordEntry();
  1730  010444  EC22  F097         	call	_resetPasswordEntry	;wreg free
  1731                           
  1732                           ;main.c: 238: stanbyPageReset();
  1733  010448  EC38  F096         	call	_stanbyPageReset	;wreg free
  1734                           
  1735                           ;main.c: 239: break;
  1736  01044C  D020               	goto	l794
  1737  01044E                     l6672:
  1738  01044E                     l6674:
  1739  01044E  5019               	movf	_TRUE,w,c
  1740  010450  0100               	movlb	0	; () banked
  1741  010452  198F               	xorwf	_passwordChange& (0+255),w,b
  1742  010454  E11C               	bnz	l6686
  1743  010456  501A               	movf	_TRUE+1,w,c
  1744  010458  1990               	xorwf	(_passwordChange+1)& (0+255),w,b
  1745  01045A  A4D8               	btfss	16344,2,c
  1746  01045C  D018               	goto	l794
  1747  01045E  D772               	goto	l784
  1748  010460                     l782:
  1749                           
  1750                           ;main.c: 246: else if (isPasswordTrue == FALSE)
  1751                           
  1752                           ; BSR set to: 0
  1753  010460  5028               	movf	_FALSE,w,c
  1754  010462  1834               	xorwf	_isPasswordTrue,w,c
  1755  010464  E114               	bnz	l6686
  1756  010466  5029               	movf	_FALSE+1,w,c
  1757  010468  1835               	xorwf	_isPasswordTrue+1,w,c
  1758  01046A  A4D8               	btfss	16344,2,c
  1759  01046C  D010               	goto	l794
  1760                           
  1761                           ;main.c: 247: {;main.c: 248: passwordChange = FALSE;
  1762  01046E  0060  F0A0  F08F   	movff	_FALSE,_passwordChange
  1763  010474  0060  F0A4  F090   	movff	_FALSE+1,_passwordChange+1
  1764                           
  1765                           ;main.c: 249: LCD_printDeclined();
  1766  01047A  EC44  F093         	call	_LCD_printDeclined	;wreg free
  1767                           
  1768                           ;main.c: 250: resetEntry(userPswdEntry);
  1769  01047E  0E93               	movlw	low _userPswdEntry
  1770  010480  6E4E               	movwf	resetEntry@str,c
  1771  010482  0E00               	movlw	high _userPswdEntry
  1772  010484  6E4F               	movwf	resetEntry@str+1,c
  1773  010486  EC7A  F096         	call	_resetEntry	;wreg free
  1774                           
  1775                           ;main.c: 251: stanbyPageReset();
  1776  01048A  EC38  F096         	call	_stanbyPageReset	;wreg free
  1777  01048E                     l794:
  1778  01048E                     l6686:
  1779  01048E  5019               	movf	_TRUE,w,c
  1780  010490  0100               	movlb	0	; () banked
  1781  010492  198F               	xorwf	_passwordChange& (0+255),w,b
  1782  010494  E105               	bnz	u7540
  1783  010496  501A               	movf	_TRUE+1,w,c
  1784  010498  1990               	xorwf	(_passwordChange+1)& (0+255),w,b
  1785  01049A  A4D8               	btfss	16344,2,c
  1786  01049C  D5B5               	goto	l760
  1787  01049E  D6C9               	goto	l777
  1788  0104A0                     u7540:
  1789                           
  1790                           ; BSR set to: 0
  1791                           ;main.c: 253: };main.c: 254: };main.c: 255: };main.c: 256: };main.c: 258: }
  1792  0104A0  D5B3               	goto	l760
  1793  0104A2                     l775:
  1794                           
  1795                           ; BSR set to: 0
  1796                           ;main.c: 260: else if(keyPressed == '*' && keyHeld == '*')
  1797                           
  1798                           ; BSR set to: 0
  1799  0104A2  0E2A               	movlw	42
  1800  0104A4  1838               	xorwf	_keyPressed,w,c
  1801  0104A6  A4D8               	btfss	16344,2,c
  1802  0104A8  D114               	goto	l797
  1803                           
  1804                           ; BSR set to: 0
  1805  0104AA  0E2A               	movlw	42
  1806  0104AC  1839               	xorwf	_keyHeld,w,c
  1807  0104AE  A4D8               	btfss	16344,2,c
  1808  0104B0  D110               	goto	l797
  1809                           
  1810                           ; BSR set to: 0
  1811                           ;main.c: 261: {;main.c: 262: timerChange = TRUE;
  1812  0104B2  0060  F064  F091   	movff	_TRUE,_timerChange
  1813  0104B8  0060  F068  F092   	movff	_TRUE+1,_timerChange+1
  1814                           
  1815                           ; BSR set to: 0
  1816                           ;main.c: 263: LCD_Set_Cursor(2,1);
  1817  0104BE  0E00               	movlw	0
  1818  0104C0  6E4A               	movwf	LCD_Set_Cursor@c+1,c
  1819  0104C2  0E02               	movlw	2
  1820  0104C4  6E49               	movwf	LCD_Set_Cursor@c,c
  1821  0104C6  0E00               	movlw	0
  1822  0104C8  6E4C               	movwf	LCD_Set_Cursor@d+1,c
  1823  0104CA  0E01               	movlw	1
  1824  0104CC  6E4B               	movwf	LCD_Set_Cursor@d,c
  1825  0104CE  EC3A  F097         	call	_LCD_Set_Cursor	;wreg free
  1826                           
  1827                           ;main.c: 264: LCD_Write_String("TIMER CHANGE");
  1828  0104D2  0EBF               	movlw	low STR_16
  1829  0104D4  6E49               	movwf	LCD_Write_String@f,c
  1830  0104D6  0EFF               	movlw	high STR_16
  1831  0104D8  6E4A               	movwf	LCD_Write_String@f+1,c
  1832  0104DA  EC31  F095         	call	_LCD_Write_String	;wreg free
  1833                           
  1834                           ;main.c: 266: int cursorPos = 0;
  1835  0104DE  0E00               	movlw	0
  1836  0104E0  0100               	movlb	0	; () banked
  1837  0104E2  6F8A               	movwf	(main@cursorPos+1)& (0+255),b
  1838  0104E4  0E00               	movlw	0
  1839  0104E6  6F89               	movwf	main@cursorPos& (0+255),b
  1840                           
  1841                           ; BSR set to: 0
  1842                           ;main.c: 267: LCD_printInitialCountdown();
  1843  0104E8  ECA8  F095         	call	_LCD_printInitialCountdown	;wreg free
  1844                           
  1845                           ;main.c: 268: LCD_Set_Cursor(1,9);
  1846  0104EC  0E00               	movlw	0
  1847  0104EE  6E4A               	movwf	LCD_Set_Cursor@c+1,c
  1848  0104F0  0E01               	movlw	1
  1849  0104F2  6E49               	movwf	LCD_Set_Cursor@c,c
  1850  0104F4  0E00               	movlw	0
  1851  0104F6  6E4C               	movwf	LCD_Set_Cursor@d+1,c
  1852  0104F8  0E09               	movlw	9
  1853  0104FA  6E4B               	movwf	LCD_Set_Cursor@d,c
  1854  0104FC  EC3A  F097         	call	_LCD_Set_Cursor	;wreg free
  1855                           
  1856                           ;main.c: 269: LCD_Cursor_Blink_On();
  1857  010500  ECA9  F098         	call	_LCD_Cursor_Blink_On	;wreg free
  1858                           
  1859                           ;main.c: 271: while(timerChange == TRUE)
  1860  010504  D0D1               	goto	l832
  1861  010506                     
  1862                           ;main.c: 272: {;main.c: 273: keypadOutput = keypadRead();
  1863  010506  EC73  F090         	call	_keypadRead	;wreg free
  1864  01050A  0060  F12C  F024   	movff	?_keypadRead,_keypadOutput
  1865  010510  0060  F130  F025   	movff	?_keypadRead+1,_keypadOutput+1
  1866                           
  1867                           ;main.c: 274: keyPressed = keypadOutput.keyPressed;
  1868  010516  0060  F090  F038   	movff	_keypadOutput,_keyPressed
  1869                           
  1870                           ;main.c: 275: keyHeld = keypadOutput.keyHeld;
  1871  01051C  0060  F094  F039   	movff	_keypadOutput+1,_keyHeld
  1872                           
  1873                           ;main.c: 277: if(keyHeld == NONE && keyPressed == '#')
  1874  010522  5039               	movf	_keyHeld,w,c
  1875  010524  0100               	movlb	0	; () banked
  1876  010526  6F85               	movwf	??_main& (0+255),b
  1877  010528  6B86               	clrf	(??_main+1)& (0+255),b
  1878  01052A  5026               	movf	_NONE,w,c
  1879  01052C  1985               	xorwf	??_main& (0+255),w,b
  1880  01052E  E138               	bnz	l6752
  1881  010530  5027               	movf	_NONE+1,w,c
  1882  010532  1986               	xorwf	(??_main+1)& (0+255),w,b
  1883  010534  A4D8               	btfss	16344,2,c
  1884  010536  D034               	goto	l800
  1885                           
  1886                           ; BSR set to: 0
  1887  010538  0E23               	movlw	35
  1888  01053A  1838               	xorwf	_keyPressed,w,c
  1889  01053C  A4D8               	btfss	16344,2,c
  1890  01053E  D030               	goto	l800
  1891                           
  1892                           ; BSR set to: 0
  1893                           ;main.c: 278: {;main.c: 279: if(cursorPos==0){LCD_Cursor_Right();cursorPos++;}
  1894  010540  5189               	movf	main@cursorPos& (0+255),w,b
  1895  010542  118A               	iorwf	(main@cursorPos+1)& (0+255),w,b
  1896  010544  A4D8               	btfss	16344,2,c
  1897  010546  D003               	goto	l801
  1898                           
  1899                           ; BSR set to: 0
  1900  010548  ECB1  F098         	call	_LCD_Cursor_Right	;wreg free
  1901  01054C  D025               	goto	l6748
  1902  01054E                     l801:
  1903                           
  1904                           ; BSR set to: 0
  1905                           ;main.c: 280: else if(cursorPos==1){LCD_Cursor_Right();LCD_Cursor_Right();cursorPos++;cu
      +                          rsorPos++;}
  1906                           
  1907                           ; BSR set to: 0
  1908  01054E  0589               	decf	main@cursorPos& (0+255),w,b
  1909  010550  118A               	iorwf	(main@cursorPos+1)& (0+255),w,b
  1910  010552  A4D8               	btfss	16344,2,c
  1911  010554  D008               	goto	l803
  1912                           
  1913                           ; BSR set to: 0
  1914  010556  ECB1  F098         	call	_LCD_Cursor_Right	;wreg free
  1915  01055A  ECB1  F098         	call	_LCD_Cursor_Right	;wreg free
  1916  01055E                     l6726:
  1917  01055E  0100               	movlb	0	; () banked
  1918  010560  4B89               	infsnz	main@cursorPos& (0+255),f,b
  1919  010562  2B8A               	incf	(main@cursorPos+1)& (0+255),f,b
  1920  010564  D01A               	goto	L3
  1921  010566                     l803:
  1922                           
  1923                           ; BSR set to: 0
  1924                           ;main.c: 281: else if(cursorPos==3){LCD_Cursor_Right();cursorPos++;}
  1925                           
  1926                           ; BSR set to: 0
  1927  010566  0E03               	movlw	3
  1928  010568  1989               	xorwf	main@cursorPos& (0+255),w,b
  1929  01056A  118A               	iorwf	(main@cursorPos+1)& (0+255),w,b
  1930  01056C  A4D8               	btfss	16344,2,c
  1931  01056E  D003               	goto	l805
  1932                           
  1933                           ; BSR set to: 0
  1934  010570  ECB1  F098         	call	_LCD_Cursor_Right	;wreg free
  1935  010574  D011               	goto	l6748
  1936  010576                     l805:
  1937                           
  1938                           ; BSR set to: 0
  1939                           ;main.c: 282: else if(cursorPos==4){LCD_Cursor_Right();LCD_Cursor_Right();cursorPos++;cu
      +                          rsorPos++;}
  1940                           
  1941                           ; BSR set to: 0
  1942  010576  0E04               	movlw	4
  1943  010578  1989               	xorwf	main@cursorPos& (0+255),w,b
  1944  01057A  118A               	iorwf	(main@cursorPos+1)& (0+255),w,b
  1945  01057C  A4D8               	btfss	16344,2,c
  1946  01057E  D005               	goto	l807
  1947                           
  1948                           ; BSR set to: 0
  1949  010580  ECB1  F098         	call	_LCD_Cursor_Right	;wreg free
  1950  010584  ECB1  F098         	call	_LCD_Cursor_Right	;wreg free
  1951  010588  D7EA               	goto	l6726
  1952  01058A                     l807:
  1953                           
  1954                           ; BSR set to: 0
  1955                           ;main.c: 283: else if(cursorPos==6){LCD_Cursor_Right();cursorPos++;}
  1956                           
  1957                           ; BSR set to: 0
  1958  01058A  0E06               	movlw	6
  1959  01058C  1989               	xorwf	main@cursorPos& (0+255),w,b
  1960  01058E  118A               	iorwf	(main@cursorPos+1)& (0+255),w,b
  1961  010590  A4D8               	btfss	16344,2,c
  1962  010592  D08A               	goto	l832
  1963                           
  1964                           ; BSR set to: 0
  1965  010594  ECB1  F098         	call	_LCD_Cursor_Right	;wreg free
  1966  010598                     l6748:
  1967  010598  0100               	movlb	0	; () banked
  1968  01059A                     L3:
  1969  01059A  4B89               	infsnz	main@cursorPos& (0+255),f,b
  1970  01059C  2B8A               	incf	(main@cursorPos+1)& (0+255),f,b
  1971                           
  1972                           ; BSR set to: 0
  1973                           ;main.c: 285: }
  1974                           
  1975                           ; BSR set to: 0
  1976                           
  1977                           ; BSR set to: 0
  1978                           
  1979                           ; BSR set to: 0
  1980                           
  1981                           ; BSR set to: 0
  1982                           
  1983                           ; BSR set to: 0
  1984                           
  1985                           ; BSR set to: 0
  1986                           
  1987                           ; BSR set to: 0
  1988  01059E  D084               	goto	l832
  1989  0105A0                     l800:
  1990  0105A0                     l6752:
  1991                           
  1992                           ; BSR set to: 0
  1993                           ;main.c: 287: else if (keyHeld == NONE && keyPressed == '*')
  1994  0105A0  5039               	movf	_keyHeld,w,c
  1995  0105A2  6F85               	movwf	??_main& (0+255),b
  1996  0105A4  6B86               	clrf	(??_main+1)& (0+255),b
  1997  0105A6  5026               	movf	_NONE,w,c
  1998  0105A8  1985               	xorwf	??_main& (0+255),w,b
  1999  0105AA  E140               	bnz	l6794
  2000  0105AC  5027               	movf	_NONE+1,w,c
  2001  0105AE  1986               	xorwf	(??_main+1)& (0+255),w,b
  2002  0105B0  A4D8               	btfss	16344,2,c
  2003  0105B2  D03C               	goto	l813
  2004                           
  2005                           ; BSR set to: 0
  2006  0105B4  0E2A               	movlw	42
  2007  0105B6  1838               	xorwf	_keyPressed,w,c
  2008  0105B8  A4D8               	btfss	16344,2,c
  2009  0105BA  D038               	goto	l813
  2010                           
  2011                           ; BSR set to: 0
  2012                           ;main.c: 288: {;main.c: 289: if(cursorPos==0){}
  2013  0105BC  5189               	movf	main@cursorPos& (0+255),w,b
  2014  0105BE  118A               	iorwf	(main@cursorPos+1)& (0+255),w,b
  2015  0105C0  B4D8               	btfsc	16344,2,c
  2016  0105C2  D072               	goto	l832
  2017                           
  2018                           ; BSR set to: 0
  2019                           ;main.c: 290: else if(cursorPos==1){LCD_Cursor_Left();cursorPos--;}
  2020                           
  2021                           ; BSR set to: 0
  2022                           
  2023                           ; BSR set to: 0
  2024  0105C4  0589               	decf	main@cursorPos& (0+255),w,b
  2025  0105C6  118A               	iorwf	(main@cursorPos+1)& (0+255),w,b
  2026  0105C8  A4D8               	btfss	16344,2,c
  2027  0105CA  D004               	goto	l816
  2028                           
  2029                           ; BSR set to: 0
  2030  0105CC  ECB5  F098         	call	_LCD_Cursor_Left	;wreg free
  2031  0105D0                     l6764:
  2032  0105D0  0100               	movlb	0	; () banked
  2033  0105D2  D028               	goto	L5
  2034  0105D4                     l816:
  2035                           
  2036                           ; BSR set to: 0
  2037                           ;main.c: 291: else if(cursorPos==3){LCD_Cursor_Left();LCD_Cursor_Left();cursorPos--;curs
      +                          orPos--;}
  2038                           
  2039                           ; BSR set to: 0
  2040  0105D4  0E03               	movlw	3
  2041  0105D6  1989               	xorwf	main@cursorPos& (0+255),w,b
  2042  0105D8  118A               	iorwf	(main@cursorPos+1)& (0+255),w,b
  2043  0105DA  A4D8               	btfss	16344,2,c
  2044  0105DC  D009               	goto	l818
  2045                           
  2046                           ; BSR set to: 0
  2047  0105DE  ECB5  F098         	call	_LCD_Cursor_Left	;wreg free
  2048  0105E2  ECB5  F098         	call	_LCD_Cursor_Left	;wreg free
  2049  0105E6                     l6770:
  2050  0105E6  0100               	movlb	0	; () banked
  2051  0105E8  0789               	decf	main@cursorPos& (0+255),f,b
  2052  0105EA  A0D8               	btfss	16344,0,c
  2053  0105EC  078A               	decf	(main@cursorPos+1)& (0+255),f,b
  2054  0105EE  D01A               	goto	L5
  2055  0105F0                     l818:
  2056                           
  2057                           ; BSR set to: 0
  2058                           ;main.c: 292: else if(cursorPos==4){LCD_Cursor_Left();cursorPos--;}
  2059                           
  2060                           ; BSR set to: 0
  2061  0105F0  0E04               	movlw	4
  2062  0105F2  1989               	xorwf	main@cursorPos& (0+255),w,b
  2063  0105F4  118A               	iorwf	(main@cursorPos+1)& (0+255),w,b
  2064  0105F6  A4D8               	btfss	16344,2,c
  2065  0105F8  D003               	goto	l820
  2066                           
  2067                           ; BSR set to: 0
  2068  0105FA  ECB5  F098         	call	_LCD_Cursor_Left	;wreg free
  2069  0105FE  D7E8               	goto	l6764
  2070  010600                     l820:
  2071                           
  2072                           ; BSR set to: 0
  2073                           ;main.c: 293: else if(cursorPos==6){LCD_Cursor_Left();LCD_Cursor_Left();cursorPos--;curs
      +                          orPos--;}
  2074                           
  2075                           ; BSR set to: 0
  2076  010600  0E06               	movlw	6
  2077  010602  1989               	xorwf	main@cursorPos& (0+255),w,b
  2078  010604  118A               	iorwf	(main@cursorPos+1)& (0+255),w,b
  2079  010606  A4D8               	btfss	16344,2,c
  2080  010608  D005               	goto	l822
  2081                           
  2082                           ; BSR set to: 0
  2083  01060A  ECB5  F098         	call	_LCD_Cursor_Left	;wreg free
  2084  01060E  ECB5  F098         	call	_LCD_Cursor_Left	;wreg free
  2085  010612  D7E9               	goto	l6770
  2086  010614                     l822:
  2087                           
  2088                           ; BSR set to: 0
  2089                           ;main.c: 294: else if(cursorPos==7){LCD_Cursor_Left();cursorPos--;}
  2090                           
  2091                           ; BSR set to: 0
  2092  010614  0E07               	movlw	7
  2093  010616  1989               	xorwf	main@cursorPos& (0+255),w,b
  2094  010618  118A               	iorwf	(main@cursorPos+1)& (0+255),w,b
  2095  01061A  A4D8               	btfss	16344,2,c
  2096  01061C  D045               	goto	l832
  2097                           
  2098                           ; BSR set to: 0
  2099  01061E  ECB5  F098         	call	_LCD_Cursor_Left	;wreg free
  2100  010622  D7D6               	goto	l6764
  2101  010624                     L5:
  2102  010624  0789               	decf	main@cursorPos& (0+255),f,b
  2103  010626  A0D8               	btfss	16344,0,c
  2104  010628  078A               	decf	(main@cursorPos+1)& (0+255),f,b
  2105                           
  2106                           ; BSR set to: 0
  2107                           ;main.c: 295: }
  2108                           
  2109                           ; BSR set to: 0
  2110                           
  2111                           ; BSR set to: 0
  2112                           
  2113                           ; BSR set to: 0
  2114                           
  2115                           ; BSR set to: 0
  2116                           
  2117                           ; BSR set to: 0
  2118  01062A  D03E               	goto	l832
  2119  01062C                     l813:
  2120  01062C                     l6794:
  2121                           
  2122                           ; BSR set to: 0
  2123                           ;main.c: 297: else if (keyHeld == NONE)
  2124  01062C  5039               	movf	_keyHeld,w,c
  2125  01062E  6F85               	movwf	??_main& (0+255),b
  2126  010630  6B86               	clrf	(??_main+1)& (0+255),b
  2127  010632  5026               	movf	_NONE,w,c
  2128  010634  1985               	xorwf	??_main& (0+255),w,b
  2129  010636  E12A               	bnz	l6816
  2130  010638  5027               	movf	_NONE+1,w,c
  2131  01063A  1986               	xorwf	(??_main+1)& (0+255),w,b
  2132  01063C  A4D8               	btfss	16344,2,c
  2133  01063E  D026               	goto	l826
  2134                           
  2135                           ; BSR set to: 0
  2136                           ;main.c: 298: {;main.c: 299: strCountdownInitialTime[cursorPos] = keyPressed;
  2137  010640  0E60               	movlw	low _strCountdownInitialTime
  2138  010642  2589               	addwf	main@cursorPos& (0+255),w,b
  2139  010644  6ED9               	movwf	16345,c
  2140  010646  0E00               	movlw	high _strCountdownInitialTime
  2141  010648  218A               	addwfc	(main@cursorPos+1)& (0+255),w,b
  2142  01064A  6EDA               	movwf	16346,c
  2143  01064C  0060  F0E3  FFDF   	movff	_keyPressed,16351
  2144                           
  2145                           ; BSR set to: 0
  2146                           ;main.c: 300: LCD_Write_Char(keyPressed);
  2147  010652  5038               	movf	_keyPressed,w,c
  2148  010654  ECB3  F097         	call	_LCD_Write_Char
  2149                           
  2150                           ;main.c: 301: cursorPos++;
  2151  010658  0100               	movlb	0	; () banked
  2152  01065A  4B89               	infsnz	main@cursorPos& (0+255),f,b
  2153  01065C  2B8A               	incf	(main@cursorPos+1)& (0+255),f,b
  2154                           
  2155                           ; BSR set to: 0
  2156                           ;main.c: 302: if(cursorPos == 2 || cursorPos == 5){LCD_Cursor_Right();cursorPos++;}
  2157  01065E  0E02               	movlw	2
  2158  010660  1989               	xorwf	main@cursorPos& (0+255),w,b
  2159  010662  118A               	iorwf	(main@cursorPos+1)& (0+255),w,b
  2160  010664  B4D8               	btfsc	16344,2,c
  2161  010666  D005               	goto	u7740
  2162                           
  2163                           ; BSR set to: 0
  2164  010668  0E05               	movlw	5
  2165  01066A  1989               	xorwf	main@cursorPos& (0+255),w,b
  2166  01066C  118A               	iorwf	(main@cursorPos+1)& (0+255),w,b
  2167  01066E  A4D8               	btfss	16344,2,c
  2168  010670  D005               	goto	l827
  2169  010672                     u7740:
  2170                           
  2171                           ; BSR set to: 0
  2172                           
  2173                           ; BSR set to: 0
  2174  010672  ECB1  F098         	call	_LCD_Cursor_Right	;wreg free
  2175  010676  0100               	movlb	0	; () banked
  2176  010678  4B89               	infsnz	main@cursorPos& (0+255),f,b
  2177  01067A  2B8A               	incf	(main@cursorPos+1)& (0+255),f,b
  2178  01067C                     l827:
  2179                           
  2180                           ; BSR set to: 0
  2181                           ;main.c: 303: if(cursorPos == 8){LCD_Cursor_Left();cursorPos--;}
  2182                           
  2183                           ; BSR set to: 0
  2184  01067C  0E08               	movlw	8
  2185  01067E  1989               	xorwf	main@cursorPos& (0+255),w,b
  2186  010680  118A               	iorwf	(main@cursorPos+1)& (0+255),w,b
  2187  010682  A4D8               	btfss	16344,2,c
  2188  010684  D011               	goto	l832
  2189                           
  2190                           ; BSR set to: 0
  2191  010686  ECB5  F098         	call	_LCD_Cursor_Left	;wreg free
  2192  01068A  D7A2               	goto	l6764
  2193  01068C                     l826:
  2194  01068C                     l6816:
  2195                           
  2196                           ; BSR set to: 0
  2197                           ;main.c: 306: else if (keyHeld == '*' && keyPressed == '*')
  2198  01068C  0E2A               	movlw	42
  2199  01068E  1839               	xorwf	_keyHeld,w,c
  2200  010690  A4D8               	btfss	16344,2,c
  2201  010692  D00A               	goto	l832
  2202                           
  2203                           ; BSR set to: 0
  2204  010694  0E2A               	movlw	42
  2205  010696  1838               	xorwf	_keyPressed,w,c
  2206  010698  A4D8               	btfss	16344,2,c
  2207  01069A  D006               	goto	l832
  2208                           
  2209                           ; BSR set to: 0
  2210                           ;main.c: 307: {;main.c: 308: timerChange = FALSE;
  2211  01069C  0060  F0A0  F091   	movff	_FALSE,_timerChange
  2212  0106A2  0060  F0A4  F092   	movff	_FALSE+1,_timerChange+1
  2213  0106A8                     l832:
  2214                           
  2215                           ; BSR set to: 0
  2216                           
  2217                           ; BSR set to: 0
  2218                           
  2219                           ; BSR set to: 0
  2220                           
  2221                           ; BSR set to: 0
  2222                           
  2223                           ; BSR set to: 0
  2224  0106A8  5019               	movf	_TRUE,w,c
  2225  0106AA  0100               	movlb	0	; () banked
  2226  0106AC  1991               	xorwf	_timerChange& (0+255),w,b
  2227  0106AE  E104               	bnz	l6824
  2228  0106B0  501A               	movf	_TRUE+1,w,c
  2229  0106B2  1992               	xorwf	(_timerChange+1)& (0+255),w,b
  2230  0106B4  B4D8               	btfsc	16344,2,c
  2231  0106B6  D727               	goto	l799
  2232  0106B8                     l6824:
  2233                           
  2234                           ; BSR set to: 0
  2235                           ;main.c: 309: };main.c: 310: };main.c: 312: countdown_initial_str2num();
  2236  0106B8  EC3F  F089         	call	_countdown_initial_str2num	;wreg free
  2237                           
  2238                           ;main.c: 313: countdown_now_reset_to_initial();
  2239  0106BC  ECBB  F091         	call	_countdown_now_reset_to_initial	;wreg free
  2240                           
  2241                           ;main.c: 314: LCD_printNowCountdown();
  2242  0106C0  EC83  F095         	call	_LCD_printNowCountdown	;wreg free
  2243                           
  2244                           ;main.c: 315: LCD_resetPasswordEntry();
  2245  0106C4  ECEE  F096         	call	_LCD_resetPasswordEntry	;wreg free
  2246                           
  2247                           ;main.c: 316: keyIterrator = 0;
  2248  0106C8  0E00               	movlw	0
  2249  0106CA  6E37               	movwf	_keyIterrator+1,c
  2250  0106CC  0E00               	movlw	0
  2251  0106CE  6E36               	movwf	_keyIterrator,c
  2252                           
  2253                           ;main.c: 318: }
  2254  0106D0  D49B               	goto	l760
  2255  0106D2                     l797:
  2256                           
  2257                           ;main.c: 321: else if(keyPressed == '1' && keyHeld == '1')
  2258  0106D2  0E31               	movlw	49
  2259  0106D4  1838               	xorwf	_keyPressed,w,c
  2260  0106D6  A4D8               	btfss	16344,2,c
  2261  0106D8  D045               	goto	l835
  2262  0106DA  0E31               	movlw	49
  2263  0106DC  1839               	xorwf	_keyHeld,w,c
  2264  0106DE  A4D8               	btfss	16344,2,c
  2265  0106E0  D041               	goto	l835
  2266                           
  2267                           ;main.c: 322: {;main.c: 323: keyBeepsMem = !keyBeepsMem;
  2268  0106E2  0100               	movlb	0	; () banked
  2269  0106E4  518D               	movf	_keyBeepsMem& (0+255),w,b
  2270  0106E6  118E               	iorwf	(_keyBeepsMem+1)& (0+255),w,b
  2271  0106E8  A4D8               	btfss	16344,2,c
  2272  0106EA  D002               	goto	u7810
  2273  0106EC  0E01               	movlw	1
  2274  0106EE  D001               	goto	u7820
  2275  0106F0                     u7810:
  2276  0106F0  0E00               	movlw	0
  2277  0106F2                     u7820:
  2278  0106F2  6F8D               	movwf	_keyBeepsMem& (0+255),b
  2279  0106F4  6B8E               	clrf	(_keyBeepsMem+1)& (0+255),b
  2280                           
  2281                           ;main.c: 324: keyBeeps = !keyBeeps;
  2282  0106F6  502E               	movf	_keyBeeps,w,c
  2283  0106F8  102F               	iorwf	_keyBeeps+1,w,c
  2284  0106FA  A4D8               	btfss	16344,2,c
  2285  0106FC  D002               	goto	u7830
  2286  0106FE  0E01               	movlw	1
  2287  010700  D001               	goto	u7840
  2288  010702                     u7830:
  2289  010702  0E00               	movlw	0
  2290  010704                     u7840:
  2291  010704  6E2E               	movwf	_keyBeeps,c
  2292  010706  6A2F               	clrf	_keyBeeps+1,c
  2293                           
  2294                           ; BSR set to: 0
  2295                           ;main.c: 326: LCD_Set_Cursor(2,1);
  2296  010708  0E00               	movlw	0
  2297  01070A  6E4A               	movwf	LCD_Set_Cursor@c+1,c
  2298  01070C  0E02               	movlw	2
  2299  01070E  6E49               	movwf	LCD_Set_Cursor@c,c
  2300  010710  0E00               	movlw	0
  2301  010712  6E4C               	movwf	LCD_Set_Cursor@d+1,c
  2302  010714  0E01               	movlw	1
  2303  010716  6E4B               	movwf	LCD_Set_Cursor@d,c
  2304  010718  EC3A  F097         	call	_LCD_Set_Cursor	;wreg free
  2305                           
  2306                           ;main.c: 328: if(keyBeeps == ON)
  2307  01071C  501B               	movf	_ON,w,c
  2308  01071E  182E               	xorwf	_keyBeeps,w,c
  2309  010720  E10B               	bnz	l6846
  2310  010722  501C               	movf	_ON+1,w,c
  2311  010724  182F               	xorwf	_keyBeeps+1,w,c
  2312  010726  A4D8               	btfss	16344,2,c
  2313  010728  D007               	goto	l836
  2314                           
  2315                           ;main.c: 329: {;main.c: 330: LCD_Write_String("Key Beep ON     ");
  2316  01072A  0E04               	movlw	low STR_17
  2317  01072C  6E49               	movwf	LCD_Write_String@f,c
  2318  01072E  0EFF               	movlw	high STR_17
  2319  010730  6E4A               	movwf	LCD_Write_String@f+1,c
  2320  010732  EC31  F095         	call	_LCD_Write_String	;wreg free
  2321                           
  2322                           ;main.c: 331: }
  2323  010736  D006               	goto	l837
  2324  010738                     l836:
  2325  010738                     l6846:
  2326                           
  2327                           ;main.c: 333: else;main.c: 334: {;main.c: 335: LCD_Write_String("Key Beep OFF    ");
  2328  010738  0E37               	movlw	low STR_18
  2329  01073A  6E49               	movwf	LCD_Write_String@f,c
  2330  01073C  0EFF               	movlw	high STR_18
  2331  01073E  6E4A               	movwf	LCD_Write_String@f+1,c
  2332  010740  EC31  F095         	call	_LCD_Write_String	;wreg free
  2333  010744                     l837:
  2334                           
  2335                           ;main.c: 336: };main.c: 338: _delay((unsigned long)((1500)*(8000000/4000.0)));
  2336  010744  0E10               	movlw	16
  2337  010746  0100               	movlb	0	; () banked
  2338  010748  6F86               	movwf	(??_main+1)& (0+255),b
  2339  01074A  0E39               	movlw	57
  2340  01074C  6F85               	movwf	??_main& (0+255),b
  2341  01074E  0E0D               	movlw	13
  2342  010750                     u8887:
  2343  010750  2EE8               	decfsz	16360,f,c
  2344  010752  D7FE               	bra	u8887
  2345  010754  2F85               	decfsz	??_main& (0+255),f,b
  2346  010756  D7FC               	bra	u8887
  2347  010758  2F86               	decfsz	(??_main+1)& (0+255),f,b
  2348  01075A  D7FA               	bra	u8887
  2349  01075C  D000               	nop2	
  2350                           
  2351                           ;main.c: 339: stanbyPageReset();
  2352  01075E  EC38  F096         	call	_stanbyPageReset	;wreg free
  2353                           
  2354                           ;main.c: 341: }
  2355                           
  2356                           ;main.c: 340: continue;
  2357  010762  D452               	goto	l760
  2358  010764                     l835:
  2359                           
  2360                           ;main.c: 343: else if(keyPressed == '2' && keyHeld == '2')
  2361  010764  0E32               	movlw	50
  2362  010766  1838               	xorwf	_keyPressed,w,c
  2363  010768  A4D8               	btfss	16344,2,c
  2364  01076A  D054               	goto	l839
  2365  01076C  0E32               	movlw	50
  2366  01076E  1839               	xorwf	_keyHeld,w,c
  2367  010770  A4D8               	btfss	16344,2,c
  2368  010772  D050               	goto	l839
  2369                           
  2370                           ;main.c: 344: {;main.c: 345: if(cursorBlinkMem == OFF)
  2371  010774  502A               	movf	_OFF,w,c
  2372  010776  182C               	xorwf	_cursorBlinkMem,w,c
  2373  010778  E11D               	bnz	l6868
  2374  01077A  502B               	movf	_OFF+1,w,c
  2375  01077C  182D               	xorwf	_cursorBlinkMem+1,w,c
  2376  01077E  A4D8               	btfss	16344,2,c
  2377  010780  D019               	goto	l840
  2378                           
  2379                           ;main.c: 346: {;main.c: 347: cursorBlinkMem = ON;
  2380  010782  0060  F06C  F02C   	movff	_ON,_cursorBlinkMem
  2381  010788  0060  F070  F02D   	movff	_ON+1,_cursorBlinkMem+1
  2382                           
  2383                           ;main.c: 348: LCD_Cursor_Blink_On();
  2384  01078E  ECA9  F098         	call	_LCD_Cursor_Blink_On	;wreg free
  2385                           
  2386                           ;main.c: 349: LCD_Set_Cursor(2,1);
  2387  010792  0E00               	movlw	0
  2388  010794  6E4A               	movwf	LCD_Set_Cursor@c+1,c
  2389  010796  0E02               	movlw	2
  2390  010798  6E49               	movwf	LCD_Set_Cursor@c,c
  2391  01079A  0E00               	movlw	0
  2392  01079C  6E4C               	movwf	LCD_Set_Cursor@d+1,c
  2393  01079E  0E01               	movlw	1
  2394  0107A0  6E4B               	movwf	LCD_Set_Cursor@d,c
  2395  0107A2  EC3A  F097         	call	_LCD_Set_Cursor	;wreg free
  2396                           
  2397                           ;main.c: 350: LCD_Write_String("Cursor ON       ");
  2398  0107A6  0EE2               	movlw	low STR_19
  2399  0107A8  6E49               	movwf	LCD_Write_String@f,c
  2400  0107AA  0EFE               	movlw	high STR_19
  2401  0107AC  6E4A               	movwf	LCD_Write_String@f+1,c
  2402  0107AE  EC31  F095         	call	_LCD_Write_String	;wreg free
  2403                           
  2404                           ;main.c: 351: }
  2405  0107B2  D01F               	goto	l842
  2406  0107B4                     l840:
  2407  0107B4                     l6868:
  2408                           
  2409                           ;main.c: 353: else if(cursorBlinkMem == ON)
  2410  0107B4  501B               	movf	_ON,w,c
  2411  0107B6  182C               	xorwf	_cursorBlinkMem,w,c
  2412  0107B8  E11C               	bnz	l6878
  2413  0107BA  501C               	movf	_ON+1,w,c
  2414  0107BC  182D               	xorwf	_cursorBlinkMem+1,w,c
  2415  0107BE  A4D8               	btfss	16344,2,c
  2416  0107C0  D018               	goto	l842
  2417                           
  2418                           ;main.c: 354: {;main.c: 355: cursorBlinkMem = OFF;
  2419  0107C2  0060  F0A8  F02C   	movff	_OFF,_cursorBlinkMem
  2420  0107C8  0060  F0AC  F02D   	movff	_OFF+1,_cursorBlinkMem+1
  2421                           
  2422                           ;main.c: 356: LCD_Cursor_Blink_Off();
  2423  0107CE  ECAD  F098         	call	_LCD_Cursor_Blink_Off	;wreg free
  2424                           
  2425                           ;main.c: 357: LCD_Set_Cursor(2,1);
  2426  0107D2  0E00               	movlw	0
  2427  0107D4  6E4A               	movwf	LCD_Set_Cursor@c+1,c
  2428  0107D6  0E02               	movlw	2
  2429  0107D8  6E49               	movwf	LCD_Set_Cursor@c,c
  2430  0107DA  0E00               	movlw	0
  2431  0107DC  6E4C               	movwf	LCD_Set_Cursor@d+1,c
  2432  0107DE  0E01               	movlw	1
  2433  0107E0  6E4B               	movwf	LCD_Set_Cursor@d,c
  2434  0107E2  EC3A  F097         	call	_LCD_Set_Cursor	;wreg free
  2435                           
  2436                           ;main.c: 358: LCD_Write_String("Cursor OFF      ");
  2437  0107E6  0EF3               	movlw	low STR_20
  2438  0107E8  6E49               	movwf	LCD_Write_String@f,c
  2439  0107EA  0EFE               	movlw	high STR_20
  2440  0107EC  6E4A               	movwf	LCD_Write_String@f+1,c
  2441  0107EE  EC31  F095         	call	_LCD_Write_String	;wreg free
  2442  0107F2                     l842:
  2443  0107F2                     l6878:
  2444                           
  2445                           ;main.c: 359: };main.c: 361: _delay((unsigned long)((1500)*(8000000/4000.0)));
  2446  0107F2  0E10               	movlw	16
  2447  0107F4  0100               	movlb	0	; () banked
  2448  0107F6  6F86               	movwf	(??_main+1)& (0+255),b
  2449  0107F8  0E39               	movlw	57
  2450  0107FA  6F85               	movwf	??_main& (0+255),b
  2451  0107FC  0E0D               	movlw	13
  2452  0107FE                     u8897:
  2453  0107FE  2EE8               	decfsz	16360,f,c
  2454  010800  D7FE               	bra	u8897
  2455  010802  2F85               	decfsz	??_main& (0+255),f,b
  2456  010804  D7FC               	bra	u8897
  2457  010806  2F86               	decfsz	(??_main+1)& (0+255),f,b
  2458  010808  D7FA               	bra	u8897
  2459  01080A  D000               	nop2	
  2460                           
  2461                           ;main.c: 362: stanbyPageReset();
  2462  01080C  EC38  F096         	call	_stanbyPageReset	;wreg free
  2463                           
  2464                           ;main.c: 364: }
  2465                           
  2466                           ;main.c: 363: continue;
  2467  010810  EF04  F080         	goto	l760
  2468  010814                     l839:
  2469                           
  2470                           ;main.c: 366: else if(keyPressed == '3' && keyHeld == '3')
  2471  010814  0E33               	movlw	51
  2472  010816  1838               	xorwf	_keyPressed,w,c
  2473  010818  A4D8               	btfss	16344,2,c
  2474  01081A  EF04  F080         	goto	l760
  2475  01081E  0E33               	movlw	51
  2476  010820  1839               	xorwf	_keyHeld,w,c
  2477  010822  A4D8               	btfss	16344,2,c
  2478  010824  EF04  F080         	goto	l760
  2479                           
  2480                           ;main.c: 367: {;main.c: 368: countdownBeeps = !countdownBeeps;
  2481  010828  501F               	movf	_countdownBeeps,w,c
  2482  01082A  1020               	iorwf	_countdownBeeps+1,w,c
  2483  01082C  A4D8               	btfss	16344,2,c
  2484  01082E  D002               	goto	u7920
  2485  010830  0E01               	movlw	1
  2486  010832  D001               	goto	u7930
  2487  010834                     u7920:
  2488  010834  0E00               	movlw	0
  2489  010836                     u7930:
  2490  010836  6E1F               	movwf	_countdownBeeps,c
  2491  010838  6A20               	clrf	_countdownBeeps+1,c
  2492                           
  2493                           ;main.c: 369: countdownBeepsMem = !countdownBeepsMem;
  2494  01083A  501D               	movf	_countdownBeepsMem,w,c
  2495  01083C  101E               	iorwf	_countdownBeepsMem+1,w,c
  2496  01083E  A4D8               	btfss	16344,2,c
  2497  010840  D002               	goto	u7940
  2498  010842  0E01               	movlw	1
  2499  010844  D001               	goto	u7950
  2500  010846                     u7940:
  2501  010846  0E00               	movlw	0
  2502  010848                     u7950:
  2503  010848  6E1D               	movwf	_countdownBeepsMem,c
  2504  01084A  6A1E               	clrf	_countdownBeepsMem+1,c
  2505                           
  2506                           ;main.c: 371: LCD_Set_Cursor(2,1);
  2507  01084C  0E00               	movlw	0
  2508  01084E  6E4A               	movwf	LCD_Set_Cursor@c+1,c
  2509  010850  0E02               	movlw	2
  2510  010852  6E49               	movwf	LCD_Set_Cursor@c,c
  2511  010854  0E00               	movlw	0
  2512  010856  6E4C               	movwf	LCD_Set_Cursor@d+1,c
  2513  010858  0E01               	movlw	1
  2514  01085A  6E4B               	movwf	LCD_Set_Cursor@d,c
  2515  01085C  EC3A  F097         	call	_LCD_Set_Cursor	;wreg free
  2516                           
  2517                           ;main.c: 373: if(countdownBeeps == ON)
  2518  010860  501B               	movf	_ON,w,c
  2519  010862  181F               	xorwf	_countdownBeeps,w,c
  2520  010864  E10B               	bnz	l6896
  2521  010866  501C               	movf	_ON+1,w,c
  2522  010868  1820               	xorwf	_countdownBeeps+1,w,c
  2523  01086A  A4D8               	btfss	16344,2,c
  2524  01086C  D007               	goto	l845
  2525                           
  2526                           ;main.c: 374: {;main.c: 375: LCD_Write_String("Timer Beep ON   ");
  2527  01086E  0E59               	movlw	low STR_21
  2528  010870  6E49               	movwf	LCD_Write_String@f,c
  2529  010872  0EFF               	movlw	high STR_21
  2530  010874  6E4A               	movwf	LCD_Write_String@f+1,c
  2531  010876  EC31  F095         	call	_LCD_Write_String	;wreg free
  2532                           
  2533                           ;main.c: 376: }
  2534  01087A  D006               	goto	l846
  2535  01087C                     l845:
  2536  01087C                     l6896:
  2537                           
  2538                           ;main.c: 378: else;main.c: 379: {;main.c: 380: LCD_Write_String("Timer Beep OFF  ");
  2539  01087C  0E6A               	movlw	low STR_22
  2540  01087E  6E49               	movwf	LCD_Write_String@f,c
  2541  010880  0EFF               	movlw	high STR_22
  2542  010882  6E4A               	movwf	LCD_Write_String@f+1,c
  2543  010884  EC31  F095         	call	_LCD_Write_String	;wreg free
  2544  010888                     l846:
  2545                           
  2546                           ;main.c: 381: };main.c: 383: _delay((unsigned long)((1500)*(8000000/4000.0)));
  2547  010888  0E10               	movlw	16
  2548  01088A  0100               	movlb	0	; () banked
  2549  01088C  6F86               	movwf	(??_main+1)& (0+255),b
  2550  01088E  0E39               	movlw	57
  2551  010890  6F85               	movwf	??_main& (0+255),b
  2552  010892  0E0D               	movlw	13
  2553  010894                     u8907:
  2554  010894  2EE8               	decfsz	16360,f,c
  2555  010896  D7FE               	bra	u8907
  2556  010898  2F85               	decfsz	??_main& (0+255),f,b
  2557  01089A  D7FC               	bra	u8907
  2558  01089C  2F86               	decfsz	(??_main+1)& (0+255),f,b
  2559  01089E  D7FA               	bra	u8907
  2560  0108A0  D000               	nop2	
  2561                           
  2562                           ;main.c: 384: stanbyPageReset();
  2563  0108A2  EC38  F096         	call	_stanbyPageReset	;wreg free
  2564                           
  2565                           ;main.c: 386: };main.c: 387: };main.c: 388: }
  2566                           
  2567                           ;main.c: 385: continue;
  2568  0108A6  EF04  F080         	goto	l760
  2569  0108AA                     l762:
  2570                           
  2571                           ;main.c: 394: else if(status == armed)
  2572  0108AA  5021               	movf	_armed,w,c
  2573  0108AC  1832               	xorwf	_status,w,c
  2574  0108AE  E103               	bnz	u7971
  2575  0108B0  5022               	movf	_armed+1,w,c
  2576  0108B2  1833               	xorwf	_status+1,w,c
  2577  0108B4  A4D8               	btfss	16344,2,c
  2578  0108B6                     u7971:
  2579  0108B6  D146               	goto	l848
  2580                           
  2581                           ;main.c: 395: {;main.c: 396: keyBeeps = OFF;
  2582  0108B8  0060  F0A8  F02E   	movff	_OFF,_keyBeeps
  2583  0108BE  0060  F0AC  F02F   	movff	_OFF+1,_keyBeeps+1
  2584                           
  2585                           ;main.c: 398: if(keyPressed != NONE && keyHeld == NONE)
  2586  0108C4  5038               	movf	_keyPressed,w,c
  2587  0108C6  0100               	movlb	0	; () banked
  2588  0108C8  6F85               	movwf	??_main& (0+255),b
  2589  0108CA  6B86               	clrf	(??_main+1)& (0+255),b
  2590  0108CC  5026               	movf	_NONE,w,c
  2591  0108CE  1985               	xorwf	??_main& (0+255),w,b
  2592  0108D0  E104               	bnz	u7980
  2593  0108D2  5027               	movf	_NONE+1,w,c
  2594  0108D4  1986               	xorwf	(??_main+1)& (0+255),w,b
  2595  0108D6  B4D8               	btfsc	16344,2,c
  2596  0108D8  D08C               	goto	l849
  2597  0108DA                     u7980:
  2598                           
  2599                           ; BSR set to: 0
  2600  0108DA  5039               	movf	_keyHeld,w,c
  2601  0108DC  6F85               	movwf	??_main& (0+255),b
  2602  0108DE  6B86               	clrf	(??_main+1)& (0+255),b
  2603  0108E0  5026               	movf	_NONE,w,c
  2604  0108E2  1985               	xorwf	??_main& (0+255),w,b
  2605  0108E4  E103               	bnz	u7991
  2606  0108E6  5027               	movf	_NONE+1,w,c
  2607  0108E8  1986               	xorwf	(??_main+1)& (0+255),w,b
  2608  0108EA  A4D8               	btfss	16344,2,c
  2609  0108EC                     u7991:
  2610  0108EC  D082               	goto	l849
  2611                           
  2612                           ; BSR set to: 0
  2613                           ;main.c: 399: {;main.c: 400: if(keyIterrator == 0 && keyBeeps == OFF)
  2614  0108EE  5036               	movf	_keyIterrator,w,c
  2615  0108F0  1037               	iorwf	_keyIterrator+1,w,c
  2616  0108F2  A4D8               	btfss	16344,2,c
  2617  0108F4  D008               	goto	l850
  2618                           
  2619                           ; BSR set to: 0
  2620  0108F6  502A               	movf	_OFF,w,c
  2621  0108F8  182E               	xorwf	_keyBeeps,w,c
  2622  0108FA  E105               	bnz	l6916
  2623  0108FC  502B               	movf	_OFF+1,w,c
  2624  0108FE  182F               	xorwf	_keyBeeps+1,w,c
  2625  010900  B4D8               	btfsc	16344,2,c
  2626                           
  2627                           ; BSR set to: 0
  2628                           ;main.c: 401: {;main.c: 402: armBeep();
  2629  010902  ECF5  F097         	call	_armBeep	;wreg free
  2630  010906                     l850:
  2631  010906                     l6916:
  2632                           
  2633                           ;main.c: 403: };main.c: 404: if (keyPressed != '#' && keyPressed != '*' && keyIterrator<
      +                          7)
  2634  010906  0E23               	movlw	35
  2635  010908  1838               	xorwf	_keyPressed,w,c
  2636  01090A  B4D8               	btfsc	16344,2,c
  2637  01090C  D02C               	goto	l851
  2638  01090E  0E2A               	movlw	42
  2639  010910  1838               	xorwf	_keyPressed,w,c
  2640  010912  B4D8               	btfsc	16344,2,c
  2641  010914  D028               	goto	l851
  2642  010916  BE37               	btfsc	_keyIterrator+1,7,c
  2643  010918  D006               	goto	u8040
  2644  01091A  5037               	movf	_keyIterrator+1,w,c
  2645  01091C  E124               	bnz	l6934
  2646  01091E  0E07               	movlw	7
  2647  010920  5C36               	subwf	_keyIterrator,w,c
  2648  010922  B0D8               	btfsc	16344,0,c
  2649  010924  D020               	goto	l851
  2650  010926                     u8040:
  2651                           
  2652                           ;main.c: 405: {;main.c: 406: serialSend('U');
  2653  010926  0E55               	movlw	85
  2654  010928  ECA4  F098         	call	_serialSend
  2655                           
  2656                           ;main.c: 407: serialSend(keyPressed);
  2657  01092C  5038               	movf	_keyPressed,w,c
  2658  01092E  ECA4  F098         	call	_serialSend
  2659                           
  2660                           ;main.c: 409: userPswdEntry[keyIterrator] = keyPressed;
  2661  010932  0E93               	movlw	low _userPswdEntry
  2662  010934  2436               	addwf	_keyIterrator,w,c
  2663  010936  6ED9               	movwf	16345,c
  2664  010938  0E00               	movlw	high _userPswdEntry
  2665  01093A  2037               	addwfc	_keyIterrator+1,w,c
  2666  01093C  6EDA               	movwf	16346,c
  2667  01093E  0060  F0E3  FFDF   	movff	_keyPressed,16351
  2668                           
  2669                           ;main.c: 410: keyIterrator++;
  2670  010944  4A36               	infsnz	_keyIterrator,f,c
  2671  010946  2A37               	incf	_keyIterrator+1,f,c
  2672                           
  2673                           ;main.c: 412: LCD_Set_Cursor(2,9+keyIterrator);
  2674  010948  0E00               	movlw	0
  2675  01094A  6E4A               	movwf	LCD_Set_Cursor@c+1,c
  2676  01094C  0E02               	movlw	2
  2677  01094E  6E49               	movwf	LCD_Set_Cursor@c,c
  2678  010950  0E09               	movlw	9
  2679  010952  2436               	addwf	_keyIterrator,w,c
  2680  010954  6E4B               	movwf	LCD_Set_Cursor@d,c
  2681  010956  0E00               	movlw	0
  2682  010958  2037               	addwfc	_keyIterrator+1,w,c
  2683  01095A  6E4C               	movwf	LCD_Set_Cursor@d+1,c
  2684  01095C  EC3A  F097         	call	_LCD_Set_Cursor	;wreg free
  2685                           
  2686                           ;main.c: 414: LCD_Write_Char(keyPressed);
  2687  010960  5038               	movf	_keyPressed,w,c
  2688  010962  ECB3  F097         	call	_LCD_Write_Char
  2689  010966                     l851:
  2690  010966                     l6934:
  2691                           
  2692                           ;main.c: 415: };main.c: 417: if (keyPressed == '#' || keyPressed == '*'&& keyHeld == NON
      +                          E)
  2693  010966  0E23               	movlw	35
  2694  010968  1838               	xorwf	_keyPressed,w,c
  2695  01096A  B4D8               	btfsc	16344,2,c
  2696  01096C  D011               	goto	u8070
  2697  01096E  0E2A               	movlw	42
  2698  010970  1838               	xorwf	_keyPressed,w,c
  2699  010972  A4D8               	btfss	16344,2,c
  2700  010974  EF04  F080         	goto	l760
  2701  010978  5039               	movf	_keyHeld,w,c
  2702  01097A  0100               	movlb	0	; () banked
  2703  01097C  6F85               	movwf	??_main& (0+255),b
  2704  01097E  6B86               	clrf	(??_main+1)& (0+255),b
  2705  010980  5026               	movf	_NONE,w,c
  2706  010982  1985               	xorwf	??_main& (0+255),w,b
  2707  010984  E103               	bnz	u8071
  2708  010986  5027               	movf	_NONE+1,w,c
  2709  010988  1986               	xorwf	(??_main+1)& (0+255),w,b
  2710  01098A  A4D8               	btfss	16344,2,c
  2711  01098C                     u8071:
  2712  01098C  EF04  F080         	goto	l760
  2713  010990                     u8070:
  2714                           
  2715                           ;main.c: 418: {;main.c: 419: serialSend('U');
  2716                           
  2717                           ; BSR set to: 0
  2718  010990  0E55               	movlw	85
  2719  010992  ECA4  F098         	call	_serialSend
  2720                           
  2721                           ;main.c: 420: serialSend('*');
  2722  010996  0E2A               	movlw	42
  2723  010998  ECA4  F098         	call	_serialSend
  2724                           
  2725                           ;main.c: 421: isPasswordTrue = verifyPassword(userPswdEntry,password);
  2726  01099C  0E93               	movlw	low _userPswdEntry
  2727  01099E  6E4E               	movwf	verifyPassword@user,c
  2728  0109A0  0E00               	movlw	high _userPswdEntry
  2729  0109A2  6E4F               	movwf	verifyPassword@user+1,c
  2730  0109A4  0E74               	movlw	low _password
  2731  0109A6  6E50               	movwf	verifyPassword@pass,c
  2732  0109A8  0E00               	movlw	high _password
  2733  0109AA  6E51               	movwf	verifyPassword@pass+1,c
  2734  0109AC  ECD2  F096         	call	_verifyPassword	;wreg free
  2735  0109B0  0060  F138  F034   	movff	?_verifyPassword,_isPasswordTrue
  2736  0109B6  0060  F13C  F035   	movff	?_verifyPassword+1,_isPasswordTrue+1
  2737                           
  2738                           ;main.c: 422: resetPasswordEntry();
  2739  0109BC  EC22  F097         	call	_resetPasswordEntry	;wreg free
  2740                           
  2741                           ;main.c: 424: if(isPasswordTrue == TRUE)
  2742  0109C0  5019               	movf	_TRUE,w,c
  2743  0109C2  1834               	xorwf	_isPasswordTrue,w,c
  2744  0109C4  E112               	bnz	l6958
  2745  0109C6  501A               	movf	_TRUE+1,w,c
  2746  0109C8  1835               	xorwf	_isPasswordTrue+1,w,c
  2747  0109CA  A4D8               	btfss	16344,2,c
  2748  0109CC  D00E               	goto	l855
  2749                           
  2750                           ;main.c: 425: {;main.c: 426: countdownStop();
  2751  0109CE  ECB9  F098         	call	_countdownStop	;wreg free
  2752                           
  2753                           ;main.c: 427: disarmBeep();
  2754  0109D2  EC98  F096         	call	_disarmBeep	;wreg free
  2755                           
  2756                           ;main.c: 429: status = disarmed;
  2757  0109D6  0060  F1C8  F032   	movff	_disarmed,_status
  2758  0109DC  0060  F1CC  F033   	movff	_disarmed+1,_status+1
  2759                           
  2760                           ;main.c: 430: disarmedPageReset();
  2761  0109E2  EC59  F096         	call	_disarmedPageReset	;wreg free
  2762                           
  2763                           ;main.c: 432: }
  2764                           
  2765                           ;main.c: 431: continue;
  2766  0109E6  EF04  F080         	goto	l760
  2767  0109EA                     l855:
  2768  0109EA                     l6958:
  2769                           
  2770                           ;main.c: 434: else;main.c: 435: {;main.c: 436: armedPageReset();
  2771  0109EA  ECB5  F096         	call	_armedPageReset	;wreg free
  2772                           
  2773                           ;main.c: 438: };main.c: 440: };main.c: 441: }
  2774                           
  2775                           ;main.c: 437: continue;
  2776  0109EE  EF04  F080         	goto	l760
  2777  0109F2                     l849:
  2778                           
  2779                           ;main.c: 443: else if(keyHeld != NONE)
  2780  0109F2  5039               	movf	_keyHeld,w,c
  2781  0109F4  0100               	movlb	0	; () banked
  2782  0109F6  6F85               	movwf	??_main& (0+255),b
  2783  0109F8  6B86               	clrf	(??_main+1)& (0+255),b
  2784  0109FA  5026               	movf	_NONE,w,c
  2785  0109FC  1985               	xorwf	??_main& (0+255),w,b
  2786  0109FE  E105               	bnz	u8090
  2787  010A00  5027               	movf	_NONE+1,w,c
  2788  010A02  1986               	xorwf	(??_main+1)& (0+255),w,b
  2789  010A04  B4D8               	btfsc	16344,2,c
  2790  010A06  EF04  F080         	goto	l760
  2791  010A0A                     u8090:
  2792                           
  2793                           ; BSR set to: 0
  2794                           ;main.c: 444: {;main.c: 446: if(keyPressed == '1' && keyHeld == '1')
  2795  010A0A  0E31               	movlw	49
  2796  010A0C  1838               	xorwf	_keyPressed,w,c
  2797  010A0E  A4D8               	btfss	16344,2,c
  2798  010A10  D025               	goto	l859
  2799                           
  2800                           ; BSR set to: 0
  2801  010A12  0E31               	movlw	49
  2802  010A14  1839               	xorwf	_keyHeld,w,c
  2803  010A16  A4D8               	btfss	16344,2,c
  2804  010A18  D021               	goto	l859
  2805                           
  2806                           ; BSR set to: 0
  2807                           ;main.c: 447: {;main.c: 448: LCD_Set_Cursor(2,1);
  2808  010A1A  0E00               	movlw	0
  2809  010A1C  6E4A               	movwf	LCD_Set_Cursor@c+1,c
  2810  010A1E  0E02               	movlw	2
  2811  010A20  6E49               	movwf	LCD_Set_Cursor@c,c
  2812  010A22  0E00               	movlw	0
  2813  010A24  6E4C               	movwf	LCD_Set_Cursor@d+1,c
  2814  010A26  0E01               	movlw	1
  2815  010A28  6E4B               	movwf	LCD_Set_Cursor@d,c
  2816  010A2A  EC3A  F097         	call	_LCD_Set_Cursor	;wreg free
  2817                           
  2818                           ;main.c: 449: LCD_Write_String("NOT AVAILABLE   ");
  2819  010A2E  0E48               	movlw	low STR_23
  2820  010A30  6E49               	movwf	LCD_Write_String@f,c
  2821  010A32  0EFF               	movlw	high STR_23
  2822  010A34  6E4A               	movwf	LCD_Write_String@f+1,c
  2823  010A36  EC31  F095         	call	_LCD_Write_String	;wreg free
  2824                           
  2825                           ;main.c: 450: _delay((unsigned long)((1500)*(8000000/4000.0)));
  2826  010A3A  0E10               	movlw	16
  2827  010A3C  0100               	movlb	0	; () banked
  2828  010A3E  6F86               	movwf	(??_main+1)& (0+255),b
  2829  010A40  0E39               	movlw	57
  2830  010A42  6F85               	movwf	??_main& (0+255),b
  2831  010A44  0E0D               	movlw	13
  2832  010A46                     u8917:
  2833  010A46  2EE8               	decfsz	16360,f,c
  2834  010A48  D7FE               	bra	u8917
  2835  010A4A  2F85               	decfsz	??_main& (0+255),f,b
  2836  010A4C  D7FC               	bra	u8917
  2837  010A4E  2F86               	decfsz	(??_main+1)& (0+255),f,b
  2838  010A50  D7FA               	bra	u8917
  2839  010A52  D000               	nop2	
  2840                           
  2841                           ;main.c: 451: armedPageReset();
  2842  010A54  ECB5  F096         	call	_armedPageReset	;wreg free
  2843                           
  2844                           ;main.c: 453: }
  2845                           
  2846                           ;main.c: 452: continue;
  2847  010A58  EF04  F080         	goto	l760
  2848  010A5C                     l859:
  2849                           
  2850                           ;main.c: 455: else if(keyPressed == '2' && keyHeld == '2')
  2851  010A5C  0E32               	movlw	50
  2852  010A5E  1838               	xorwf	_keyPressed,w,c
  2853  010A60  A4D8               	btfss	16344,2,c
  2854  010A62  D025               	goto	l861
  2855  010A64  0E32               	movlw	50
  2856  010A66  1839               	xorwf	_keyHeld,w,c
  2857  010A68  A4D8               	btfss	16344,2,c
  2858  010A6A  D021               	goto	l861
  2859                           
  2860                           ;main.c: 456: {;main.c: 457: LCD_Set_Cursor(2,1);
  2861  010A6C  0E00               	movlw	0
  2862  010A6E  6E4A               	movwf	LCD_Set_Cursor@c+1,c
  2863  010A70  0E02               	movlw	2
  2864  010A72  6E49               	movwf	LCD_Set_Cursor@c,c
  2865  010A74  0E00               	movlw	0
  2866  010A76  6E4C               	movwf	LCD_Set_Cursor@d+1,c
  2867  010A78  0E01               	movlw	1
  2868  010A7A  6E4B               	movwf	LCD_Set_Cursor@d,c
  2869  010A7C  EC3A  F097         	call	_LCD_Set_Cursor	;wreg free
  2870                           
  2871                           ;main.c: 458: LCD_Write_String("NOT AVAILABLE   ");
  2872  010A80  0E48               	movlw	low STR_23
  2873  010A82  6E49               	movwf	LCD_Write_String@f,c
  2874  010A84  0EFF               	movlw	high STR_23
  2875  010A86  6E4A               	movwf	LCD_Write_String@f+1,c
  2876  010A88  EC31  F095         	call	_LCD_Write_String	;wreg free
  2877                           
  2878                           ;main.c: 459: _delay((unsigned long)((1500)*(8000000/4000.0)));
  2879  010A8C  0E10               	movlw	16
  2880  010A8E  0100               	movlb	0	; () banked
  2881  010A90  6F86               	movwf	(??_main+1)& (0+255),b
  2882  010A92  0E39               	movlw	57
  2883  010A94  6F85               	movwf	??_main& (0+255),b
  2884  010A96  0E0D               	movlw	13
  2885  010A98                     u8927:
  2886  010A98  2EE8               	decfsz	16360,f,c
  2887  010A9A  D7FE               	bra	u8927
  2888  010A9C  2F85               	decfsz	??_main& (0+255),f,b
  2889  010A9E  D7FC               	bra	u8927
  2890  010AA0  2F86               	decfsz	(??_main+1)& (0+255),f,b
  2891  010AA2  D7FA               	bra	u8927
  2892  010AA4  D000               	nop2	
  2893                           
  2894                           ;main.c: 460: armedPageReset();
  2895  010AA6  ECB5  F096         	call	_armedPageReset	;wreg free
  2896                           
  2897                           ;main.c: 462: }
  2898                           
  2899                           ;main.c: 461: continue;
  2900  010AAA  EF04  F080         	goto	l760
  2901  010AAE                     l861:
  2902                           
  2903                           ;main.c: 464: else if(keyPressed == '3' && keyHeld == '3')
  2904  010AAE  0E33               	movlw	51
  2905  010AB0  1838               	xorwf	_keyPressed,w,c
  2906  010AB2  A4D8               	btfss	16344,2,c
  2907  010AB4  EF04  F080         	goto	l760
  2908  010AB8  0E33               	movlw	51
  2909  010ABA  1839               	xorwf	_keyHeld,w,c
  2910  010ABC  A4D8               	btfss	16344,2,c
  2911  010ABE  EF04  F080         	goto	l760
  2912                           
  2913                           ;main.c: 465: {;main.c: 466: countdownBeeps = !countdownBeeps;
  2914  010AC2  501F               	movf	_countdownBeeps,w,c
  2915  010AC4  1020               	iorwf	_countdownBeeps+1,w,c
  2916  010AC6  A4D8               	btfss	16344,2,c
  2917  010AC8  D002               	goto	u8160
  2918  010ACA  0E01               	movlw	1
  2919  010ACC  D001               	goto	u8170
  2920  010ACE                     u8160:
  2921  010ACE  0E00               	movlw	0
  2922  010AD0                     u8170:
  2923  010AD0  6E1F               	movwf	_countdownBeeps,c
  2924  010AD2  6A20               	clrf	_countdownBeeps+1,c
  2925                           
  2926                           ;main.c: 467: countdownBeepsMem = !countdownBeepsMem;
  2927  010AD4  501D               	movf	_countdownBeepsMem,w,c
  2928  010AD6  101E               	iorwf	_countdownBeepsMem+1,w,c
  2929  010AD8  A4D8               	btfss	16344,2,c
  2930  010ADA  D002               	goto	u8180
  2931  010ADC  0E01               	movlw	1
  2932  010ADE  D001               	goto	u8190
  2933  010AE0                     u8180:
  2934  010AE0  0E00               	movlw	0
  2935  010AE2                     u8190:
  2936  010AE2  6E1D               	movwf	_countdownBeepsMem,c
  2937  010AE4  6A1E               	clrf	_countdownBeepsMem+1,c
  2938                           
  2939                           ;main.c: 469: LCD_Set_Cursor(2,1);
  2940  010AE6  0E00               	movlw	0
  2941  010AE8  6E4A               	movwf	LCD_Set_Cursor@c+1,c
  2942  010AEA  0E02               	movlw	2
  2943  010AEC  6E49               	movwf	LCD_Set_Cursor@c,c
  2944  010AEE  0E00               	movlw	0
  2945  010AF0  6E4C               	movwf	LCD_Set_Cursor@d+1,c
  2946  010AF2  0E01               	movlw	1
  2947  010AF4  6E4B               	movwf	LCD_Set_Cursor@d,c
  2948  010AF6  EC3A  F097         	call	_LCD_Set_Cursor	;wreg free
  2949                           
  2950                           ;main.c: 471: if(countdownBeeps == ON)
  2951  010AFA  501B               	movf	_ON,w,c
  2952  010AFC  181F               	xorwf	_countdownBeeps,w,c
  2953  010AFE  E10B               	bnz	l7002
  2954  010B00  501C               	movf	_ON+1,w,c
  2955  010B02  1820               	xorwf	_countdownBeeps+1,w,c
  2956  010B04  A4D8               	btfss	16344,2,c
  2957  010B06  D007               	goto	l864
  2958                           
  2959                           ;main.c: 472: {;main.c: 473: LCD_Write_String("Timer Beep ON   ");
  2960  010B08  0E59               	movlw	low STR_21
  2961  010B0A  6E49               	movwf	LCD_Write_String@f,c
  2962  010B0C  0EFF               	movlw	high STR_21
  2963  010B0E  6E4A               	movwf	LCD_Write_String@f+1,c
  2964  010B10  EC31  F095         	call	_LCD_Write_String	;wreg free
  2965                           
  2966                           ;main.c: 474: }
  2967  010B14  D006               	goto	l865
  2968  010B16                     l864:
  2969  010B16                     l7002:
  2970                           
  2971                           ;main.c: 476: else;main.c: 477: {;main.c: 478: LCD_Write_String("Timer Beep OFF  ");
  2972  010B16  0E6A               	movlw	low STR_22
  2973  010B18  6E49               	movwf	LCD_Write_String@f,c
  2974  010B1A  0EFF               	movlw	high STR_22
  2975  010B1C  6E4A               	movwf	LCD_Write_String@f+1,c
  2976  010B1E  EC31  F095         	call	_LCD_Write_String	;wreg free
  2977  010B22                     l865:
  2978                           
  2979                           ;main.c: 479: };main.c: 481: _delay((unsigned long)((1500)*(8000000/4000.0)));
  2980  010B22  0E10               	movlw	16
  2981  010B24  0100               	movlb	0	; () banked
  2982  010B26  6F86               	movwf	(??_main+1)& (0+255),b
  2983  010B28  0E39               	movlw	57
  2984  010B2A  6F85               	movwf	??_main& (0+255),b
  2985  010B2C  0E0D               	movlw	13
  2986  010B2E                     u8937:
  2987  010B2E  2EE8               	decfsz	16360,f,c
  2988  010B30  D7FE               	bra	u8937
  2989  010B32  2F85               	decfsz	??_main& (0+255),f,b
  2990  010B34  D7FC               	bra	u8937
  2991  010B36  2F86               	decfsz	(??_main+1)& (0+255),f,b
  2992  010B38  D7FA               	bra	u8937
  2993  010B3A  D000               	nop2	
  2994                           
  2995                           ;main.c: 482: armedPageReset();
  2996  010B3C  ECB5  F096         	call	_armedPageReset	;wreg free
  2997                           
  2998                           ;main.c: 484: };main.c: 485: };main.c: 487: }
  2999                           
  3000                           ;main.c: 483: continue;
  3001  010B40  EF04  F080         	goto	l760
  3002  010B44                     l848:
  3003                           
  3004                           ;main.c: 493: else if(status == disarmed)
  3005  010B44  0100               	movlb	0	; () banked
  3006  010B46  5172               	movf	_disarmed& (0+255),w,b
  3007  010B48  1832               	xorwf	_status,w,c
  3008  010B4A  E103               	bnz	u8211
  3009  010B4C  5173               	movf	(_disarmed+1)& (0+255),w,b
  3010  010B4E  1833               	xorwf	_status+1,w,c
  3011  010B50  A4D8               	btfss	16344,2,c
  3012  010B52                     u8211:
  3013  010B52  D317               	goto	l867
  3014                           
  3015                           ; BSR set to: 0
  3016                           ;main.c: 494: {;main.c: 495: if(keyPressed != NONE && keyHeld == NONE)
  3017  010B54  5038               	movf	_keyPressed,w,c
  3018  010B56  6F85               	movwf	??_main& (0+255),b
  3019  010B58  6B86               	clrf	(??_main+1)& (0+255),b
  3020  010B5A  5026               	movf	_NONE,w,c
  3021  010B5C  1985               	xorwf	??_main& (0+255),w,b
  3022  010B5E  E104               	bnz	u8220
  3023  010B60  5027               	movf	_NONE+1,w,c
  3024  010B62  1986               	xorwf	(??_main+1)& (0+255),w,b
  3025  010B64  B4D8               	btfsc	16344,2,c
  3026  010B66  D095               	goto	l868
  3027  010B68                     u8220:
  3028                           
  3029                           ; BSR set to: 0
  3030  010B68  5039               	movf	_keyHeld,w,c
  3031  010B6A  6F85               	movwf	??_main& (0+255),b
  3032  010B6C  6B86               	clrf	(??_main+1)& (0+255),b
  3033  010B6E  5026               	movf	_NONE,w,c
  3034  010B70  1985               	xorwf	??_main& (0+255),w,b
  3035  010B72  E103               	bnz	u8231
  3036  010B74  5027               	movf	_NONE+1,w,c
  3037  010B76  1986               	xorwf	(??_main+1)& (0+255),w,b
  3038  010B78  A4D8               	btfss	16344,2,c
  3039  010B7A                     u8231:
  3040  010B7A  D08B               	goto	l868
  3041                           
  3042                           ; BSR set to: 0
  3043                           ;main.c: 496: {;main.c: 497: if(keyIterrator == 0 && keyBeeps == OFF)
  3044  010B7C  5036               	movf	_keyIterrator,w,c
  3045  010B7E  1037               	iorwf	_keyIterrator+1,w,c
  3046  010B80  A4D8               	btfss	16344,2,c
  3047  010B82  D008               	goto	l869
  3048                           
  3049                           ; BSR set to: 0
  3050  010B84  502A               	movf	_OFF,w,c
  3051  010B86  182E               	xorwf	_keyBeeps,w,c
  3052  010B88  E105               	bnz	l7020
  3053  010B8A  502B               	movf	_OFF+1,w,c
  3054  010B8C  182F               	xorwf	_keyBeeps+1,w,c
  3055  010B8E  B4D8               	btfsc	16344,2,c
  3056                           
  3057                           ; BSR set to: 0
  3058                           ;main.c: 498: {;main.c: 499: armBeep();
  3059  010B90  ECF5  F097         	call	_armBeep	;wreg free
  3060  010B94                     l869:
  3061  010B94                     l7020:
  3062                           
  3063                           ;main.c: 500: };main.c: 501: if (keyPressed != '#' && keyPressed != '*' && keyIterrator<
      +                          7)
  3064  010B94  0E23               	movlw	35
  3065  010B96  1838               	xorwf	_keyPressed,w,c
  3066  010B98  B4D8               	btfsc	16344,2,c
  3067  010B9A  D026               	goto	l870
  3068  010B9C  0E2A               	movlw	42
  3069  010B9E  1838               	xorwf	_keyPressed,w,c
  3070  010BA0  B4D8               	btfsc	16344,2,c
  3071  010BA2  D022               	goto	l870
  3072  010BA4  BE37               	btfsc	_keyIterrator+1,7,c
  3073  010BA6  D006               	goto	u8280
  3074  010BA8  5037               	movf	_keyIterrator+1,w,c
  3075  010BAA  E11E               	bnz	l7034
  3076  010BAC  0E07               	movlw	7
  3077  010BAE  5C36               	subwf	_keyIterrator,w,c
  3078  010BB0  B0D8               	btfsc	16344,0,c
  3079  010BB2  D01A               	goto	l870
  3080  010BB4                     u8280:
  3081                           
  3082                           ;main.c: 502: {;main.c: 503: userPswdEntry[keyIterrator] = keyPressed;
  3083  010BB4  0E93               	movlw	low _userPswdEntry
  3084  010BB6  2436               	addwf	_keyIterrator,w,c
  3085  010BB8  6ED9               	movwf	16345,c
  3086  010BBA  0E00               	movlw	high _userPswdEntry
  3087  010BBC  2037               	addwfc	_keyIterrator+1,w,c
  3088  010BBE  6EDA               	movwf	16346,c
  3089  010BC0  0060  F0E3  FFDF   	movff	_keyPressed,16351
  3090                           
  3091                           ;main.c: 504: keyIterrator++;
  3092  010BC6  4A36               	infsnz	_keyIterrator,f,c
  3093  010BC8  2A37               	incf	_keyIterrator+1,f,c
  3094                           
  3095                           ;main.c: 506: LCD_Set_Cursor(2,9+keyIterrator);
  3096  010BCA  0E00               	movlw	0
  3097  010BCC  6E4A               	movwf	LCD_Set_Cursor@c+1,c
  3098  010BCE  0E02               	movlw	2
  3099  010BD0  6E49               	movwf	LCD_Set_Cursor@c,c
  3100  010BD2  0E09               	movlw	9
  3101  010BD4  2436               	addwf	_keyIterrator,w,c
  3102  010BD6  6E4B               	movwf	LCD_Set_Cursor@d,c
  3103  010BD8  0E00               	movlw	0
  3104  010BDA  2037               	addwfc	_keyIterrator+1,w,c
  3105  010BDC  6E4C               	movwf	LCD_Set_Cursor@d+1,c
  3106  010BDE  EC3A  F097         	call	_LCD_Set_Cursor	;wreg free
  3107                           
  3108                           ;main.c: 508: LCD_Write_Char(keyPressed);
  3109  010BE2  5038               	movf	_keyPressed,w,c
  3110  010BE4  ECB3  F097         	call	_LCD_Write_Char
  3111  010BE8                     l870:
  3112  010BE8                     l7034:
  3113                           
  3114                           ;main.c: 509: };main.c: 511: if (keyPressed != '#' && keyPressed != '*' && keyIterrator<
      +                          7)
  3115  010BE8  0E23               	movlw	35
  3116  010BEA  1838               	xorwf	_keyPressed,w,c
  3117  010BEC  B4D8               	btfsc	16344,2,c
  3118  010BEE  EF04  F080         	goto	l760
  3119  010BF2  0E2A               	movlw	42
  3120  010BF4  1838               	xorwf	_keyPressed,w,c
  3121  010BF6  B4D8               	btfsc	16344,2,c
  3122  010BF8  EF04  F080         	goto	l760
  3123  010BFC  BE37               	btfsc	_keyIterrator+1,7,c
  3124  010BFE  D007               	goto	u8310
  3125  010C00  5037               	movf	_keyIterrator+1,w,c
  3126  010C02  E103               	bnz	u8311
  3127  010C04  0E07               	movlw	7
  3128  010C06  5C36               	subwf	_keyIterrator,w,c
  3129  010C08  B0D8               	btfsc	16344,0,c
  3130  010C0A                     u8311:
  3131  010C0A  EF04  F080         	goto	l760
  3132  010C0E                     u8310:
  3133                           
  3134                           ;main.c: 512: {;main.c: 513: _delay((unsigned long)((250)*(8000000/4000.0)));
  3135  010C0E  0E03               	movlw	3
  3136  010C10  0100               	movlb	0	; () banked
  3137  010C12  6F86               	movwf	(??_main+1)& (0+255),b
  3138  010C14  0E8A               	movlw	138
  3139  010C16  6F85               	movwf	??_main& (0+255),b
  3140  010C18  0E55               	movlw	85
  3141  010C1A                     u8947:
  3142  010C1A  2EE8               	decfsz	16360,f,c
  3143  010C1C  D7FE               	bra	u8947
  3144  010C1E  2F85               	decfsz	??_main& (0+255),f,b
  3145  010C20  D7FC               	bra	u8947
  3146  010C22  2F86               	decfsz	(??_main+1)& (0+255),f,b
  3147  010C24  D7FA               	bra	u8947
  3148  010C26  D000               	nop2	
  3149                           
  3150                           ;main.c: 514: isPasswordTrue = verifyPassword(userPswdEntry,password);
  3151  010C28  0E93               	movlw	low _userPswdEntry
  3152  010C2A  6E4E               	movwf	verifyPassword@user,c
  3153  010C2C  0E00               	movlw	high _userPswdEntry
  3154  010C2E  6E4F               	movwf	verifyPassword@user+1,c
  3155  010C30  0E74               	movlw	low _password
  3156  010C32  6E50               	movwf	verifyPassword@pass,c
  3157  010C34  0E00               	movlw	high _password
  3158  010C36  6E51               	movwf	verifyPassword@pass+1,c
  3159  010C38  ECD2  F096         	call	_verifyPassword	;wreg free
  3160  010C3C  0060  F138  F034   	movff	?_verifyPassword,_isPasswordTrue
  3161  010C42  0060  F13C  F035   	movff	?_verifyPassword+1,_isPasswordTrue+1
  3162                           
  3163                           ;main.c: 515: resetPasswordEntry();
  3164  010C48  EC22  F097         	call	_resetPasswordEntry	;wreg free
  3165                           
  3166                           ;main.c: 517: if(isPasswordTrue == TRUE)
  3167  010C4C  5019               	movf	_TRUE,w,c
  3168  010C4E  1834               	xorwf	_isPasswordTrue,w,c
  3169  010C50  E112               	bnz	l7058
  3170  010C52  501A               	movf	_TRUE+1,w,c
  3171  010C54  1835               	xorwf	_isPasswordTrue+1,w,c
  3172  010C56  A4D8               	btfss	16344,2,c
  3173  010C58  D00E               	goto	l872
  3174                           
  3175                           ;main.c: 518: {;main.c: 519: LCD_printAccepted();
  3176  010C5A  ECA0  F093         	call	_LCD_printAccepted	;wreg free
  3177                           
  3178                           ;main.c: 521: armedPageReset();
  3179  010C5E  ECB5  F096         	call	_armedPageReset	;wreg free
  3180                           
  3181                           ;main.c: 522: countdownStart();
  3182  010C62  EC97  F098         	call	_countdownStart	;wreg free
  3183  010C66                     l7054:
  3184                           
  3185                           ;main.c: 523: status = armed;
  3186  010C66  0060  F084  F032   	movff	_armed,_status
  3187  010C6C  0060  F088  F033   	movff	_armed+1,_status+1
  3188                           
  3189                           ;main.c: 525: }
  3190                           
  3191                           ;main.c: 524: continue;
  3192  010C72  EF04  F080         	goto	l760
  3193  010C76                     l872:
  3194  010C76                     l7058:
  3195                           
  3196                           ;main.c: 527: else if (isPasswordTrue == FALSE)
  3197  010C76  5028               	movf	_FALSE,w,c
  3198  010C78  1834               	xorwf	_isPasswordTrue,w,c
  3199  010C7A  E103               	bnz	u8331
  3200  010C7C  5029               	movf	_FALSE+1,w,c
  3201  010C7E  1835               	xorwf	_isPasswordTrue+1,w,c
  3202  010C80  A4D8               	btfss	16344,2,c
  3203  010C82                     u8331:
  3204  010C82  EF04  F080         	goto	l760
  3205                           
  3206                           ;main.c: 528: {;main.c: 529: LCD_printDeclined();
  3207  010C86  EC44  F093         	call	_LCD_printDeclined	;wreg free
  3208                           
  3209                           ;main.c: 530: disarmedPageReset();
  3210  010C8A  EC59  F096         	call	_disarmedPageReset	;wreg free
  3211                           
  3212                           ;main.c: 532: };main.c: 533: };main.c: 534: }
  3213                           
  3214                           ;main.c: 531: continue;
  3215  010C8E  EF04  F080         	goto	l760
  3216  010C92                     l868:
  3217                           
  3218                           ;main.c: 537: else if(keyHeld != NONE)
  3219  010C92  5039               	movf	_keyHeld,w,c
  3220  010C94  0100               	movlb	0	; () banked
  3221  010C96  6F85               	movwf	??_main& (0+255),b
  3222  010C98  6B86               	clrf	(??_main+1)& (0+255),b
  3223  010C9A  5026               	movf	_NONE,w,c
  3224  010C9C  1985               	xorwf	??_main& (0+255),w,b
  3225  010C9E  E105               	bnz	u8340
  3226  010CA0  5027               	movf	_NONE+1,w,c
  3227  010CA2  1986               	xorwf	(??_main+1)& (0+255),w,b
  3228  010CA4  B4D8               	btfsc	16344,2,c
  3229  010CA6  EF04  F080         	goto	l760
  3230  010CAA                     u8340:
  3231                           
  3232                           ; BSR set to: 0
  3233                           ;main.c: 538: {;main.c: 540: if(keyPressed == '#' && keyHeld == '#')
  3234  010CAA  0E23               	movlw	35
  3235  010CAC  1838               	xorwf	_keyPressed,w,c
  3236  010CAE  A4D8               	btfss	16344,2,c
  3237  010CB0  D005               	goto	l877
  3238                           
  3239                           ; BSR set to: 0
  3240  010CB2  0E23               	movlw	35
  3241  010CB4  1839               	xorwf	_keyHeld,w,c
  3242  010CB6  B4D8               	btfsc	16344,2,c
  3243  010CB8  EF04  F080         	goto	l760
  3244  010CBC                     l877:
  3245                           
  3246                           ; BSR set to: 0
  3247                           ;main.c: 545: else if(keyPressed == '*' && keyHeld == '*')
  3248                           
  3249                           ; BSR set to: 0
  3250  010CBC  0E2A               	movlw	42
  3251  010CBE  1838               	xorwf	_keyPressed,w,c
  3252  010CC0  A4D8               	btfss	16344,2,c
  3253  010CC2  D10F               	goto	l879
  3254                           
  3255                           ; BSR set to: 0
  3256  010CC4  0E2A               	movlw	42
  3257  010CC6  1839               	xorwf	_keyHeld,w,c
  3258  010CC8  A4D8               	btfss	16344,2,c
  3259  010CCA  D10B               	goto	l879
  3260                           
  3261                           ; BSR set to: 0
  3262                           ;main.c: 546: {;main.c: 547: timerChange = TRUE;
  3263  010CCC  0060  F064  F091   	movff	_TRUE,_timerChange
  3264  010CD2  0060  F068  F092   	movff	_TRUE+1,_timerChange+1
  3265                           
  3266                           ; BSR set to: 0
  3267                           ;main.c: 548: LCD_Set_Cursor(2,1);
  3268  010CD8  0E00               	movlw	0
  3269  010CDA  6E4A               	movwf	LCD_Set_Cursor@c+1,c
  3270  010CDC  0E02               	movlw	2
  3271  010CDE  6E49               	movwf	LCD_Set_Cursor@c,c
  3272  010CE0  0E00               	movlw	0
  3273  010CE2  6E4C               	movwf	LCD_Set_Cursor@d+1,c
  3274  010CE4  0E01               	movlw	1
  3275  010CE6  6E4B               	movwf	LCD_Set_Cursor@d,c
  3276  010CE8  EC3A  F097         	call	_LCD_Set_Cursor	;wreg free
  3277                           
  3278                           ;main.c: 549: LCD_Write_String("TIMER CHANGE    ");
  3279  010CEC  0E26               	movlw	low STR_27
  3280  010CEE  6E49               	movwf	LCD_Write_String@f,c
  3281  010CF0  0EFF               	movlw	high STR_27
  3282  010CF2  6E4A               	movwf	LCD_Write_String@f+1,c
  3283  010CF4  EC31  F095         	call	_LCD_Write_String	;wreg free
  3284                           
  3285                           ;main.c: 551: int cursorPos = 0;
  3286  010CF8  0E00               	movlw	0
  3287  010CFA  0100               	movlb	0	; () banked
  3288  010CFC  6F8C               	movwf	(main@cursorPos_1250+1)& (0+255),b
  3289  010CFE  0E00               	movlw	0
  3290  010D00  6F8B               	movwf	main@cursorPos_1250& (0+255),b
  3291                           
  3292                           ; BSR set to: 0
  3293                           ;main.c: 552: LCD_printInitialCountdown();
  3294  010D02  ECA8  F095         	call	_LCD_printInitialCountdown	;wreg free
  3295                           
  3296                           ;main.c: 553: LCD_Set_Cursor(1,9);
  3297  010D06  0E00               	movlw	0
  3298  010D08  6E4A               	movwf	LCD_Set_Cursor@c+1,c
  3299  010D0A  0E01               	movlw	1
  3300  010D0C  6E49               	movwf	LCD_Set_Cursor@c,c
  3301  010D0E  0E00               	movlw	0
  3302  010D10  6E4C               	movwf	LCD_Set_Cursor@d+1,c
  3303  010D12  0E09               	movlw	9
  3304  010D14  6E4B               	movwf	LCD_Set_Cursor@d,c
  3305  010D16  EC3A  F097         	call	_LCD_Set_Cursor	;wreg free
  3306                           
  3307                           ;main.c: 554: LCD_Cursor_Blink_On();
  3308  010D1A  ECA9  F098         	call	_LCD_Cursor_Blink_On	;wreg free
  3309                           
  3310                           ;main.c: 556: while(timerChange == TRUE)
  3311  010D1E  D0D1               	goto	l914
  3312  010D20                     
  3313                           ;main.c: 557: {;main.c: 558: keypadOutput = keypadRead();
  3314  010D20  EC73  F090         	call	_keypadRead	;wreg free
  3315  010D24  0060  F12C  F024   	movff	?_keypadRead,_keypadOutput
  3316  010D2A  0060  F130  F025   	movff	?_keypadRead+1,_keypadOutput+1
  3317                           
  3318                           ;main.c: 559: keyPressed = keypadOutput.keyPressed;
  3319  010D30  0060  F090  F038   	movff	_keypadOutput,_keyPressed
  3320                           
  3321                           ;main.c: 560: keyHeld = keypadOutput.keyHeld;
  3322  010D36  0060  F094  F039   	movff	_keypadOutput+1,_keyHeld
  3323                           
  3324                           ;main.c: 562: if(keyHeld == NONE && keyPressed == '#')
  3325  010D3C  5039               	movf	_keyHeld,w,c
  3326  010D3E  0100               	movlb	0	; () banked
  3327  010D40  6F85               	movwf	??_main& (0+255),b
  3328  010D42  6B86               	clrf	(??_main+1)& (0+255),b
  3329  010D44  5026               	movf	_NONE,w,c
  3330  010D46  1985               	xorwf	??_main& (0+255),w,b
  3331  010D48  E138               	bnz	l7136
  3332  010D4A  5027               	movf	_NONE+1,w,c
  3333  010D4C  1986               	xorwf	(??_main+1)& (0+255),w,b
  3334  010D4E  A4D8               	btfss	16344,2,c
  3335  010D50  D034               	goto	l882
  3336                           
  3337                           ; BSR set to: 0
  3338  010D52  0E23               	movlw	35
  3339  010D54  1838               	xorwf	_keyPressed,w,c
  3340  010D56  A4D8               	btfss	16344,2,c
  3341  010D58  D030               	goto	l882
  3342                           
  3343                           ; BSR set to: 0
  3344                           ;main.c: 563: {;main.c: 564: if(cursorPos==0){LCD_Cursor_Right();cursorPos++;}
  3345  010D5A  518B               	movf	main@cursorPos_1250& (0+255),w,b
  3346  010D5C  118C               	iorwf	(main@cursorPos_1250+1)& (0+255),w,b
  3347  010D5E  A4D8               	btfss	16344,2,c
  3348  010D60  D003               	goto	l883
  3349                           
  3350                           ; BSR set to: 0
  3351  010D62  ECB1  F098         	call	_LCD_Cursor_Right	;wreg free
  3352  010D66  D025               	goto	l7132
  3353  010D68                     l883:
  3354                           
  3355                           ; BSR set to: 0
  3356                           ;main.c: 565: else if(cursorPos==1){LCD_Cursor_Right();LCD_Cursor_Right();cursorPos++;cu
      +                          rsorPos++;}
  3357                           
  3358                           ; BSR set to: 0
  3359  010D68  058B               	decf	main@cursorPos_1250& (0+255),w,b
  3360  010D6A  118C               	iorwf	(main@cursorPos_1250+1)& (0+255),w,b
  3361  010D6C  A4D8               	btfss	16344,2,c
  3362  010D6E  D008               	goto	l885
  3363                           
  3364                           ; BSR set to: 0
  3365  010D70  ECB1  F098         	call	_LCD_Cursor_Right	;wreg free
  3366  010D74  ECB1  F098         	call	_LCD_Cursor_Right	;wreg free
  3367  010D78                     l7110:
  3368  010D78  0100               	movlb	0	; () banked
  3369  010D7A  4B8B               	infsnz	main@cursorPos_1250& (0+255),f,b
  3370  010D7C  2B8C               	incf	(main@cursorPos_1250+1)& (0+255),f,b
  3371  010D7E  D01A               	goto	L7
  3372  010D80                     l885:
  3373                           
  3374                           ; BSR set to: 0
  3375                           ;main.c: 566: else if(cursorPos==3){LCD_Cursor_Right();cursorPos++;}
  3376                           
  3377                           ; BSR set to: 0
  3378  010D80  0E03               	movlw	3
  3379  010D82  198B               	xorwf	main@cursorPos_1250& (0+255),w,b
  3380  010D84  118C               	iorwf	(main@cursorPos_1250+1)& (0+255),w,b
  3381  010D86  A4D8               	btfss	16344,2,c
  3382  010D88  D003               	goto	l887
  3383                           
  3384                           ; BSR set to: 0
  3385  010D8A  ECB1  F098         	call	_LCD_Cursor_Right	;wreg free
  3386  010D8E  D011               	goto	l7132
  3387  010D90                     l887:
  3388                           
  3389                           ; BSR set to: 0
  3390                           ;main.c: 567: else if(cursorPos==4){LCD_Cursor_Right();LCD_Cursor_Right();cursorPos++;cu
      +                          rsorPos++;}
  3391                           
  3392                           ; BSR set to: 0
  3393  010D90  0E04               	movlw	4
  3394  010D92  198B               	xorwf	main@cursorPos_1250& (0+255),w,b
  3395  010D94  118C               	iorwf	(main@cursorPos_1250+1)& (0+255),w,b
  3396  010D96  A4D8               	btfss	16344,2,c
  3397  010D98  D005               	goto	l889
  3398                           
  3399                           ; BSR set to: 0
  3400  010D9A  ECB1  F098         	call	_LCD_Cursor_Right	;wreg free
  3401  010D9E  ECB1  F098         	call	_LCD_Cursor_Right	;wreg free
  3402  010DA2  D7EA               	goto	l7110
  3403  010DA4                     l889:
  3404                           
  3405                           ; BSR set to: 0
  3406                           ;main.c: 568: else if(cursorPos==6){LCD_Cursor_Right();cursorPos++;}
  3407                           
  3408                           ; BSR set to: 0
  3409  010DA4  0E06               	movlw	6
  3410  010DA6  198B               	xorwf	main@cursorPos_1250& (0+255),w,b
  3411  010DA8  118C               	iorwf	(main@cursorPos_1250+1)& (0+255),w,b
  3412  010DAA  A4D8               	btfss	16344,2,c
  3413  010DAC  D08A               	goto	l914
  3414                           
  3415                           ; BSR set to: 0
  3416  010DAE  ECB1  F098         	call	_LCD_Cursor_Right	;wreg free
  3417  010DB2                     l7132:
  3418  010DB2  0100               	movlb	0	; () banked
  3419  010DB4                     L7:
  3420  010DB4  4B8B               	infsnz	main@cursorPos_1250& (0+255),f,b
  3421  010DB6  2B8C               	incf	(main@cursorPos_1250+1)& (0+255),f,b
  3422                           
  3423                           ; BSR set to: 0
  3424                           ;main.c: 570: }
  3425                           
  3426                           ; BSR set to: 0
  3427                           
  3428                           ; BSR set to: 0
  3429                           
  3430                           ; BSR set to: 0
  3431                           
  3432                           ; BSR set to: 0
  3433                           
  3434                           ; BSR set to: 0
  3435                           
  3436                           ; BSR set to: 0
  3437                           
  3438                           ; BSR set to: 0
  3439  010DB8  D084               	goto	l914
  3440  010DBA                     l882:
  3441  010DBA                     l7136:
  3442                           
  3443                           ; BSR set to: 0
  3444                           ;main.c: 572: else if (keyHeld == NONE && keyPressed == '*')
  3445  010DBA  5039               	movf	_keyHeld,w,c
  3446  010DBC  6F85               	movwf	??_main& (0+255),b
  3447  010DBE  6B86               	clrf	(??_main+1)& (0+255),b
  3448  010DC0  5026               	movf	_NONE,w,c
  3449  010DC2  1985               	xorwf	??_main& (0+255),w,b
  3450  010DC4  E140               	bnz	l7178
  3451  010DC6  5027               	movf	_NONE+1,w,c
  3452  010DC8  1986               	xorwf	(??_main+1)& (0+255),w,b
  3453  010DCA  A4D8               	btfss	16344,2,c
  3454  010DCC  D03C               	goto	l895
  3455                           
  3456                           ; BSR set to: 0
  3457  010DCE  0E2A               	movlw	42
  3458  010DD0  1838               	xorwf	_keyPressed,w,c
  3459  010DD2  A4D8               	btfss	16344,2,c
  3460  010DD4  D038               	goto	l895
  3461                           
  3462                           ; BSR set to: 0
  3463                           ;main.c: 573: {;main.c: 574: if(cursorPos==0){}
  3464  010DD6  518B               	movf	main@cursorPos_1250& (0+255),w,b
  3465  010DD8  118C               	iorwf	(main@cursorPos_1250+1)& (0+255),w,b
  3466  010DDA  B4D8               	btfsc	16344,2,c
  3467  010DDC  D072               	goto	l914
  3468                           
  3469                           ; BSR set to: 0
  3470                           ;main.c: 575: else if(cursorPos==1){LCD_Cursor_Left();cursorPos--;}
  3471                           
  3472                           ; BSR set to: 0
  3473                           
  3474                           ; BSR set to: 0
  3475  010DDE  058B               	decf	main@cursorPos_1250& (0+255),w,b
  3476  010DE0  118C               	iorwf	(main@cursorPos_1250+1)& (0+255),w,b
  3477  010DE2  A4D8               	btfss	16344,2,c
  3478  010DE4  D004               	goto	l898
  3479                           
  3480                           ; BSR set to: 0
  3481  010DE6  ECB5  F098         	call	_LCD_Cursor_Left	;wreg free
  3482  010DEA                     l7148:
  3483  010DEA  0100               	movlb	0	; () banked
  3484  010DEC  D028               	goto	L9
  3485  010DEE                     l898:
  3486                           
  3487                           ; BSR set to: 0
  3488                           ;main.c: 576: else if(cursorPos==3){LCD_Cursor_Left();LCD_Cursor_Left();cursorPos--;curs
      +                          orPos--;}
  3489                           
  3490                           ; BSR set to: 0
  3491  010DEE  0E03               	movlw	3
  3492  010DF0  198B               	xorwf	main@cursorPos_1250& (0+255),w,b
  3493  010DF2  118C               	iorwf	(main@cursorPos_1250+1)& (0+255),w,b
  3494  010DF4  A4D8               	btfss	16344,2,c
  3495  010DF6  D009               	goto	l900
  3496                           
  3497                           ; BSR set to: 0
  3498  010DF8  ECB5  F098         	call	_LCD_Cursor_Left	;wreg free
  3499  010DFC  ECB5  F098         	call	_LCD_Cursor_Left	;wreg free
  3500  010E00                     l7154:
  3501  010E00  0100               	movlb	0	; () banked
  3502  010E02  078B               	decf	main@cursorPos_1250& (0+255),f,b
  3503  010E04  A0D8               	btfss	16344,0,c
  3504  010E06  078C               	decf	(main@cursorPos_1250+1)& (0+255),f,b
  3505  010E08  D01A               	goto	L9
  3506  010E0A                     l900:
  3507                           
  3508                           ; BSR set to: 0
  3509                           ;main.c: 577: else if(cursorPos==4){LCD_Cursor_Left();cursorPos--;}
  3510                           
  3511                           ; BSR set to: 0
  3512  010E0A  0E04               	movlw	4
  3513  010E0C  198B               	xorwf	main@cursorPos_1250& (0+255),w,b
  3514  010E0E  118C               	iorwf	(main@cursorPos_1250+1)& (0+255),w,b
  3515  010E10  A4D8               	btfss	16344,2,c
  3516  010E12  D003               	goto	l902
  3517                           
  3518                           ; BSR set to: 0
  3519  010E14  ECB5  F098         	call	_LCD_Cursor_Left	;wreg free
  3520  010E18  D7E8               	goto	l7148
  3521  010E1A                     l902:
  3522                           
  3523                           ; BSR set to: 0
  3524                           ;main.c: 578: else if(cursorPos==6){LCD_Cursor_Left();LCD_Cursor_Left();cursorPos--;curs
      +                          orPos--;}
  3525                           
  3526                           ; BSR set to: 0
  3527  010E1A  0E06               	movlw	6
  3528  010E1C  198B               	xorwf	main@cursorPos_1250& (0+255),w,b
  3529  010E1E  118C               	iorwf	(main@cursorPos_1250+1)& (0+255),w,b
  3530  010E20  A4D8               	btfss	16344,2,c
  3531  010E22  D005               	goto	l904
  3532                           
  3533                           ; BSR set to: 0
  3534  010E24  ECB5  F098         	call	_LCD_Cursor_Left	;wreg free
  3535  010E28  ECB5  F098         	call	_LCD_Cursor_Left	;wreg free
  3536  010E2C  D7E9               	goto	l7154
  3537  010E2E                     l904:
  3538                           
  3539                           ; BSR set to: 0
  3540                           ;main.c: 579: else if(cursorPos==7){LCD_Cursor_Left();cursorPos--;}
  3541                           
  3542                           ; BSR set to: 0
  3543  010E2E  0E07               	movlw	7
  3544  010E30  198B               	xorwf	main@cursorPos_1250& (0+255),w,b
  3545  010E32  118C               	iorwf	(main@cursorPos_1250+1)& (0+255),w,b
  3546  010E34  A4D8               	btfss	16344,2,c
  3547  010E36  D045               	goto	l914
  3548                           
  3549                           ; BSR set to: 0
  3550  010E38  ECB5  F098         	call	_LCD_Cursor_Left	;wreg free
  3551  010E3C  D7D6               	goto	l7148
  3552  010E3E                     L9:
  3553  010E3E  078B               	decf	main@cursorPos_1250& (0+255),f,b
  3554  010E40  A0D8               	btfss	16344,0,c
  3555  010E42  078C               	decf	(main@cursorPos_1250+1)& (0+255),f,b
  3556                           
  3557                           ; BSR set to: 0
  3558                           ;main.c: 580: }
  3559                           
  3560                           ; BSR set to: 0
  3561                           
  3562                           ; BSR set to: 0
  3563                           
  3564                           ; BSR set to: 0
  3565                           
  3566                           ; BSR set to: 0
  3567                           
  3568                           ; BSR set to: 0
  3569  010E44  D03E               	goto	l914
  3570  010E46                     l895:
  3571  010E46                     l7178:
  3572                           
  3573                           ; BSR set to: 0
  3574                           ;main.c: 582: else if (keyHeld == NONE)
  3575  010E46  5039               	movf	_keyHeld,w,c
  3576  010E48  6F85               	movwf	??_main& (0+255),b
  3577  010E4A  6B86               	clrf	(??_main+1)& (0+255),b
  3578  010E4C  5026               	movf	_NONE,w,c
  3579  010E4E  1985               	xorwf	??_main& (0+255),w,b
  3580  010E50  E12A               	bnz	l7200
  3581  010E52  5027               	movf	_NONE+1,w,c
  3582  010E54  1986               	xorwf	(??_main+1)& (0+255),w,b
  3583  010E56  A4D8               	btfss	16344,2,c
  3584  010E58  D026               	goto	l908
  3585                           
  3586                           ; BSR set to: 0
  3587                           ;main.c: 583: {;main.c: 584: strCountdownInitialTime[cursorPos] = keyPressed;
  3588  010E5A  0E60               	movlw	low _strCountdownInitialTime
  3589  010E5C  258B               	addwf	main@cursorPos_1250& (0+255),w,b
  3590  010E5E  6ED9               	movwf	16345,c
  3591  010E60  0E00               	movlw	high _strCountdownInitialTime
  3592  010E62  218C               	addwfc	(main@cursorPos_1250+1)& (0+255),w,b
  3593  010E64  6EDA               	movwf	16346,c
  3594  010E66  0060  F0E3  FFDF   	movff	_keyPressed,16351
  3595                           
  3596                           ; BSR set to: 0
  3597                           ;main.c: 585: LCD_Write_Char(keyPressed);
  3598  010E6C  5038               	movf	_keyPressed,w,c
  3599  010E6E  ECB3  F097         	call	_LCD_Write_Char
  3600                           
  3601                           ;main.c: 586: cursorPos++;
  3602  010E72  0100               	movlb	0	; () banked
  3603  010E74  4B8B               	infsnz	main@cursorPos_1250& (0+255),f,b
  3604  010E76  2B8C               	incf	(main@cursorPos_1250+1)& (0+255),f,b
  3605                           
  3606                           ; BSR set to: 0
  3607                           ;main.c: 587: if(cursorPos == 2 || cursorPos == 5){LCD_Cursor_Right();cursorPos++;}
  3608  010E78  0E02               	movlw	2
  3609  010E7A  198B               	xorwf	main@cursorPos_1250& (0+255),w,b
  3610  010E7C  118C               	iorwf	(main@cursorPos_1250+1)& (0+255),w,b
  3611  010E7E  B4D8               	btfsc	16344,2,c
  3612  010E80  D005               	goto	u8560
  3613                           
  3614                           ; BSR set to: 0
  3615  010E82  0E05               	movlw	5
  3616  010E84  198B               	xorwf	main@cursorPos_1250& (0+255),w,b
  3617  010E86  118C               	iorwf	(main@cursorPos_1250+1)& (0+255),w,b
  3618  010E88  A4D8               	btfss	16344,2,c
  3619  010E8A  D005               	goto	l909
  3620  010E8C                     u8560:
  3621                           
  3622                           ; BSR set to: 0
  3623                           
  3624                           ; BSR set to: 0
  3625  010E8C  ECB1  F098         	call	_LCD_Cursor_Right	;wreg free
  3626  010E90  0100               	movlb	0	; () banked
  3627  010E92  4B8B               	infsnz	main@cursorPos_1250& (0+255),f,b
  3628  010E94  2B8C               	incf	(main@cursorPos_1250+1)& (0+255),f,b
  3629  010E96                     l909:
  3630                           
  3631                           ; BSR set to: 0
  3632                           ;main.c: 588: if(cursorPos == 8){LCD_Cursor_Left();cursorPos--;}
  3633                           
  3634                           ; BSR set to: 0
  3635  010E96  0E08               	movlw	8
  3636  010E98  198B               	xorwf	main@cursorPos_1250& (0+255),w,b
  3637  010E9A  118C               	iorwf	(main@cursorPos_1250+1)& (0+255),w,b
  3638  010E9C  A4D8               	btfss	16344,2,c
  3639  010E9E  D011               	goto	l914
  3640                           
  3641                           ; BSR set to: 0
  3642  010EA0  ECB5  F098         	call	_LCD_Cursor_Left	;wreg free
  3643  010EA4  D7A2               	goto	l7148
  3644  010EA6                     l908:
  3645  010EA6                     l7200:
  3646                           
  3647                           ; BSR set to: 0
  3648                           ;main.c: 590: else if (keyHeld == '*' && keyPressed == '*')
  3649  010EA6  0E2A               	movlw	42
  3650  010EA8  1839               	xorwf	_keyHeld,w,c
  3651  010EAA  A4D8               	btfss	16344,2,c
  3652  010EAC  D00A               	goto	l914
  3653                           
  3654                           ; BSR set to: 0
  3655  010EAE  0E2A               	movlw	42
  3656  010EB0  1838               	xorwf	_keyPressed,w,c
  3657  010EB2  A4D8               	btfss	16344,2,c
  3658  010EB4  D006               	goto	l914
  3659                           
  3660                           ; BSR set to: 0
  3661                           ;main.c: 591: {;main.c: 592: timerChange = FALSE;
  3662  010EB6  0060  F0A0  F091   	movff	_FALSE,_timerChange
  3663  010EBC  0060  F0A4  F092   	movff	_FALSE+1,_timerChange+1
  3664  010EC2                     l914:
  3665                           
  3666                           ; BSR set to: 0
  3667                           
  3668                           ; BSR set to: 0
  3669                           
  3670                           ; BSR set to: 0
  3671                           
  3672                           ; BSR set to: 0
  3673                           
  3674                           ; BSR set to: 0
  3675  010EC2  5019               	movf	_TRUE,w,c
  3676  010EC4  0100               	movlb	0	; () banked
  3677  010EC6  1991               	xorwf	_timerChange& (0+255),w,b
  3678  010EC8  E104               	bnz	l7208
  3679  010ECA  501A               	movf	_TRUE+1,w,c
  3680  010ECC  1992               	xorwf	(_timerChange+1)& (0+255),w,b
  3681  010ECE  B4D8               	btfsc	16344,2,c
  3682  010ED0  D727               	goto	l881
  3683  010ED2                     l7208:
  3684                           
  3685                           ; BSR set to: 0
  3686                           ;main.c: 593: };main.c: 595: };main.c: 596: countdown_initial_str2num();
  3687  010ED2  EC3F  F089         	call	_countdown_initial_str2num	;wreg free
  3688                           
  3689                           ;main.c: 597: LCD_printNowCountdown();
  3690  010ED6  EC83  F095         	call	_LCD_printNowCountdown	;wreg free
  3691                           
  3692                           ;main.c: 598: LCD_resetPasswordEntry();
  3693  010EDA  ECEE  F096         	call	_LCD_resetPasswordEntry	;wreg free
  3694                           
  3695                           ;main.c: 599: }
  3696  010EDE  EF04  F080         	goto	l760
  3697  010EE2                     l879:
  3698                           
  3699                           ;main.c: 601: else if(keyPressed == '0' && keyHeld == '0')
  3700  010EE2  0E30               	movlw	48
  3701  010EE4  1838               	xorwf	_keyPressed,w,c
  3702  010EE6  A4D8               	btfss	16344,2,c
  3703  010EE8  D069               	goto	l917
  3704  010EEA  0E30               	movlw	48
  3705  010EEC  1839               	xorwf	_keyHeld,w,c
  3706  010EEE  A4D8               	btfss	16344,2,c
  3707  010EF0  D065               	goto	l917
  3708                           
  3709                           ;main.c: 602: {;main.c: 603: status = stanby;
  3710  010EF2  0060  F0C0  F032   	movff	_stanby,_status
  3711  010EF8  0060  F0C4  F033   	movff	_stanby+1,_status+1
  3712                           
  3713                           ;main.c: 605: LCD_Set_Cursor(2,1);
  3714  010EFE  0E00               	movlw	0
  3715  010F00  6E4A               	movwf	LCD_Set_Cursor@c+1,c
  3716  010F02  0E02               	movlw	2
  3717  010F04  6E49               	movwf	LCD_Set_Cursor@c,c
  3718  010F06  0E00               	movlw	0
  3719  010F08  6E4C               	movwf	LCD_Set_Cursor@d+1,c
  3720  010F0A  0E01               	movlw	1
  3721  010F0C  6E4B               	movwf	LCD_Set_Cursor@d,c
  3722  010F0E  EC3A  F097         	call	_LCD_Set_Cursor	;wreg free
  3723                           
  3724                           ;main.c: 606: LCD_Write_String("RESETTING       ");
  3725  010F12  0ED1               	movlw	low STR_28
  3726  010F14  6E49               	movwf	LCD_Write_String@f,c
  3727  010F16  0EFE               	movlw	high STR_28
  3728  010F18  6E4A               	movwf	LCD_Write_String@f+1,c
  3729  010F1A  EC31  F095         	call	_LCD_Write_String	;wreg free
  3730                           
  3731                           ;main.c: 607: LCD_Set_Cursor(2,10);
  3732  010F1E  0E00               	movlw	0
  3733  010F20  6E4A               	movwf	LCD_Set_Cursor@c+1,c
  3734  010F22  0E02               	movlw	2
  3735  010F24  6E49               	movwf	LCD_Set_Cursor@c,c
  3736  010F26  0E00               	movlw	0
  3737  010F28  6E4C               	movwf	LCD_Set_Cursor@d+1,c
  3738  010F2A  0E0A               	movlw	10
  3739  010F2C  6E4B               	movwf	LCD_Set_Cursor@d,c
  3740  010F2E  EC3A  F097         	call	_LCD_Set_Cursor	;wreg free
  3741                           
  3742                           ;main.c: 608: _delay((unsigned long)((800)*(8000000/4000.0)));
  3743  010F32  0E09               	movlw	9
  3744  010F34  0100               	movlb	0	; () banked
  3745  010F36  6F86               	movwf	(??_main+1)& (0+255),b
  3746  010F38  0E1E               	movlw	30
  3747  010F3A  6F85               	movwf	??_main& (0+255),b
  3748  010F3C  0EE4               	movlw	228
  3749  010F3E                     u8957:
  3750  010F3E  2EE8               	decfsz	16360,f,c
  3751  010F40  D7FE               	bra	u8957
  3752  010F42  2F85               	decfsz	??_main& (0+255),f,b
  3753  010F44  D7FC               	bra	u8957
  3754  010F46  2F86               	decfsz	(??_main+1)& (0+255),f,b
  3755  010F48  D7FA               	bra	u8957
  3756  010F4A  F000               	nop	
  3757                           
  3758                           ;main.c: 609: LCD_Write_Char('.');
  3759  010F4C  0E2E               	movlw	46
  3760  010F4E  ECB3  F097         	call	_LCD_Write_Char
  3761                           
  3762                           ;main.c: 610: _delay((unsigned long)((800)*(8000000/4000.0)));
  3763  010F52  0E09               	movlw	9
  3764  010F54  0100               	movlb	0	; () banked
  3765  010F56  6F86               	movwf	(??_main+1)& (0+255),b
  3766  010F58  0E1E               	movlw	30
  3767  010F5A  6F85               	movwf	??_main& (0+255),b
  3768  010F5C  0EE4               	movlw	228
  3769  010F5E                     u8967:
  3770  010F5E  2EE8               	decfsz	16360,f,c
  3771  010F60  D7FE               	bra	u8967
  3772  010F62  2F85               	decfsz	??_main& (0+255),f,b
  3773  010F64  D7FC               	bra	u8967
  3774  010F66  2F86               	decfsz	(??_main+1)& (0+255),f,b
  3775  010F68  D7FA               	bra	u8967
  3776  010F6A  F000               	nop	
  3777                           
  3778                           ;main.c: 611: LCD_Write_Char('.');
  3779  010F6C  0E2E               	movlw	46
  3780  010F6E  ECB3  F097         	call	_LCD_Write_Char
  3781                           
  3782                           ;main.c: 612: _delay((unsigned long)((800)*(8000000/4000.0)));
  3783  010F72  0E09               	movlw	9
  3784  010F74  0100               	movlb	0	; () banked
  3785  010F76  6F86               	movwf	(??_main+1)& (0+255),b
  3786  010F78  0E1E               	movlw	30
  3787  010F7A  6F85               	movwf	??_main& (0+255),b
  3788  010F7C  0EE4               	movlw	228
  3789  010F7E                     u8977:
  3790  010F7E  2EE8               	decfsz	16360,f,c
  3791  010F80  D7FE               	bra	u8977
  3792  010F82  2F85               	decfsz	??_main& (0+255),f,b
  3793  010F84  D7FC               	bra	u8977
  3794  010F86  2F86               	decfsz	(??_main+1)& (0+255),f,b
  3795  010F88  D7FA               	bra	u8977
  3796  010F8A  F000               	nop	
  3797                           
  3798                           ;main.c: 613: LCD_Write_Char('.');
  3799  010F8C  0E2E               	movlw	46
  3800  010F8E  ECB3  F097         	call	_LCD_Write_Char
  3801                           
  3802                           ;main.c: 614: _delay((unsigned long)((800)*(8000000/4000.0)));
  3803  010F92  0E09               	movlw	9
  3804  010F94  0100               	movlb	0	; () banked
  3805  010F96  6F86               	movwf	(??_main+1)& (0+255),b
  3806  010F98  0E1E               	movlw	30
  3807  010F9A  6F85               	movwf	??_main& (0+255),b
  3808  010F9C  0EE4               	movlw	228
  3809  010F9E                     u8987:
  3810  010F9E  2EE8               	decfsz	16360,f,c
  3811  010FA0  D7FE               	bra	u8987
  3812  010FA2  2F85               	decfsz	??_main& (0+255),f,b
  3813  010FA4  D7FC               	bra	u8987
  3814  010FA6  2F86               	decfsz	(??_main+1)& (0+255),f,b
  3815  010FA8  D7FA               	bra	u8987
  3816  010FAA  F000               	nop	
  3817                           
  3818                           ;main.c: 616: countdown_now_reset_to_initial();
  3819  010FAC  ECBB  F091         	call	_countdown_now_reset_to_initial	;wreg free
  3820                           
  3821                           ;main.c: 617: countdown_initial_str2num();
  3822  010FB0  EC3F  F089         	call	_countdown_initial_str2num	;wreg free
  3823                           
  3824                           ;main.c: 618: stanbyPageReset();
  3825  010FB4  EC38  F096         	call	_stanbyPageReset	;wreg free
  3826                           
  3827                           ;main.c: 620: }
  3828                           
  3829                           ;main.c: 619: continue;
  3830  010FB8  EF04  F080         	goto	l760
  3831  010FBC                     l917:
  3832                           
  3833                           ;main.c: 622: else if(keyPressed == '1' && keyHeld == '1')
  3834  010FBC  0E31               	movlw	49
  3835  010FBE  1838               	xorwf	_keyPressed,w,c
  3836  010FC0  A4D8               	btfss	16344,2,c
  3837  010FC2  D03C               	goto	l919
  3838  010FC4  0E31               	movlw	49
  3839  010FC6  1839               	xorwf	_keyHeld,w,c
  3840  010FC8  A4D8               	btfss	16344,2,c
  3841  010FCA  D038               	goto	l919
  3842                           
  3843                           ;main.c: 623: {;main.c: 624: keyBeeps = !keyBeeps;
  3844  010FCC  502E               	movf	_keyBeeps,w,c
  3845  010FCE  102F               	iorwf	_keyBeeps+1,w,c
  3846  010FD0  A4D8               	btfss	16344,2,c
  3847  010FD2  D002               	goto	u8650
  3848  010FD4  0E01               	movlw	1
  3849  010FD6  D001               	goto	u8660
  3850  010FD8                     u8650:
  3851  010FD8  0E00               	movlw	0
  3852  010FDA                     u8660:
  3853  010FDA  6E2E               	movwf	_keyBeeps,c
  3854  010FDC  6A2F               	clrf	_keyBeeps+1,c
  3855                           
  3856                           ;main.c: 626: LCD_Set_Cursor(2,1);
  3857  010FDE  0E00               	movlw	0
  3858  010FE0  6E4A               	movwf	LCD_Set_Cursor@c+1,c
  3859  010FE2  0E02               	movlw	2
  3860  010FE4  6E49               	movwf	LCD_Set_Cursor@c,c
  3861  010FE6  0E00               	movlw	0
  3862  010FE8  6E4C               	movwf	LCD_Set_Cursor@d+1,c
  3863  010FEA  0E01               	movlw	1
  3864  010FEC  6E4B               	movwf	LCD_Set_Cursor@d,c
  3865  010FEE  EC3A  F097         	call	_LCD_Set_Cursor	;wreg free
  3866                           
  3867                           ;main.c: 628: if(keyBeeps == ON)
  3868  010FF2  501B               	movf	_ON,w,c
  3869  010FF4  182E               	xorwf	_keyBeeps,w,c
  3870  010FF6  E10B               	bnz	l7258
  3871  010FF8  501C               	movf	_ON+1,w,c
  3872  010FFA  182F               	xorwf	_keyBeeps+1,w,c
  3873  010FFC  A4D8               	btfss	16344,2,c
  3874  010FFE  D007               	goto	l920
  3875                           
  3876                           ;main.c: 629: {;main.c: 630: LCD_Write_String("Key Beep ON     ");
  3877  011000  0E04               	movlw	low STR_17
  3878  011002  6E49               	movwf	LCD_Write_String@f,c
  3879  011004  0EFF               	movlw	high STR_17
  3880  011006  6E4A               	movwf	LCD_Write_String@f+1,c
  3881  011008  EC31  F095         	call	_LCD_Write_String	;wreg free
  3882                           
  3883                           ;main.c: 631: }
  3884  01100C  D006               	goto	l921
  3885  01100E                     l920:
  3886  01100E                     l7258:
  3887                           
  3888                           ;main.c: 633: else;main.c: 634: {;main.c: 635: LCD_Write_String("Key Beep OFF    ");
  3889  01100E  0E37               	movlw	low STR_18
  3890  011010  6E49               	movwf	LCD_Write_String@f,c
  3891  011012  0EFF               	movlw	high STR_18
  3892  011014  6E4A               	movwf	LCD_Write_String@f+1,c
  3893  011016  EC31  F095         	call	_LCD_Write_String	;wreg free
  3894  01101A                     l921:
  3895                           
  3896                           ;main.c: 636: };main.c: 638: _delay((unsigned long)((1500)*(8000000/4000.0)));
  3897  01101A  0E10               	movlw	16
  3898  01101C  0100               	movlb	0	; () banked
  3899  01101E  6F86               	movwf	(??_main+1)& (0+255),b
  3900  011020  0E39               	movlw	57
  3901  011022  6F85               	movwf	??_main& (0+255),b
  3902  011024  0E0D               	movlw	13
  3903  011026                     u8997:
  3904  011026  2EE8               	decfsz	16360,f,c
  3905  011028  D7FE               	bra	u8997
  3906  01102A  2F85               	decfsz	??_main& (0+255),f,b
  3907  01102C  D7FC               	bra	u8997
  3908  01102E  2F86               	decfsz	(??_main+1)& (0+255),f,b
  3909  011030  D7FA               	bra	u8997
  3910  011032  D000               	nop2	
  3911                           
  3912                           ;main.c: 639: disarmedPageReset();
  3913  011034  EC59  F096         	call	_disarmedPageReset	;wreg free
  3914                           
  3915                           ;main.c: 641: }
  3916                           
  3917                           ;main.c: 640: continue;
  3918  011038  EF04  F080         	goto	l760
  3919  01103C                     l919:
  3920                           
  3921                           ;main.c: 643: else if(keyPressed == '2' && keyHeld == '2')
  3922  01103C  0E32               	movlw	50
  3923  01103E  1838               	xorwf	_keyPressed,w,c
  3924  011040  A4D8               	btfss	16344,2,c
  3925  011042  D054               	goto	l923
  3926  011044  0E32               	movlw	50
  3927  011046  1839               	xorwf	_keyHeld,w,c
  3928  011048  A4D8               	btfss	16344,2,c
  3929  01104A  D050               	goto	l923
  3930                           
  3931                           ;main.c: 644: {;main.c: 645: if(cursorBlinkMem == OFF)
  3932  01104C  502A               	movf	_OFF,w,c
  3933  01104E  182C               	xorwf	_cursorBlinkMem,w,c
  3934  011050  E11D               	bnz	l7280
  3935  011052  502B               	movf	_OFF+1,w,c
  3936  011054  182D               	xorwf	_cursorBlinkMem+1,w,c
  3937  011056  A4D8               	btfss	16344,2,c
  3938  011058  D019               	goto	l924
  3939                           
  3940                           ;main.c: 646: {;main.c: 647: cursorBlinkMem = ON;
  3941  01105A  0060  F06C  F02C   	movff	_ON,_cursorBlinkMem
  3942  011060  0060  F070  F02D   	movff	_ON+1,_cursorBlinkMem+1
  3943                           
  3944                           ;main.c: 648: LCD_Cursor_Blink_On();
  3945  011066  ECA9  F098         	call	_LCD_Cursor_Blink_On	;wreg free
  3946                           
  3947                           ;main.c: 649: LCD_Set_Cursor(2,1);
  3948  01106A  0E00               	movlw	0
  3949  01106C  6E4A               	movwf	LCD_Set_Cursor@c+1,c
  3950  01106E  0E02               	movlw	2
  3951  011070  6E49               	movwf	LCD_Set_Cursor@c,c
  3952  011072  0E00               	movlw	0
  3953  011074  6E4C               	movwf	LCD_Set_Cursor@d+1,c
  3954  011076  0E01               	movlw	1
  3955  011078  6E4B               	movwf	LCD_Set_Cursor@d,c
  3956  01107A  EC3A  F097         	call	_LCD_Set_Cursor	;wreg free
  3957                           
  3958                           ;main.c: 650: LCD_Write_String("Cursor ON       ");
  3959  01107E  0EE2               	movlw	low STR_19
  3960  011080  6E49               	movwf	LCD_Write_String@f,c
  3961  011082  0EFE               	movlw	high STR_19
  3962  011084  6E4A               	movwf	LCD_Write_String@f+1,c
  3963  011086  EC31  F095         	call	_LCD_Write_String	;wreg free
  3964                           
  3965                           ;main.c: 651: }
  3966  01108A  D01F               	goto	l926
  3967  01108C                     l924:
  3968  01108C                     l7280:
  3969                           
  3970                           ;main.c: 653: else if(cursorBlinkMem == ON)
  3971  01108C  501B               	movf	_ON,w,c
  3972  01108E  182C               	xorwf	_cursorBlinkMem,w,c
  3973  011090  E11C               	bnz	l7290
  3974  011092  501C               	movf	_ON+1,w,c
  3975  011094  182D               	xorwf	_cursorBlinkMem+1,w,c
  3976  011096  A4D8               	btfss	16344,2,c
  3977  011098  D018               	goto	l926
  3978                           
  3979                           ;main.c: 654: {;main.c: 655: cursorBlinkMem = OFF;
  3980  01109A  0060  F0A8  F02C   	movff	_OFF,_cursorBlinkMem
  3981  0110A0  0060  F0AC  F02D   	movff	_OFF+1,_cursorBlinkMem+1
  3982                           
  3983                           ;main.c: 656: LCD_Cursor_Blink_Off();
  3984  0110A6  ECAD  F098         	call	_LCD_Cursor_Blink_Off	;wreg free
  3985                           
  3986                           ;main.c: 657: LCD_Set_Cursor(2,1);
  3987  0110AA  0E00               	movlw	0
  3988  0110AC  6E4A               	movwf	LCD_Set_Cursor@c+1,c
  3989  0110AE  0E02               	movlw	2
  3990  0110B0  6E49               	movwf	LCD_Set_Cursor@c,c
  3991  0110B2  0E00               	movlw	0
  3992  0110B4  6E4C               	movwf	LCD_Set_Cursor@d+1,c
  3993  0110B6  0E01               	movlw	1
  3994  0110B8  6E4B               	movwf	LCD_Set_Cursor@d,c
  3995  0110BA  EC3A  F097         	call	_LCD_Set_Cursor	;wreg free
  3996                           
  3997                           ;main.c: 658: LCD_Write_String("Cursor OFF      ");
  3998  0110BE  0EF3               	movlw	low STR_20
  3999  0110C0  6E49               	movwf	LCD_Write_String@f,c
  4000  0110C2  0EFE               	movlw	high STR_20
  4001  0110C4  6E4A               	movwf	LCD_Write_String@f+1,c
  4002  0110C6  EC31  F095         	call	_LCD_Write_String	;wreg free
  4003  0110CA                     l926:
  4004  0110CA                     l7290:
  4005                           
  4006                           ;main.c: 659: };main.c: 661: _delay((unsigned long)((1500)*(8000000/4000.0)));
  4007  0110CA  0E10               	movlw	16
  4008  0110CC  0100               	movlb	0	; () banked
  4009  0110CE  6F86               	movwf	(??_main+1)& (0+255),b
  4010  0110D0  0E39               	movlw	57
  4011  0110D2  6F85               	movwf	??_main& (0+255),b
  4012  0110D4  0E0D               	movlw	13
  4013  0110D6                     u9007:
  4014  0110D6  2EE8               	decfsz	16360,f,c
  4015  0110D8  D7FE               	bra	u9007
  4016  0110DA  2F85               	decfsz	??_main& (0+255),f,b
  4017  0110DC  D7FC               	bra	u9007
  4018  0110DE  2F86               	decfsz	(??_main+1)& (0+255),f,b
  4019  0110E0  D7FA               	bra	u9007
  4020  0110E2  D000               	nop2	
  4021                           
  4022                           ;main.c: 662: disarmedPageReset();
  4023  0110E4  EC59  F096         	call	_disarmedPageReset	;wreg free
  4024                           
  4025                           ;main.c: 664: }
  4026                           
  4027                           ;main.c: 663: continue;
  4028  0110E8  EF04  F080         	goto	l760
  4029  0110EC                     l923:
  4030                           
  4031                           ;main.c: 666: else if(keyPressed == '3' && keyHeld == '3')
  4032  0110EC  0E33               	movlw	51
  4033  0110EE  1838               	xorwf	_keyPressed,w,c
  4034  0110F0  A4D8               	btfss	16344,2,c
  4035  0110F2  EF04  F080         	goto	l760
  4036  0110F6  0E33               	movlw	51
  4037  0110F8  1839               	xorwf	_keyHeld,w,c
  4038  0110FA  A4D8               	btfss	16344,2,c
  4039  0110FC  EF04  F080         	goto	l760
  4040                           
  4041                           ;main.c: 667: {;main.c: 668: countdownBeepsMem = !countdownBeepsMem;
  4042  011100  501D               	movf	_countdownBeepsMem,w,c
  4043  011102  101E               	iorwf	_countdownBeepsMem+1,w,c
  4044  011104  A4D8               	btfss	16344,2,c
  4045  011106  D002               	goto	u8740
  4046  011108  0E01               	movlw	1
  4047  01110A  D001               	goto	u8750
  4048  01110C                     u8740:
  4049  01110C  0E00               	movlw	0
  4050  01110E                     u8750:
  4051  01110E  6E1D               	movwf	_countdownBeepsMem,c
  4052  011110  6A1E               	clrf	_countdownBeepsMem+1,c
  4053                           
  4054                           ;main.c: 669: countdownBeeps = !countdownBeeps;
  4055  011112  501F               	movf	_countdownBeeps,w,c
  4056  011114  1020               	iorwf	_countdownBeeps+1,w,c
  4057  011116  A4D8               	btfss	16344,2,c
  4058  011118  D002               	goto	u8760
  4059  01111A  0E01               	movlw	1
  4060  01111C  D001               	goto	u8770
  4061  01111E                     u8760:
  4062  01111E  0E00               	movlw	0
  4063  011120                     u8770:
  4064  011120  6E1F               	movwf	_countdownBeeps,c
  4065  011122  6A20               	clrf	_countdownBeeps+1,c
  4066                           
  4067                           ;main.c: 671: LCD_Set_Cursor(2,1);
  4068  011124  0E00               	movlw	0
  4069  011126  6E4A               	movwf	LCD_Set_Cursor@c+1,c
  4070  011128  0E02               	movlw	2
  4071  01112A  6E49               	movwf	LCD_Set_Cursor@c,c
  4072  01112C  0E00               	movlw	0
  4073  01112E  6E4C               	movwf	LCD_Set_Cursor@d+1,c
  4074  011130  0E01               	movlw	1
  4075  011132  6E4B               	movwf	LCD_Set_Cursor@d,c
  4076  011134  EC3A  F097         	call	_LCD_Set_Cursor	;wreg free
  4077                           
  4078                           ;main.c: 673: if(countdownBeeps == ON)
  4079  011138  501B               	movf	_ON,w,c
  4080  01113A  181F               	xorwf	_countdownBeeps,w,c
  4081  01113C  E10B               	bnz	l7308
  4082  01113E  501C               	movf	_ON+1,w,c
  4083  011140  1820               	xorwf	_countdownBeeps+1,w,c
  4084  011142  A4D8               	btfss	16344,2,c
  4085  011144  D007               	goto	l929
  4086                           
  4087                           ;main.c: 674: {;main.c: 675: LCD_Write_String("Timer Beep ON   ");
  4088  011146  0E59               	movlw	low STR_21
  4089  011148  6E49               	movwf	LCD_Write_String@f,c
  4090  01114A  0EFF               	movlw	high STR_21
  4091  01114C  6E4A               	movwf	LCD_Write_String@f+1,c
  4092  01114E  EC31  F095         	call	_LCD_Write_String	;wreg free
  4093                           
  4094                           ;main.c: 676: }
  4095  011152  D006               	goto	l930
  4096  011154                     l929:
  4097  011154                     l7308:
  4098                           
  4099                           ;main.c: 678: else;main.c: 679: {;main.c: 680: LCD_Write_String("Timer Beep OFF  ");
  4100  011154  0E6A               	movlw	low STR_22
  4101  011156  6E49               	movwf	LCD_Write_String@f,c
  4102  011158  0EFF               	movlw	high STR_22
  4103  01115A  6E4A               	movwf	LCD_Write_String@f+1,c
  4104  01115C  EC31  F095         	call	_LCD_Write_String	;wreg free
  4105  011160                     l930:
  4106                           
  4107                           ;main.c: 681: };main.c: 683: _delay((unsigned long)((1500)*(8000000/4000.0)));
  4108  011160  0E10               	movlw	16
  4109  011162  0100               	movlb	0	; () banked
  4110  011164  6F86               	movwf	(??_main+1)& (0+255),b
  4111  011166  0E39               	movlw	57
  4112  011168  6F85               	movwf	??_main& (0+255),b
  4113  01116A  0E0D               	movlw	13
  4114  01116C                     u9017:
  4115  01116C  2EE8               	decfsz	16360,f,c
  4116  01116E  D7FE               	bra	u9017
  4117  011170  2F85               	decfsz	??_main& (0+255),f,b
  4118  011172  D7FC               	bra	u9017
  4119  011174  2F86               	decfsz	(??_main+1)& (0+255),f,b
  4120  011176  D7FA               	bra	u9017
  4121  011178  D000               	nop2	
  4122                           
  4123                           ;main.c: 684: disarmedPageReset();
  4124  01117A  EC59  F096         	call	_disarmedPageReset	;wreg free
  4125                           
  4126                           ;main.c: 686: };main.c: 687: };main.c: 688: }
  4127                           
  4128                           ;main.c: 685: continue;
  4129  01117E  EF04  F080         	goto	l760
  4130  011182                     l867:
  4131                           
  4132                           ;main.c: 692: else if(status == exploded)
  4133  011182  0100               	movlb	0	; () banked
  4134  011184  5170               	movf	_exploded& (0+255),w,b
  4135  011186  1832               	xorwf	_status,w,c
  4136  011188  E103               	bnz	u8791
  4137  01118A  5171               	movf	(_exploded+1)& (0+255),w,b
  4138  01118C  1833               	xorwf	_status+1,w,c
  4139  01118E  A4D8               	btfss	16344,2,c
  4140  011190                     u8791:
  4141  011190  EF04  F080         	goto	l760
  4142                           
  4143                           ; BSR set to: 0
  4144                           ;main.c: 693: {;main.c: 694: verifyInterfaceOptions();
  4145  011194  EC48  F094         	call	_verifyInterfaceOptions	;wreg free
  4146                           
  4147                           ;main.c: 696: if(keyHeld != 0)
  4148  011198  5039               	movf	_keyHeld,w,c
  4149  01119A  B4D8               	btfsc	16344,2,c
  4150  01119C  EF04  F080         	goto	l760
  4151                           
  4152                           ;main.c: 697: {;main.c: 698: if(keyPressed == '0' && keyHeld == '0')
  4153  0111A0  0E30               	movlw	48
  4154  0111A2  1838               	xorwf	_keyPressed,w,c
  4155  0111A4  A4D8               	btfss	16344,2,c
  4156  0111A6  EF04  F080         	goto	l760
  4157  0111AA  0E30               	movlw	48
  4158  0111AC  1839               	xorwf	_keyHeld,w,c
  4159  0111AE  A4D8               	btfss	16344,2,c
  4160  0111B0  EF04  F080         	goto	l760
  4161                           
  4162                           ;main.c: 699: {;main.c: 700: status = stanby;
  4163  0111B4  0060  F0C0  F032   	movff	_stanby,_status
  4164  0111BA  0060  F0C4  F033   	movff	_stanby+1,_status+1
  4165                           
  4166                           ;main.c: 702: LCD_Set_Cursor(2,1);
  4167  0111C0  0E00               	movlw	0
  4168  0111C2  6E4A               	movwf	LCD_Set_Cursor@c+1,c
  4169  0111C4  0E02               	movlw	2
  4170  0111C6  6E49               	movwf	LCD_Set_Cursor@c,c
  4171  0111C8  0E00               	movlw	0
  4172  0111CA  6E4C               	movwf	LCD_Set_Cursor@d+1,c
  4173  0111CC  0E01               	movlw	1
  4174  0111CE  6E4B               	movwf	LCD_Set_Cursor@d,c
  4175  0111D0  EC3A  F097         	call	_LCD_Set_Cursor	;wreg free
  4176                           
  4177                           ;main.c: 703: LCD_Write_String("RESETTING       ");
  4178  0111D4  0ED1               	movlw	low STR_28
  4179  0111D6  6E49               	movwf	LCD_Write_String@f,c
  4180  0111D8  0EFE               	movlw	high STR_28
  4181  0111DA  6E4A               	movwf	LCD_Write_String@f+1,c
  4182  0111DC  EC31  F095         	call	_LCD_Write_String	;wreg free
  4183                           
  4184                           ;main.c: 704: LCD_Set_Cursor(2,10);
  4185  0111E0  0E00               	movlw	0
  4186  0111E2  6E4A               	movwf	LCD_Set_Cursor@c+1,c
  4187  0111E4  0E02               	movlw	2
  4188  0111E6  6E49               	movwf	LCD_Set_Cursor@c,c
  4189  0111E8  0E00               	movlw	0
  4190  0111EA  6E4C               	movwf	LCD_Set_Cursor@d+1,c
  4191  0111EC  0E0A               	movlw	10
  4192  0111EE  6E4B               	movwf	LCD_Set_Cursor@d,c
  4193  0111F0  EC3A  F097         	call	_LCD_Set_Cursor	;wreg free
  4194                           
  4195                           ;main.c: 705: _delay((unsigned long)((800)*(8000000/4000.0)));
  4196  0111F4  0E09               	movlw	9
  4197  0111F6  0100               	movlb	0	; () banked
  4198  0111F8  6F86               	movwf	(??_main+1)& (0+255),b
  4199  0111FA  0E1E               	movlw	30
  4200  0111FC  6F85               	movwf	??_main& (0+255),b
  4201  0111FE  0EE4               	movlw	228
  4202  011200                     u9027:
  4203  011200  2EE8               	decfsz	16360,f,c
  4204  011202  D7FE               	bra	u9027
  4205  011204  2F85               	decfsz	??_main& (0+255),f,b
  4206  011206  D7FC               	bra	u9027
  4207  011208  2F86               	decfsz	(??_main+1)& (0+255),f,b
  4208  01120A  D7FA               	bra	u9027
  4209  01120C  F000               	nop	
  4210                           
  4211                           ;main.c: 706: LCD_Write_Char('.');
  4212  01120E  0E2E               	movlw	46
  4213  011210  ECB3  F097         	call	_LCD_Write_Char
  4214                           
  4215                           ;main.c: 707: _delay((unsigned long)((800)*(8000000/4000.0)));
  4216  011214  0E09               	movlw	9
  4217  011216  0100               	movlb	0	; () banked
  4218  011218  6F86               	movwf	(??_main+1)& (0+255),b
  4219  01121A  0E1E               	movlw	30
  4220  01121C  6F85               	movwf	??_main& (0+255),b
  4221  01121E  0EE4               	movlw	228
  4222  011220                     u9037:
  4223  011220  2EE8               	decfsz	16360,f,c
  4224  011222  D7FE               	bra	u9037
  4225  011224  2F85               	decfsz	??_main& (0+255),f,b
  4226  011226  D7FC               	bra	u9037
  4227  011228  2F86               	decfsz	(??_main+1)& (0+255),f,b
  4228  01122A  D7FA               	bra	u9037
  4229  01122C  F000               	nop	
  4230                           
  4231                           ;main.c: 708: LCD_Write_Char('.');
  4232  01122E  0E2E               	movlw	46
  4233  011230  ECB3  F097         	call	_LCD_Write_Char
  4234                           
  4235                           ;main.c: 709: _delay((unsigned long)((800)*(8000000/4000.0)));
  4236  011234  0E09               	movlw	9
  4237  011236  0100               	movlb	0	; () banked
  4238  011238  6F86               	movwf	(??_main+1)& (0+255),b
  4239  01123A  0E1E               	movlw	30
  4240  01123C  6F85               	movwf	??_main& (0+255),b
  4241  01123E  0EE4               	movlw	228
  4242  011240                     u9047:
  4243  011240  2EE8               	decfsz	16360,f,c
  4244  011242  D7FE               	bra	u9047
  4245  011244  2F85               	decfsz	??_main& (0+255),f,b
  4246  011246  D7FC               	bra	u9047
  4247  011248  2F86               	decfsz	(??_main+1)& (0+255),f,b
  4248  01124A  D7FA               	bra	u9047
  4249  01124C  F000               	nop	
  4250                           
  4251                           ;main.c: 710: LCD_Write_Char('.');
  4252  01124E  0E2E               	movlw	46
  4253  011250  ECB3  F097         	call	_LCD_Write_Char
  4254                           
  4255                           ;main.c: 711: _delay((unsigned long)((800)*(8000000/4000.0)));
  4256  011254  0E09               	movlw	9
  4257  011256  0100               	movlb	0	; () banked
  4258  011258  6F86               	movwf	(??_main+1)& (0+255),b
  4259  01125A  0E1E               	movlw	30
  4260  01125C  6F85               	movwf	??_main& (0+255),b
  4261  01125E  0EE4               	movlw	228
  4262  011260                     u9057:
  4263  011260  2EE8               	decfsz	16360,f,c
  4264  011262  D7FE               	bra	u9057
  4265  011264  2F85               	decfsz	??_main& (0+255),f,b
  4266  011266  D7FC               	bra	u9057
  4267  011268  2F86               	decfsz	(??_main+1)& (0+255),f,b
  4268  01126A  D7FA               	bra	u9057
  4269  01126C  F000               	nop	
  4270                           
  4271                           ;main.c: 712: countdown_now_reset_to_initial();
  4272  01126E  ECBB  F091         	call	_countdown_now_reset_to_initial	;wreg free
  4273                           
  4274                           ;main.c: 713: countdown_initial_str2num();
  4275  011272  EC3F  F089         	call	_countdown_initial_str2num	;wreg free
  4276                           
  4277                           ;main.c: 714: stanbyPageReset();
  4278  011276  EC38  F096         	call	_stanbyPageReset	;wreg free
  4279                           
  4280                           ;main.c: 724: {
  4281                           
  4282                           ;main.c: 715: continue;
  4283  01127A  EF04  F080         	goto	l760
  4284  01127E                     __end_of_main:
  4285                           	opt stack 0
  4286                           
  4287 ;; *************** function _verifyPassword *****************
  4288 ;; Defined at:
  4289 ;;		line 50 in file "main.c"
  4290 ;; Parameters:    Size  Location     Type
  4291 ;;  user            2   18[COMRAM] PTR unsigned char 
  4292 ;;		 -> userPswdEntry(8), 
  4293 ;;  pass            2   20[COMRAM] PTR unsigned char 
  4294 ;;		 -> password(8), 
  4295 ;; Auto vars:     Size  Location     Type
  4296 ;;		None
  4297 ;; Return value:  Size  Location     Type
  4298 ;;                  2   18[COMRAM] int 
  4299 ;; Registers used:
  4300 ;;		wreg, fsr2l, fsr2h, status,2, status,0, cstack
  4301 ;; Tracked objects:
  4302 ;;		On entry : 0/0
  4303 ;;		On exit  : 0/0
  4304 ;;		Unchanged: 0/0
  4305 ;; Data sizes:     COMRAM   BANK0   BANK1   BANK2   BANK3   BANK4   BANK5   BANK6   BANK7   BANK8   BANK9  BANK10  BANK1
      +1  BANK12  BANK13  BANK14  BANK15  BANK16  BANK17  BANK18  BANK19  BANK20  BANK21  BANK22  BANK23  BANK24  BANK25  BANK2
      +6  BANK27  BANK28  BANK29  BANK30  BANK31
  4306 ;;      Params:         4       0       0       0       0       0       0       0       0       0       0       0       
      +0       0       0       0       0       0       0       0       0       0       0       0       0       0       0       
      +0       0       0       0       0       0
  4307 ;;      Locals:         0       0       0       0       0       0       0       0       0       0       0       0       
      +0       0       0       0       0       0       0       0       0       0       0       0       0       0       0       
      +0       0       0       0       0       0
  4308 ;;      Temps:          0       0       0       0       0       0       0       0       0       0       0       0       
      +0       0       0       0       0       0       0       0       0       0       0       0       0       0       0       
      +0       0       0       0       0       0
  4309 ;;      Totals:         4       0       0       0       0       0       0       0       0       0       0       0       
      +0       0       0       0       0       0       0       0       0       0       0       0       0       0       0       
      +0       0       0       0       0       0
  4310 ;;Total ram usage:        4 bytes
  4311 ;; Hardware stack levels used:    1
  4312 ;; Hardware stack levels required when called:    6
  4313 ;; This function calls:
  4314 ;;		_strcmp
  4315 ;; This function is called by:
  4316 ;;		_main
  4317 ;; This function uses a non-reentrant model
  4318 ;;
  4319                           
  4320                           	psect	text1
  4321  012DA4                     __ptext1:
  4322                           	opt stack 0
  4323  012DA4                     _verifyPassword:
  4324                           	opt stack 24
  4325                           
  4326                           ;main.c: 52: if (strcmp(user, pass) == 0){return 1;}
  4327                           
  4328                           ;incstack = 0
  4329  012DA4  0060  F138  F048   	movff	verifyPassword@user,strcmp@s1
  4330  012DAA  0060  F13C  F049   	movff	verifyPassword@user+1,strcmp@s1+1
  4331  012DB0  0060  F140  F04A   	movff	verifyPassword@pass,strcmp@s2
  4332  012DB6  0060  F144  F04B   	movff	verifyPassword@pass+1,strcmp@s2+1
  4333  012DBC  EC08  F095         	call	_strcmp	;wreg free
  4334  012DC0  5048               	movf	?_strcmp,w,c
  4335  012DC2  1049               	iorwf	?_strcmp+1,w,c
  4336  012DC4  A4D8               	btfss	16344,2,c
  4337  012DC6  D005               	goto	l735
  4338  012DC8  0E00               	movlw	0
  4339  012DCA  6E4F               	movwf	?_verifyPassword+1,c
  4340  012DCC  0E01               	movlw	1
  4341  012DCE  6E4E               	movwf	?_verifyPassword,c
  4342  012DD0  0012               	return	
  4343  012DD2                     l735:
  4344                           
  4345                           ;main.c: 53: else {return 0;}
  4346  012DD2  0E00               	movlw	0
  4347  012DD4  6E4F               	movwf	?_verifyPassword+1,c
  4348  012DD6  0E00               	movlw	0
  4349  012DD8  6E4E               	movwf	?_verifyPassword,c
  4350  012DDA  0012               	return	
  4351  012DDC                     __end_of_verifyPassword:
  4352                           	opt stack 0
  4353                           
  4354 ;; *************** function _strcmp *****************
  4355 ;; Defined at:
  4356 ;;		line 33 in file "C:\Program Files (x86)\Microchip\xc8\v2.00\pic\sources\c90\common\strcmp.c"
  4357 ;; Parameters:    Size  Location     Type
  4358 ;;  s1              2   12[COMRAM] PTR const unsigned char 
  4359 ;;		 -> userPswdEntry(8), 
  4360 ;;  s2              2   14[COMRAM] PTR const unsigned char 
  4361 ;;		 -> password(8), 
  4362 ;; Auto vars:     Size  Location     Type
  4363 ;;  r               1   17[COMRAM] char 
  4364 ;; Return value:  Size  Location     Type
  4365 ;;                  2   12[COMRAM] int 
  4366 ;; Registers used:
  4367 ;;		wreg, fsr2l, fsr2h, status,2, status,0
  4368 ;; Tracked objects:
  4369 ;;		On entry : 0/0
  4370 ;;		On exit  : 0/0
  4371 ;;		Unchanged: 0/0
  4372 ;; Data sizes:     COMRAM   BANK0   BANK1   BANK2   BANK3   BANK4   BANK5   BANK6   BANK7   BANK8   BANK9  BANK10  BANK1
      +1  BANK12  BANK13  BANK14  BANK15  BANK16  BANK17  BANK18  BANK19  BANK20  BANK21  BANK22  BANK23  BANK24  BANK25  BANK2
      +6  BANK27  BANK28  BANK29  BANK30  BANK31
  4373 ;;      Params:         4       0       0       0       0       0       0       0       0       0       0       0       
      +0       0       0       0       0       0       0       0       0       0       0       0       0       0       0       
      +0       0       0       0       0       0
  4374 ;;      Locals:         1       0       0       0       0       0       0       0       0       0       0       0       
      +0       0       0       0       0       0       0       0       0       0       0       0       0       0       0       
      +0       0       0       0       0       0
  4375 ;;      Temps:          1       0       0       0       0       0       0       0       0       0       0       0       
      +0       0       0       0       0       0       0       0       0       0       0       0       0       0       0       
      +0       0       0       0       0       0
  4376 ;;      Totals:         6       0       0       0       0       0       0       0       0       0       0       0       
      +0       0       0       0       0       0       0       0       0       0       0       0       0       0       0       
      +0       0       0       0       0       0
  4377 ;;Total ram usage:        6 bytes
  4378 ;; Hardware stack levels used:    1
  4379 ;; Hardware stack levels required when called:    5
  4380 ;; This function calls:
  4381 ;;		Nothing
  4382 ;; This function is called by:
  4383 ;;		_verifyPassword
  4384 ;; This function uses a non-reentrant model
  4385 ;;
  4386                           
  4387                           	psect	text2
  4388  012A10                     __ptext2:
  4389                           	opt stack 0
  4390  012A10                     _strcmp:
  4391                           	opt stack 24
  4392                           
  4393                           ;incstack = 0
  4394  012A10  D004               	goto	l1809
  4395  012A12  4A48               	infsnz	strcmp@s1,f,c
  4396  012A14  2A49               	incf	strcmp@s1+1,f,c
  4397  012A16  4A4A               	infsnz	strcmp@s2,f,c
  4398  012A18  2A4B               	incf	strcmp@s2+1,f,c
  4399  012A1A                     l1809:
  4400  012A1A  0060  F123  FFD9   	movff	strcmp@s1,16345
  4401  012A20  0060  F127  FFDA   	movff	strcmp@s1+1,16346
  4402  012A26  50DF               	movf	16351,w,c
  4403  012A28  6E4C               	movwf	??_strcmp& (0+255),c
  4404  012A2A  0060  F12B  FFD9   	movff	strcmp@s2,16345
  4405  012A30  0060  F12F  FFDA   	movff	strcmp@s2+1,16346
  4406  012A36  50DF               	movf	16351,w,c
  4407  012A38  0800               	sublw	0
  4408  012A3A  244C               	addwf	??_strcmp,w,c
  4409  012A3C  6E4D               	movwf	strcmp@r,c
  4410  012A3E  504D               	movf	strcmp@r,w,c
  4411  012A40  A4D8               	btfss	16344,2,c
  4412  012A42  D009               	goto	u6530
  4413  012A44  0060  F123  FFD9   	movff	strcmp@s1,16345
  4414  012A4A  0060  F127  FFDA   	movff	strcmp@s1+1,16346
  4415  012A50  50DF               	movf	16351,w,c
  4416  012A52  A4D8               	btfss	16344,2,c
  4417  012A54  D7DE               	goto	l1810
  4418  012A56                     u6530:
  4419  012A56  504D               	movf	strcmp@r,w,c
  4420  012A58  6E48               	movwf	?_strcmp,c
  4421  012A5A  6A49               	clrf	?_strcmp+1,c
  4422  012A5C  BE48               	btfsc	?_strcmp,7,c
  4423  012A5E  0649               	decf	?_strcmp+1,f,c
  4424  012A60  0012               	return	
  4425  012A62                     __end_of_strcmp:
  4426                           	opt stack 0
  4427                           
  4428 ;; *************** function _verifyInterfaceOptions *****************
  4429 ;; Defined at:
  4430 ;;		line 88 in file "main.c"
  4431 ;; Parameters:    Size  Location     Type
  4432 ;;		None
  4433 ;; Auto vars:     Size  Location     Type
  4434 ;;		None
  4435 ;; Return value:  Size  Location     Type
  4436 ;;                  1    wreg      void 
  4437 ;; Registers used:
  4438 ;;		wreg, status,2, status,0, cstack
  4439 ;; Tracked objects:
  4440 ;;		On entry : 0/0
  4441 ;;		On exit  : 0/0
  4442 ;;		Unchanged: 0/0
  4443 ;; Data sizes:     COMRAM   BANK0   BANK1   BANK2   BANK3   BANK4   BANK5   BANK6   BANK7   BANK8   BANK9  BANK10  BANK1
      +1  BANK12  BANK13  BANK14  BANK15  BANK16  BANK17  BANK18  BANK19  BANK20  BANK21  BANK22  BANK23  BANK24  BANK25  BANK2
      +6  BANK27  BANK28  BANK29  BANK30  BANK31
  4444 ;;      Params:         0       0       0       0       0       0       0       0       0       0       0       0       
      +0       0       0       0       0       0       0       0       0       0       0       0       0       0       0       
      +0       0       0       0       0       0
  4445 ;;      Locals:         0       0       0       0       0       0       0       0       0       0       0       0       
      +0       0       0       0       0       0       0       0       0       0       0       0       0       0       0       
      +0       0       0       0       0       0
  4446 ;;      Temps:          0       0       0       0       0       0       0       0       0       0       0       0       
      +0       0       0       0       0       0       0       0       0       0       0       0       0       0       0       
      +0       0       0       0       0       0
  4447 ;;      Totals:         0       0       0       0       0       0       0       0       0       0       0       0       
      +0       0       0       0       0       0       0       0       0       0       0       0       0       0       0       
      +0       0       0       0       0       0
  4448 ;;Total ram usage:        0 bytes
  4449 ;; Hardware stack levels used:    1
  4450 ;; Hardware stack levels required when called:    7
  4451 ;; This function calls:
  4452 ;;		_LCD_Cursor_Blink_Off
  4453 ;;		_LCD_Cursor_Blink_On
  4454 ;; This function is called by:
  4455 ;;		_main
  4456 ;; This function uses a non-reentrant model
  4457 ;;
  4458                           
  4459                           	psect	text3
  4460  012890                     __ptext3:
  4461                           	opt stack 0
  4462  012890                     _verifyInterfaceOptions:
  4463                           	opt stack 23
  4464                           
  4465                           ;main.c: 90: if (keyBeepsMem == ON && status != armed){keyBeeps = ON;}
  4466                           
  4467                           ;incstack = 0
  4468  012890  501B               	movf	_ON,w,c
  4469  012892  0100               	movlb	0	; () banked
  4470  012894  198D               	xorwf	_keyBeepsMem& (0+255),w,b
  4471  012896  E112               	bnz	l749
  4472  012898  501C               	movf	_ON+1,w,c
  4473  01289A  198E               	xorwf	(_keyBeepsMem+1)& (0+255),w,b
  4474  01289C  A4D8               	btfss	16344,2,c
  4475  01289E  D00E               	goto	l749
  4476                           
  4477                           ; BSR set to: 0
  4478  0128A0  5021               	movf	_armed,w,c
  4479  0128A2  1832               	xorwf	_status,w,c
  4480  0128A4  E104               	bnz	u7160
  4481  0128A6  5022               	movf	_armed+1,w,c
  4482  0128A8  1833               	xorwf	_status+1,w,c
  4483  0128AA  B4D8               	btfsc	16344,2,c
  4484  0128AC  D007               	goto	l749
  4485  0128AE                     u7160:
  4486                           
  4487                           ; BSR set to: 0
  4488  0128AE  0060  F06C  F02E   	movff	_ON,_keyBeeps
  4489  0128B4  0060  F070  F02F   	movff	_ON+1,_keyBeeps+1
  4490  0128BA  D006               	goto	l750
  4491  0128BC                     l749:
  4492                           
  4493                           ; BSR set to: 0
  4494                           ;main.c: 91: else {keyBeeps = OFF;}
  4495  0128BC  0060  F0A8  F02E   	movff	_OFF,_keyBeeps
  4496  0128C2  0060  F0AC  F02F   	movff	_OFF+1,_keyBeeps+1
  4497  0128C8                     l750:
  4498                           
  4499                           ; BSR set to: 0
  4500                           ;main.c: 92: if (countdownBeepsMem == ON){countdownBeeps = ON;}
  4501                           
  4502                           ; BSR set to: 0
  4503  0128C8  501B               	movf	_ON,w,c
  4504  0128CA  181D               	xorwf	_countdownBeepsMem,w,c
  4505  0128CC  E10B               	bnz	l751
  4506  0128CE  501C               	movf	_ON+1,w,c
  4507  0128D0  181E               	xorwf	_countdownBeepsMem+1,w,c
  4508  0128D2  A4D8               	btfss	16344,2,c
  4509  0128D4  D007               	goto	l751
  4510                           
  4511                           ; BSR set to: 0
  4512  0128D6  0060  F06C  F01F   	movff	_ON,_countdownBeeps
  4513  0128DC  0060  F070  F020   	movff	_ON+1,_countdownBeeps+1
  4514  0128E2  D006               	goto	l752
  4515  0128E4                     l751:
  4516                           
  4517                           ; BSR set to: 0
  4518                           ;main.c: 93: else {countdownBeeps = OFF;}
  4519  0128E4  0060  F0A8  F01F   	movff	_OFF,_countdownBeeps
  4520  0128EA  0060  F0AC  F020   	movff	_OFF+1,_countdownBeeps+1
  4521  0128F0                     l752:
  4522                           
  4523                           ; BSR set to: 0
  4524                           ;main.c: 94: if (cursorBlinkMem == ON && status != armed){LCD_Cursor_Blink_On();}
  4525                           
  4526                           ; BSR set to: 0
  4527  0128F0  501B               	movf	_ON,w,c
  4528  0128F2  182C               	xorwf	_cursorBlinkMem,w,c
  4529  0128F4  E10E               	bnz	l6476
  4530  0128F6  501C               	movf	_ON+1,w,c
  4531  0128F8  182D               	xorwf	_cursorBlinkMem+1,w,c
  4532  0128FA  A4D8               	btfss	16344,2,c
  4533  0128FC  D00A               	goto	l753
  4534                           
  4535                           ; BSR set to: 0
  4536  0128FE  5021               	movf	_armed,w,c
  4537  012900  1832               	xorwf	_status,w,c
  4538  012902  E104               	bnz	u7190
  4539  012904  5022               	movf	_armed+1,w,c
  4540  012906  1833               	xorwf	_status+1,w,c
  4541  012908  B4D8               	btfsc	16344,2,c
  4542  01290A  D003               	goto	l753
  4543  01290C                     u7190:
  4544                           
  4545                           ; BSR set to: 0
  4546  01290C  ECA9  F098         	call	_LCD_Cursor_Blink_On	;wreg free
  4547  012910  0012               	return	
  4548  012912                     l753:
  4549  012912                     l6476:
  4550                           
  4551                           ;main.c: 95: else {LCD_Cursor_Blink_Off();}
  4552  012912  ECAD  F098         	call	_LCD_Cursor_Blink_Off	;wreg free
  4553  012916  0012               	return	
  4554  012918                     __end_of_verifyInterfaceOptions:
  4555                           	opt stack 0
  4556                           
  4557 ;; *************** function _LCD_Cursor_Blink_On *****************
  4558 ;; Defined at:
  4559 ;;		line 96 in file "lcd.c"
  4560 ;; Parameters:    Size  Location     Type
  4561 ;;		None
  4562 ;; Auto vars:     Size  Location     Type
  4563 ;;		None
  4564 ;; Return value:  Size  Location     Type
  4565 ;;                  1    wreg      void 
  4566 ;; Registers used:
  4567 ;;		wreg, status,2, cstack
  4568 ;; Tracked objects:
  4569 ;;		On entry : 0/0
  4570 ;;		On exit  : 0/0
  4571 ;;		Unchanged: 0/0
  4572 ;; Data sizes:     COMRAM   BANK0   BANK1   BANK2   BANK3   BANK4   BANK5   BANK6   BANK7   BANK8   BANK9  BANK10  BANK1
      +1  BANK12  BANK13  BANK14  BANK15  BANK16  BANK17  BANK18  BANK19  BANK20  BANK21  BANK22  BANK23  BANK24  BANK25  BANK2
      +6  BANK27  BANK28  BANK29  BANK30  BANK31
  4573 ;;      Params:         0       0       0       0       0       0       0       0       0       0       0       0       
      +0       0       0       0       0       0       0       0       0       0       0       0       0       0       0       
      +0       0       0       0       0       0
  4574 ;;      Locals:         0       0       0       0       0       0       0       0       0       0       0       0       
      +0       0       0       0       0       0       0       0       0       0       0       0       0       0       0       
      +0       0       0       0       0       0
  4575 ;;      Temps:          0       0       0       0       0       0       0       0       0       0       0       0       
      +0       0       0       0       0       0       0       0       0       0       0       0       0       0       0       
      +0       0       0       0       0       0
  4576 ;;      Totals:         0       0       0       0       0       0       0       0       0       0       0       0       
      +0       0       0       0       0       0       0       0       0       0       0       0       0       0       0       
      +0       0       0       0       0       0
  4577 ;;Total ram usage:        0 bytes
  4578 ;; Hardware stack levels used:    1
  4579 ;; Hardware stack levels required when called:    6
  4580 ;; This function calls:
  4581 ;;		_LCD_Cmd
  4582 ;; This function is called by:
  4583 ;;		_verifyInterfaceOptions
  4584 ;;		_main
  4585 ;; This function uses a non-reentrant model
  4586 ;;
  4587                           
  4588                           	psect	text4
  4589  013152                     __ptext4:
  4590                           	opt stack 0
  4591  013152                     _LCD_Cursor_Blink_On:
  4592                           	opt stack 23
  4593                           
  4594                           ;lcd.c: 98: LCD_Cmd(0x0F);
  4595                           
  4596                           ;incstack = 0
  4597  013152  0E0F               	movlw	15
  4598  013154  EC22  F098         	call	_LCD_Cmd
  4599  013158  0012               	return		;funcret
  4600  01315A                     __end_of_LCD_Cursor_Blink_On:
  4601                           	opt stack 0
  4602                           
  4603 ;; *************** function _stanbyPageReset *****************
  4604 ;; Defined at:
  4605 ;;		line 56 in file "main.c"
  4606 ;; Parameters:    Size  Location     Type
  4607 ;;		None
  4608 ;; Auto vars:     Size  Location     Type
  4609 ;;		None
  4610 ;; Return value:  Size  Location     Type
  4611 ;;                  1    wreg      void 
  4612 ;; Registers used:
  4613 ;;		wreg, fsr2l, fsr2h, status,2, status,0, tblptrl, tblptrh, tblptru, cstack
  4614 ;; Tracked objects:
  4615 ;;		On entry : 0/0
  4616 ;;		On exit  : 0/0
  4617 ;;		Unchanged: 0/0
  4618 ;; Data sizes:     COMRAM   BANK0   BANK1   BANK2   BANK3   BANK4   BANK5   BANK6   BANK7   BANK8   BANK9  BANK10  BANK1
      +1  BANK12  BANK13  BANK14  BANK15  BANK16  BANK17  BANK18  BANK19  BANK20  BANK21  BANK22  BANK23  BANK24  BANK25  BANK2
      +6  BANK27  BANK28  BANK29  BANK30  BANK31
  4619 ;;      Params:         0       0       0       0       0       0       0       0       0       0       0       0       
      +0       0       0       0       0       0       0       0       0       0       0       0       0       0       0       
      +0       0       0       0       0       0
  4620 ;;      Locals:         0       0       0       0       0       0       0       0       0       0       0       0       
      +0       0       0       0       0       0       0       0       0       0       0       0       0       0       0       
      +0       0       0       0       0       0
  4621 ;;      Temps:          0       0       0       0       0       0       0       0       0       0       0       0       
      +0       0       0       0       0       0       0       0       0       0       0       0       0       0       0       
      +0       0       0       0       0       0
  4622 ;;      Totals:         0       0       0       0       0       0       0       0       0       0       0       0       
      +0       0       0       0       0       0       0       0       0       0       0       0       0       0       0       
      +0       0       0       0       0       0
  4623 ;;Total ram usage:        0 bytes
  4624 ;; Hardware stack levels used:    1
  4625 ;; Hardware stack levels required when called:    8
  4626 ;; This function calls:
  4627 ;;		_LCD_Clear
  4628 ;;		_LCD_Set_Cursor
  4629 ;;		_LCD_Write_String
  4630 ;;		_LCD_printNowCountdown
  4631 ;;		_LCD_resetPasswordEntry
  4632 ;;		_resetEntry
  4633 ;; This function is called by:
  4634 ;;		_main
  4635 ;; This function uses a non-reentrant model
  4636 ;;
  4637                           
  4638                           	psect	text5
  4639  012C70                     __ptext5:
  4640                           	opt stack 0
  4641  012C70                     _stanbyPageReset:
  4642                           	opt stack 22
  4643                           
  4644                           ;main.c: 58: keyIterrator = 0;
  4645                           
  4646                           ;incstack = 0
  4647  012C70  0E00               	movlw	0
  4648  012C72  6E37               	movwf	_keyIterrator+1,c
  4649  012C74  0E00               	movlw	0
  4650  012C76  6E36               	movwf	_keyIterrator,c
  4651                           
  4652                           ;main.c: 59: resetEntry(userPswdEntry);
  4653  012C78  0E93               	movlw	low _userPswdEntry
  4654  012C7A  6E4E               	movwf	resetEntry@str,c
  4655  012C7C  0E00               	movlw	high _userPswdEntry
  4656  012C7E  6E4F               	movwf	resetEntry@str+1,c
  4657  012C80  EC7A  F096         	call	_resetEntry	;wreg free
  4658                           
  4659                           ;main.c: 61: LCD_Clear();
  4660  012C84  ECE5  F097         	call	_LCD_Clear	;wreg free
  4661                           
  4662                           ;main.c: 62: LCD_Set_Cursor(1,1);
  4663  012C88  0E00               	movlw	0
  4664  012C8A  6E4A               	movwf	LCD_Set_Cursor@c+1,c
  4665  012C8C  0E01               	movlw	1
  4666  012C8E  6E49               	movwf	LCD_Set_Cursor@c,c
  4667  012C90  0E00               	movlw	0
  4668  012C92  6E4C               	movwf	LCD_Set_Cursor@d+1,c
  4669  012C94  0E01               	movlw	1
  4670  012C96  6E4B               	movwf	LCD_Set_Cursor@d,c
  4671  012C98  EC3A  F097         	call	_LCD_Set_Cursor	;wreg free
  4672                           
  4673                           ;main.c: 63: LCD_Write_String("STANBY  ");
  4674  012C9C  0ED5               	movlw	low STR_10
  4675  012C9E  6E49               	movwf	LCD_Write_String@f,c
  4676  012CA0  0EFF               	movlw	high STR_10
  4677  012CA2  6E4A               	movwf	LCD_Write_String@f+1,c
  4678  012CA4  EC31  F095         	call	_LCD_Write_String	;wreg free
  4679                           
  4680                           ;main.c: 64: LCD_printNowCountdown();
  4681  012CA8  EC83  F095         	call	_LCD_printNowCountdown	;wreg free
  4682                           
  4683                           ;main.c: 65: LCD_resetPasswordEntry();
  4684  012CAC  ECEE  F096         	call	_LCD_resetPasswordEntry	;wreg free
  4685  012CB0  0012               	return		;funcret
  4686  012CB2                     __end_of_stanbyPageReset:
  4687                           	opt stack 0
  4688                           
  4689 ;; *************** function _setup *****************
  4690 ;; Defined at:
  4691 ;;		line 20 in file "main.c"
  4692 ;; Parameters:    Size  Location     Type
  4693 ;;		None
  4694 ;; Auto vars:     Size  Location     Type
  4695 ;;		None
  4696 ;; Return value:  Size  Location     Type
  4697 ;;                  1    wreg      void 
  4698 ;; Registers used:
  4699 ;;		wreg, status,2, status,0, cstack
  4700 ;; Tracked objects:
  4701 ;;		On entry : 0/0
  4702 ;;		On exit  : 0/0
  4703 ;;		Unchanged: 0/0
  4704 ;; Data sizes:     COMRAM   BANK0   BANK1   BANK2   BANK3   BANK4   BANK5   BANK6   BANK7   BANK8   BANK9  BANK10  BANK1
      +1  BANK12  BANK13  BANK14  BANK15  BANK16  BANK17  BANK18  BANK19  BANK20  BANK21  BANK22  BANK23  BANK24  BANK25  BANK2
      +6  BANK27  BANK28  BANK29  BANK30  BANK31
  4705 ;;      Params:         0       0       0       0       0       0       0       0       0       0       0       0       
      +0       0       0       0       0       0       0       0       0       0       0       0       0       0       0       
      +0       0       0       0       0       0
  4706 ;;      Locals:         0       0       0       0       0       0       0       0       0       0       0       0       
      +0       0       0       0       0       0       0       0       0       0       0       0       0       0       0       
      +0       0       0       0       0       0
  4707 ;;      Temps:          0       0       0       0       0       0       0       0       0       0       0       0       
      +0       0       0       0       0       0       0       0       0       0       0       0       0       0       0       
      +0       0       0       0       0       0
  4708 ;;      Totals:         0       0       0       0       0       0       0       0       0       0       0       0       
      +0       0       0       0       0       0       0       0       0       0       0       0       0       0       0       
      +0       0       0       0       0       0
  4709 ;;Total ram usage:        0 bytes
  4710 ;; Hardware stack levels used:    1
  4711 ;; Hardware stack levels required when called:    7
  4712 ;; This function calls:
  4713 ;;		_BEEPER_Initialize
  4714 ;;		_COUNTDOWN_Initialize
  4715 ;;		_KEYPAD_Initialize
  4716 ;;		_LCD_Initialize
  4717 ;;		_SYSTEM_Initialize
  4718 ;;		_UART1_Initialize
  4719 ;;		_serialSend
  4720 ;; This function is called by:
  4721 ;;		_main
  4722 ;; This function uses a non-reentrant model
  4723 ;;
  4724                           
  4725                           	psect	text6
  4726  012FAA                     __ptext6:
  4727                           	opt stack 0
  4728  012FAA                     _setup:
  4729                           	opt stack 23
  4730                           
  4731                           ;main.c: 22: UART1_Initialize();
  4732                           
  4733                           ;incstack = 0
  4734  012FAA  EC68  F097         	call	_UART1_Initialize	;wreg free
  4735                           
  4736                           ;main.c: 23: SYSTEM_Initialize();
  4737  012FAE  EC3E  F098         	call	_SYSTEM_Initialize	;wreg free
  4738                           
  4739                           ;main.c: 24: BEEPER_Initialize();
  4740  012FB2  ECF2  F095         	call	_BEEPER_Initialize	;wreg free
  4741                           
  4742                           ;main.c: 25: KEYPAD_Initialize();
  4743  012FB6  EC05  F098         	call	_KEYPAD_Initialize	;wreg free
  4744                           
  4745                           ;main.c: 26: COUNTDOWN_Initialize();
  4746  012FBA  ECA2  F097         	call	_COUNTDOWN_Initialize	;wreg free
  4747                           
  4748                           ;main.c: 27: LCD_Initialize();
  4749  012FBE  EC8C  F094         	call	_LCD_Initialize	;wreg free
  4750                           
  4751                           ;main.c: 28: serialSend(0xAA);
  4752  012FC2  0EAA               	movlw	170
  4753  012FC4  ECA4  F098         	call	_serialSend
  4754  012FC8  0012               	return		;funcret
  4755  012FCA                     __end_of_setup:
  4756                           	opt stack 0
  4757                           
  4758 ;; *************** function _serialSend *****************
  4759 ;; Defined at:
  4760 ;;		line 31 in file "UART.c"
  4761 ;; Parameters:    Size  Location     Type
  4762 ;;  word            1    wreg     unsigned char 
  4763 ;; Auto vars:     Size  Location     Type
  4764 ;;  word            1   12[COMRAM] unsigned char 
  4765 ;; Return value:  Size  Location     Type
  4766 ;;                  1    wreg      void 
  4767 ;; Registers used:
  4768 ;;		wreg
  4769 ;; Tracked objects:
  4770 ;;		On entry : 0/0
  4771 ;;		On exit  : 0/0
  4772 ;;		Unchanged: 0/0
  4773 ;; Data sizes:     COMRAM   BANK0   BANK1   BANK2   BANK3   BANK4   BANK5   BANK6   BANK7   BANK8   BANK9  BANK10  BANK1
      +1  BANK12  BANK13  BANK14  BANK15  BANK16  BANK17  BANK18  BANK19  BANK20  BANK21  BANK22  BANK23  BANK24  BANK25  BANK2
      +6  BANK27  BANK28  BANK29  BANK30  BANK31
  4774 ;;      Params:         0       0       0       0       0       0       0       0       0       0       0       0       
      +0       0       0       0       0       0       0       0       0       0       0       0       0       0       0       
      +0       0       0       0       0       0
  4775 ;;      Locals:         1       0       0       0       0       0       0       0       0       0       0       0       
      +0       0       0       0       0       0       0       0       0       0       0       0       0       0       0       
      +0       0       0       0       0       0
  4776 ;;      Temps:          0       0       0       0       0       0       0       0       0       0       0       0       
      +0       0       0       0       0       0       0       0       0       0       0       0       0       0       0       
      +0       0       0       0       0       0
  4777 ;;      Totals:         1       0       0       0       0       0       0       0       0       0       0       0       
      +0       0       0       0       0       0       0       0       0       0       0       0       0       0       0       
      +0       0       0       0       0       0
  4778 ;;Total ram usage:        1 bytes
  4779 ;; Hardware stack levels used:    1
  4780 ;; Hardware stack levels required when called:    5
  4781 ;; This function calls:
  4782 ;;		Nothing
  4783 ;; This function is called by:
  4784 ;;		_setup
  4785 ;;		_main
  4786 ;;		_serialPrint
  4787 ;; This function uses a non-reentrant model
  4788 ;;
  4789                           
  4790                           	psect	text7
  4791  013148                     __ptext7:
  4792                           	opt stack 0
  4793  013148                     _serialSend:
  4794                           	opt stack 24
  4795                           
  4796                           ;incstack = 0
  4797                           ;serialSend@word stored from wreg
  4798  013148  6E48               	movwf	serialSend@word,c
  4799                           
  4800                           ;UART.c: 33: U1TXB = word;
  4801  01314A  0060  F123  FDEA   	movff	serialSend@word,15850	;volatile
  4802  013150  0012               	return		;funcret
  4803  013152                     __end_of_serialSend:
  4804                           	opt stack 0
  4805                           
  4806 ;; *************** function _UART1_Initialize *****************
  4807 ;; Defined at:
  4808 ;;		line 8 in file "UART.c"
  4809 ;; Parameters:    Size  Location     Type
  4810 ;;		None
  4811 ;; Auto vars:     Size  Location     Type
  4812 ;;		None
  4813 ;; Return value:  Size  Location     Type
  4814 ;;                  1    wreg      void 
  4815 ;; Registers used:
  4816 ;;		wreg, status,2
  4817 ;; Tracked objects:
  4818 ;;		On entry : 0/0
  4819 ;;		On exit  : 0/0
  4820 ;;		Unchanged: 0/0
  4821 ;; Data sizes:     COMRAM   BANK0   BANK1   BANK2   BANK3   BANK4   BANK5   BANK6   BANK7   BANK8   BANK9  BANK10  BANK1
      +1  BANK12  BANK13  BANK14  BANK15  BANK16  BANK17  BANK18  BANK19  BANK20  BANK21  BANK22  BANK23  BANK24  BANK25  BANK2
      +6  BANK27  BANK28  BANK29  BANK30  BANK31
  4822 ;;      Params:         0       0       0       0       0       0       0       0       0       0       0       0       
      +0       0       0       0       0       0       0       0       0       0       0       0       0       0       0       
      +0       0       0       0       0       0
  4823 ;;      Locals:         0       0       0       0       0       0       0       0       0       0       0       0       
      +0       0       0       0       0       0       0       0       0       0       0       0       0       0       0       
      +0       0       0       0       0       0
  4824 ;;      Temps:          0       0       0       0       0       0       0       0       0       0       0       0       
      +0       0       0       0       0       0       0       0       0       0       0       0       0       0       0       
      +0       0       0       0       0       0
  4825 ;;      Totals:         0       0       0       0       0       0       0       0       0       0       0       0       
      +0       0       0       0       0       0       0       0       0       0       0       0       0       0       0       
      +0       0       0       0       0       0
  4826 ;;Total ram usage:        0 bytes
  4827 ;; Hardware stack levels used:    1
  4828 ;; Hardware stack levels required when called:    5
  4829 ;; This function calls:
  4830 ;;		Nothing
  4831 ;; This function is called by:
  4832 ;;		_setup
  4833 ;; This function uses a non-reentrant model
  4834 ;;
  4835                           
  4836                           	psect	text8
  4837  012ED0                     __ptext8:
  4838                           	opt stack 0
  4839  012ED0                     _UART1_Initialize:
  4840                           	opt stack 24
  4841                           
  4842                           ;UART.c: 11: U1CON0bits.BRGS = 0;
  4843                           
  4844                           ;incstack = 0
  4845  012ED0  013D               	movlb	61	; () banked
  4846  012ED2  9FF2               	bcf	242,7,b	;volatile
  4847                           
  4848                           ;UART.c: 12: U1CON0bits.ABDEN = 0;
  4849  012ED4  9DF2               	bcf	242,6,b	;volatile
  4850                           
  4851                           ;UART.c: 13: U1CON0bits.TXEN = 1;
  4852  012ED6  8BF2               	bsf	242,5,b	;volatile
  4853                           
  4854                           ;UART.c: 14: U1CON0bits.MODE = 0b0000;
  4855  012ED8  91F2               	bcf	242,0,b	;volatile
  4856  012EDA  93F2               	bcf	242,1,b	;volatile
  4857  012EDC  95F2               	bcf	242,2,b	;volatile
  4858  012EDE  97F2               	bcf	242,3,b	;volatile
  4859                           
  4860                           ;UART.c: 16: U1CON1bits.ON = 1;
  4861  012EE0  8FF3               	bsf	243,7,b	;volatile
  4862                           
  4863                           ; BSR set to: 61
  4864                           ;UART.c: 20: U1BRGH = 0b0000;
  4865  012EE2  0E00               	movlw	0
  4866  012EE4  6FF6               	movwf	246,b	;volatile
  4867                           
  4868                           ;UART.c: 21: U1BRGL = 0b0011;
  4869  012EE6  0E03               	movlw	3
  4870  012EE8  6FF5               	movwf	245,b	;volatile
  4871                           
  4872                           ;UART.c: 23: U1RXPPS = 0b010000;
  4873  012EEA  0E10               	movlw	16
  4874  012EEC  013A               	movlb	58	; () banked
  4875  012EEE  6FE5               	movwf	229,b	;volatile
  4876                           
  4877                           ;UART.c: 24: RC1PPS = 0b010011;
  4878  012EF0  0E13               	movlw	19
  4879  012EF2  6F11               	movwf	17,b	;volatile
  4880                           
  4881                           ; BSR set to: 58
  4882                           ;UART.c: 26: TRISCbits.TRISC1 = 0;
  4883  012EF4  013F               	movlb	63	; () banked
  4884  012EF6  93C4               	bcf	196,1,b	;volatile
  4885                           
  4886                           ; BSR set to: 63
  4887                           ;UART.c: 27: TRISCbits.TRISC0 = 1;
  4888  012EF8  81C4               	bsf	196,0,b	;volatile
  4889                           
  4890                           ; BSR set to: 63
  4891  012EFA  0012               	return		;funcret
  4892  012EFC                     __end_of_UART1_Initialize:
  4893                           	opt stack 0
  4894                           
  4895 ;; *************** function _SYSTEM_Initialize *****************
  4896 ;; Defined at:
  4897 ;;		line 7 in file "mcc.c"
  4898 ;; Parameters:    Size  Location     Type
  4899 ;;		None
  4900 ;; Auto vars:     Size  Location     Type
  4901 ;;		None
  4902 ;; Return value:  Size  Location     Type
  4903 ;;                  1    wreg      void 
  4904 ;; Registers used:
  4905 ;;		wreg, status,2, cstack
  4906 ;; Tracked objects:
  4907 ;;		On entry : 0/0
  4908 ;;		On exit  : 0/0
  4909 ;;		Unchanged: 0/0
  4910 ;; Data sizes:     COMRAM   BANK0   BANK1   BANK2   BANK3   BANK4   BANK5   BANK6   BANK7   BANK8   BANK9  BANK10  BANK1
      +1  BANK12  BANK13  BANK14  BANK15  BANK16  BANK17  BANK18  BANK19  BANK20  BANK21  BANK22  BANK23  BANK24  BANK25  BANK2
      +6  BANK27  BANK28  BANK29  BANK30  BANK31
  4911 ;;      Params:         0       0       0       0       0       0       0       0       0       0       0       0       
      +0       0       0       0       0       0       0       0       0       0       0       0       0       0       0       
      +0       0       0       0       0       0
  4912 ;;      Locals:         0       0       0       0       0       0       0       0       0       0       0       0       
      +0       0       0       0       0       0       0       0       0       0       0       0       0       0       0       
      +0       0       0       0       0       0
  4913 ;;      Temps:          0       0       0       0       0       0       0       0       0       0       0       0       
      +0       0       0       0       0       0       0       0       0       0       0       0       0       0       0       
      +0       0       0       0       0       0
  4914 ;;      Totals:         0       0       0       0       0       0       0       0       0       0       0       0       
      +0       0       0       0       0       0       0       0       0       0       0       0       0       0       0       
      +0       0       0       0       0       0
  4915 ;;Total ram usage:        0 bytes
  4916 ;; Hardware stack levels used:    1
  4917 ;; Hardware stack levels required when called:    6
  4918 ;; This function calls:
  4919 ;;		_ADC_MANAGER_Initialize
  4920 ;;		_CONFIGURATION_Initialize
  4921 ;;		_INTERRUPT_Initialize
  4922 ;;		_OSCILLATOR_Initialize
  4923 ;;		_PIN_MANAGER_Initialize
  4924 ;;		_PMD_Initialize
  4925 ;; This function is called by:
  4926 ;;		_setup
  4927 ;; This function uses a non-reentrant model
  4928 ;;
  4929                           
  4930                           	psect	text9
  4931  01307C                     __ptext9:
  4932                           	opt stack 0
  4933  01307C                     _SYSTEM_Initialize:
  4934                           	opt stack 23
  4935                           
  4936                           ;mcc.c: 9: CONFIGURATION_Initialize();
  4937                           
  4938                           ; BSR set to: 63
  4939                           ;incstack = 0
  4940  01307C  ECBF  F098         	call	_CONFIGURATION_Initialize	;wreg free
  4941                           
  4942                           ;mcc.c: 10: INTERRUPT_Initialize();
  4943  013080  EC9E  F098         	call	_INTERRUPT_Initialize	;wreg free
  4944                           
  4945                           ;mcc.c: 11: PMD_Initialize();
  4946  013084  EC7E  F097         	call	_PMD_Initialize	;wreg free
  4947                           
  4948                           ;mcc.c: 12: PIN_MANAGER_Initialize();
  4949  013088  EC09  F097         	call	_PIN_MANAGER_Initialize	;wreg free
  4950                           
  4951                           ;mcc.c: 13: OSCILLATOR_Initialize();
  4952  01308C  EC4B  F098         	call	_OSCILLATOR_Initialize	;wreg free
  4953                           
  4954                           ;mcc.c: 14: ADC_MANAGER_Initialize();
  4955  013090  ECC0  F098         	call	_ADC_MANAGER_Initialize	;wreg free
  4956  013094  0012               	return		;funcret
  4957  013096                     __end_of_SYSTEM_Initialize:
  4958                           	opt stack 0
  4959                           
  4960 ;; *************** function _PMD_Initialize *****************
  4961 ;; Defined at:
  4962 ;;		line 48 in file "mcc.c"
  4963 ;; Parameters:    Size  Location     Type
  4964 ;;		None
  4965 ;; Auto vars:     Size  Location     Type
  4966 ;;		None
  4967 ;; Return value:  Size  Location     Type
  4968 ;;                  1    wreg      void 
  4969 ;; Registers used:
  4970 ;;		wreg, status,2
  4971 ;; Tracked objects:
  4972 ;;		On entry : 0/0
  4973 ;;		On exit  : 0/0
  4974 ;;		Unchanged: 0/0
  4975 ;; Data sizes:     COMRAM   BANK0   BANK1   BANK2   BANK3   BANK4   BANK5   BANK6   BANK7   BANK8   BANK9  BANK10  BANK1
      +1  BANK12  BANK13  BANK14  BANK15  BANK16  BANK17  BANK18  BANK19  BANK20  BANK21  BANK22  BANK23  BANK24  BANK25  BANK2
      +6  BANK27  BANK28  BANK29  BANK30  BANK31
  4976 ;;      Params:         0       0       0       0       0       0       0       0       0       0       0       0       
      +0       0       0       0       0       0       0       0       0       0       0       0       0       0       0       
      +0       0       0       0       0       0
  4977 ;;      Locals:         0       0       0       0       0       0       0       0       0       0       0       0       
      +0       0       0       0       0       0       0       0       0       0       0       0       0       0       0       
      +0       0       0       0       0       0
  4978 ;;      Temps:          0       0       0       0       0       0       0       0       0       0       0       0       
      +0       0       0       0       0       0       0       0       0       0       0       0       0       0       0       
      +0       0       0       0       0       0
  4979 ;;      Totals:         0       0       0       0       0       0       0       0       0       0       0       0       
      +0       0       0       0       0       0       0       0       0       0       0       0       0       0       0       
      +0       0       0       0       0       0
  4980 ;;Total ram usage:        0 bytes
  4981 ;; Hardware stack levels used:    1
  4982 ;; Hardware stack levels required when called:    5
  4983 ;; This function calls:
  4984 ;;		Nothing
  4985 ;; This function is called by:
  4986 ;;		_SYSTEM_Initialize
  4987 ;; This function uses a non-reentrant model
  4988 ;;
  4989                           
  4990                           	psect	text10
  4991  012EFC                     __ptext10:
  4992                           	opt stack 0
  4993  012EFC                     _PMD_Initialize:
  4994                           	opt stack 23
  4995                           
  4996                           ;mcc.c: 51: PMD0 = 0x00;
  4997                           
  4998                           ;incstack = 0
  4999  012EFC  0E00               	movlw	0
  5000  012EFE  0139               	movlb	57	; () banked
  5001  012F00  6FC0               	movwf	192,b	;volatile
  5002                           
  5003                           ;mcc.c: 53: PMD1 = 0x00;
  5004  012F02  0E00               	movlw	0
  5005  012F04  6FC1               	movwf	193,b	;volatile
  5006                           
  5007                           ;mcc.c: 55: PMD2 = 0x00;
  5008  012F06  0E00               	movlw	0
  5009  012F08  6FC2               	movwf	194,b	;volatile
  5010                           
  5011                           ;mcc.c: 57: PMD3 = 0x00;
  5012  012F0A  0E00               	movlw	0
  5013  012F0C  6FC3               	movwf	195,b	;volatile
  5014                           
  5015                           ;mcc.c: 59: PMD4 = 0x00;
  5016  012F0E  0E00               	movlw	0
  5017  012F10  6FC4               	movwf	196,b	;volatile
  5018                           
  5019                           ;mcc.c: 61: PMD5 = 0x00;
  5020  012F12  0E00               	movlw	0
  5021  012F14  6FC5               	movwf	197,b	;volatile
  5022                           
  5023                           ;mcc.c: 63: PMD6 = 0x00;
  5024  012F16  0E00               	movlw	0
  5025  012F18  6FC6               	movwf	198,b	;volatile
  5026                           
  5027                           ;mcc.c: 65: PMD7 = 0x00;
  5028  012F1A  0E00               	movlw	0
  5029  012F1C  6FC7               	movwf	199,b	;volatile
  5030                           
  5031                           ; BSR set to: 57
  5032  012F1E  0012               	return		;funcret
  5033  012F20                     __end_of_PMD_Initialize:
  5034                           	opt stack 0
  5035                           
  5036 ;; *************** function _PIN_MANAGER_Initialize *****************
  5037 ;; Defined at:
  5038 ;;		line 68 in file "mcc.c"
  5039 ;; Parameters:    Size  Location     Type
  5040 ;;		None
  5041 ;; Auto vars:     Size  Location     Type
  5042 ;;		None
  5043 ;; Return value:  Size  Location     Type
  5044 ;;                  1    wreg      void 
  5045 ;; Registers used:
  5046 ;;		wreg, status,2
  5047 ;; Tracked objects:
  5048 ;;		On entry : 0/0
  5049 ;;		On exit  : 0/0
  5050 ;;		Unchanged: 0/0
  5051 ;; Data sizes:     COMRAM   BANK0   BANK1   BANK2   BANK3   BANK4   BANK5   BANK6   BANK7   BANK8   BANK9  BANK10  BANK1
      +1  BANK12  BANK13  BANK14  BANK15  BANK16  BANK17  BANK18  BANK19  BANK20  BANK21  BANK22  BANK23  BANK24  BANK25  BANK2
      +6  BANK27  BANK28  BANK29  BANK30  BANK31
  5052 ;;      Params:         0       0       0       0       0       0       0       0       0       0       0       0       
      +0       0       0       0       0       0       0       0       0       0       0       0       0       0       0       
      +0       0       0       0       0       0
  5053 ;;      Locals:         0       0       0       0       0       0       0       0       0       0       0       0       
      +0       0       0       0       0       0       0       0       0       0       0       0       0       0       0       
      +0       0       0       0       0       0
  5054 ;;      Temps:          0       0       0       0       0       0       0       0       0       0       0       0       
      +0       0       0       0       0       0       0       0       0       0       0       0       0       0       0       
      +0       0       0       0       0       0
  5055 ;;      Totals:         0       0       0       0       0       0       0       0       0       0       0       0       
      +0       0       0       0       0       0       0       0       0       0       0       0       0       0       0       
      +0       0       0       0       0       0
  5056 ;;Total ram usage:        0 bytes
  5057 ;; Hardware stack levels used:    1
  5058 ;; Hardware stack levels required when called:    5
  5059 ;; This function calls:
  5060 ;;		Nothing
  5061 ;; This function is called by:
  5062 ;;		_SYSTEM_Initialize
  5063 ;; This function uses a non-reentrant model
  5064 ;;
  5065                           
  5066                           	psect	text11
  5067  012E12                     __ptext11:
  5068                           	opt stack 0
  5069  012E12                     _PIN_MANAGER_Initialize:
  5070                           	opt stack 23
  5071                           
  5072                           ;mcc.c: 71: LATE = 0x00;
  5073                           
  5074                           ; BSR set to: 57
  5075                           ;incstack = 0
  5076  012E12  0E00               	movlw	0
  5077  012E14  013F               	movlb	63	; () banked
  5078  012E16  6FBE               	movwf	190,b	;volatile
  5079                           
  5080                           ;mcc.c: 72: LATD = 0x00;
  5081  012E18  0E00               	movlw	0
  5082  012E1A  6FBD               	movwf	189,b	;volatile
  5083                           
  5084                           ;mcc.c: 73: LATA = 0x00;
  5085  012E1C  0E00               	movlw	0
  5086  012E1E  6FBA               	movwf	186,b	;volatile
  5087                           
  5088                           ;mcc.c: 74: LATB = 0x00;
  5089  012E20  0E00               	movlw	0
  5090  012E22  6FBB               	movwf	187,b	;volatile
  5091                           
  5092                           ;mcc.c: 75: LATC = 0x00;
  5093  012E24  0E00               	movlw	0
  5094  012E26  6FBC               	movwf	188,b	;volatile
  5095                           
  5096                           ;mcc.c: 81: ANSELD = 0x00;
  5097  012E28  0E00               	movlw	0
  5098  012E2A  013A               	movlb	58	; () banked
  5099  012E2C  6F70               	movwf	112,b	;volatile
  5100                           
  5101                           ;mcc.c: 84: WPUD = 0x00;
  5102  012E2E  0E00               	movlw	0
  5103  012E30  6F71               	movwf	113,b	;volatile
  5104                           
  5105                           ;mcc.c: 85: WPUA = 0x00;
  5106  012E32  0E00               	movlw	0
  5107  012E34  6F41               	movwf	65,b	;volatile
  5108                           
  5109                           ;mcc.c: 88: ODCONA = 0x00;
  5110  012E36  0E00               	movlw	0
  5111  012E38  6F42               	movwf	66,b	;volatile
  5112                           
  5113                           ;mcc.c: 89: ODCOND = 0x00;
  5114  012E3A  0E00               	movlw	0
  5115  012E3C  6F72               	movwf	114,b	;volatile
  5116                           
  5117                           ; BSR set to: 58
  5118                           ;mcc.c: 92: PIE0bits.IOCIE = 1;
  5119  012E3E  0139               	movlb	57	; () banked
  5120  012E40  8F90               	bsf	144,7,b	;volatile
  5121                           
  5122                           ; BSR set to: 57
  5123  012E42  0012               	return		;funcret
  5124  012E44                     __end_of_PIN_MANAGER_Initialize:
  5125                           	opt stack 0
  5126                           
  5127 ;; *************** function _OSCILLATOR_Initialize *****************
  5128 ;; Defined at:
  5129 ;;		line 34 in file "mcc.c"
  5130 ;; Parameters:    Size  Location     Type
  5131 ;;		None
  5132 ;; Auto vars:     Size  Location     Type
  5133 ;;		None
  5134 ;; Return value:  Size  Location     Type
  5135 ;;                  1    wreg      void 
  5136 ;; Registers used:
  5137 ;;		wreg, status,2
  5138 ;; Tracked objects:
  5139 ;;		On entry : 0/0
  5140 ;;		On exit  : 0/0
  5141 ;;		Unchanged: 0/0
  5142 ;; Data sizes:     COMRAM   BANK0   BANK1   BANK2   BANK3   BANK4   BANK5   BANK6   BANK7   BANK8   BANK9  BANK10  BANK1
      +1  BANK12  BANK13  BANK14  BANK15  BANK16  BANK17  BANK18  BANK19  BANK20  BANK21  BANK22  BANK23  BANK24  BANK25  BANK2
      +6  BANK27  BANK28  BANK29  BANK30  BANK31
  5143 ;;      Params:         0       0       0       0       0       0       0       0       0       0       0       0       
      +0       0       0       0       0       0       0       0       0       0       0       0       0       0       0       
      +0       0       0       0       0       0
  5144 ;;      Locals:         0       0       0       0       0       0       0       0       0       0       0       0       
      +0       0       0       0       0       0       0       0       0       0       0       0       0       0       0       
      +0       0       0       0       0       0
  5145 ;;      Temps:          0       0       0       0       0       0       0       0       0       0       0       0       
      +0       0       0       0       0       0       0       0       0       0       0       0       0       0       0       
      +0       0       0       0       0       0
  5146 ;;      Totals:         0       0       0       0       0       0       0       0       0       0       0       0       
      +0       0       0       0       0       0       0       0       0       0       0       0       0       0       0       
      +0       0       0       0       0       0
  5147 ;;Total ram usage:        0 bytes
  5148 ;; Hardware stack levels used:    1
  5149 ;; Hardware stack levels required when called:    5
  5150 ;; This function calls:
  5151 ;;		Nothing
  5152 ;; This function is called by:
  5153 ;;		_SYSTEM_Initialize
  5154 ;; This function uses a non-reentrant model
  5155 ;;
  5156                           
  5157                           	psect	text12
  5158  013096                     __ptext12:
  5159                           	opt stack 0
  5160  013096                     _OSCILLATOR_Initialize:
  5161                           	opt stack 23
  5162                           
  5163                           ;mcc.c: 37: OSCCON1 = 0x60;
  5164                           
  5165                           ; BSR set to: 57
  5166                           ;incstack = 0
  5167  013096  0E60               	movlw	96
  5168  013098  0139               	movlb	57	; () banked
  5169  01309A  6FD9               	movwf	217,b	;volatile
  5170                           
  5171                           ;mcc.c: 39: OSCCON3 = 0x00;
  5172  01309C  0E00               	movlw	0
  5173  01309E  6FDB               	movwf	219,b	;volatile
  5174                           
  5175                           ;mcc.c: 41: OSCEN = 0x00;
  5176  0130A0  0E00               	movlw	0
  5177  0130A2  6FDD               	movwf	221,b	;volatile
  5178                           
  5179                           ;mcc.c: 43: OSCFRQ = 0x03;
  5180  0130A4  0E03               	movlw	3
  5181  0130A6  6FDF               	movwf	223,b	;volatile
  5182                           
  5183                           ;mcc.c: 45: OSCTUNE = 0x00;
  5184  0130A8  0E00               	movlw	0
  5185  0130AA  6FDE               	movwf	222,b	;volatile
  5186                           
  5187                           ; BSR set to: 57
  5188  0130AC  0012               	return		;funcret
  5189  0130AE                     __end_of_OSCILLATOR_Initialize:
  5190                           	opt stack 0
  5191                           
  5192 ;; *************** function _INTERRUPT_Initialize *****************
  5193 ;; Defined at:
  5194 ;;		line 17 in file "mcc.c"
  5195 ;; Parameters:    Size  Location     Type
  5196 ;;		None
  5197 ;; Auto vars:     Size  Location     Type
  5198 ;;		None
  5199 ;; Return value:  Size  Location     Type
  5200 ;;                  1    wreg      void 
  5201 ;; Registers used:
  5202 ;;		None
  5203 ;; Tracked objects:
  5204 ;;		On entry : 0/0
  5205 ;;		On exit  : 0/0
  5206 ;;		Unchanged: 0/0
  5207 ;; Data sizes:     COMRAM   BANK0   BANK1   BANK2   BANK3   BANK4   BANK5   BANK6   BANK7   BANK8   BANK9  BANK10  BANK1
      +1  BANK12  BANK13  BANK14  BANK15  BANK16  BANK17  BANK18  BANK19  BANK20  BANK21  BANK22  BANK23  BANK24  BANK25  BANK2
      +6  BANK27  BANK28  BANK29  BANK30  BANK31
  5208 ;;      Params:         0       0       0       0       0       0       0       0       0       0       0       0       
      +0       0       0       0       0       0       0       0       0       0       0       0       0       0       0       
      +0       0       0       0       0       0
  5209 ;;      Locals:         0       0       0       0       0       0       0       0       0       0       0       0       
      +0       0       0       0       0       0       0       0       0       0       0       0       0       0       0       
      +0       0       0       0       0       0
  5210 ;;      Temps:          0       0       0       0       0       0       0       0       0       0       0       0       
      +0       0       0       0       0       0       0       0       0       0       0       0       0       0       0       
      +0       0       0       0       0       0
  5211 ;;      Totals:         0       0       0       0       0       0       0       0       0       0       0       0       
      +0       0       0       0       0       0       0       0       0       0       0       0       0       0       0       
      +0       0       0       0       0       0
  5212 ;;Total ram usage:        0 bytes
  5213 ;; Hardware stack levels used:    1
  5214 ;; Hardware stack levels required when called:    5
  5215 ;; This function calls:
  5216 ;;		Nothing
  5217 ;; This function is called by:
  5218 ;;		_SYSTEM_Initialize
  5219 ;; This function uses a non-reentrant model
  5220 ;;
  5221                           
  5222                           	psect	text13
  5223  01313C                     __ptext13:
  5224                           	opt stack 0
  5225  01313C                     _INTERRUPT_Initialize:
  5226                           	opt stack 23
  5227                           
  5228                           ;mcc.c: 28: (INTCON0bits.GIE = 1);
  5229                           
  5230                           ; BSR set to: 57
  5231                           ;incstack = 0
  5232  01313C  013F               	movlb	63	; () banked
  5233  01313E  8FD2               	bsf	210,7,b	;volatile
  5234                           
  5235                           ;mcc.c: 29: (INTCON0bits.GIEL = 1);
  5236  013140  8DD2               	bsf	210,6,b	;volatile
  5237                           
  5238                           ;mcc.c: 30: (INTCON0bits.GIEH = 1);
  5239  013142  8FD2               	bsf	210,7,b	;volatile
  5240                           
  5241                           ;mcc.c: 31: (INTCON0bits.IPEN = 1);
  5242  013144  8BD2               	bsf	210,5,b	;volatile
  5243                           
  5244                           ; BSR set to: 63
  5245  013146  0012               	return		;funcret
  5246  013148                     __end_of_INTERRUPT_Initialize:
  5247                           	opt stack 0
  5248                           
  5249 ;; *************** function _CONFIGURATION_Initialize *****************
  5250 ;; Defined at:
  5251 ;;		line 101 in file "mcc.c"
  5252 ;; Parameters:    Size  Location     Type
  5253 ;;		None
  5254 ;; Auto vars:     Size  Location     Type
  5255 ;;		None
  5256 ;; Return value:  Size  Location     Type
  5257 ;;                  1    wreg      void 
  5258 ;; Registers used:
  5259 ;;		None
  5260 ;; Tracked objects:
  5261 ;;		On entry : 0/0
  5262 ;;		On exit  : 0/0
  5263 ;;		Unchanged: 0/0
  5264 ;; Data sizes:     COMRAM   BANK0   BANK1   BANK2   BANK3   BANK4   BANK5   BANK6   BANK7   BANK8   BANK9  BANK10  BANK1
      +1  BANK12  BANK13  BANK14  BANK15  BANK16  BANK17  BANK18  BANK19  BANK20  BANK21  BANK22  BANK23  BANK24  BANK25  BANK2
      +6  BANK27  BANK28  BANK29  BANK30  BANK31
  5265 ;;      Params:         0       0       0       0       0       0       0       0       0       0       0       0       
      +0       0       0       0       0       0       0       0       0       0       0       0       0       0       0       
      +0       0       0       0       0       0
  5266 ;;      Locals:         0       0       0       0       0       0       0       0       0       0       0       0       
      +0       0       0       0       0       0       0       0       0       0       0       0       0       0       0       
      +0       0       0       0       0       0
  5267 ;;      Temps:          0       0       0       0       0       0       0       0       0       0       0       0       
      +0       0       0       0       0       0       0       0       0       0       0       0       0       0       0       
      +0       0       0       0       0       0
  5268 ;;      Totals:         0       0       0       0       0       0       0       0       0       0       0       0       
      +0       0       0       0       0       0       0       0       0       0       0       0       0       0       0       
      +0       0       0       0       0       0
  5269 ;;Total ram usage:        0 bytes
  5270 ;; Hardware stack levels used:    1
  5271 ;; Hardware stack levels required when called:    5
  5272 ;; This function calls:
  5273 ;;		Nothing
  5274 ;; This function is called by:
  5275 ;;		_SYSTEM_Initialize
  5276 ;; This function uses a non-reentrant model
  5277 ;;
  5278                           
  5279                           	psect	text14
  5280  01317E                     __ptext14:
  5281                           	opt stack 0
  5282  01317E                     _CONFIGURATION_Initialize:
  5283                           	opt stack 23
  5284                           
  5285                           ; BSR set to: 63
  5286                           ;incstack = 0
  5287  01317E  0012               	return		;funcret
  5288  013180                     __end_of_CONFIGURATION_Initialize:
  5289                           	opt stack 0
  5290                           
  5291 ;; *************** function _ADC_MANAGER_Initialize *****************
  5292 ;; Defined at:
  5293 ;;		line 96 in file "mcc.c"
  5294 ;; Parameters:    Size  Location     Type
  5295 ;;		None
  5296 ;; Auto vars:     Size  Location     Type
  5297 ;;		None
  5298 ;; Return value:  Size  Location     Type
  5299 ;;                  1    wreg      void 
  5300 ;; Registers used:
  5301 ;;		None
  5302 ;; Tracked objects:
  5303 ;;		On entry : 0/0
  5304 ;;		On exit  : 0/0
  5305 ;;		Unchanged: 0/0
  5306 ;; Data sizes:     COMRAM   BANK0   BANK1   BANK2   BANK3   BANK4   BANK5   BANK6   BANK7   BANK8   BANK9  BANK10  BANK1
      +1  BANK12  BANK13  BANK14  BANK15  BANK16  BANK17  BANK18  BANK19  BANK20  BANK21  BANK22  BANK23  BANK24  BANK25  BANK2
      +6  BANK27  BANK28  BANK29  BANK30  BANK31
  5307 ;;      Params:         0       0       0       0       0       0       0       0       0       0       0       0       
      +0       0       0       0       0       0       0       0       0       0       0       0       0       0       0       
      +0       0       0       0       0       0
  5308 ;;      Locals:         0       0       0       0       0       0       0       0       0       0       0       0       
      +0       0       0       0       0       0       0       0       0       0       0       0       0       0       0       
      +0       0       0       0       0       0
  5309 ;;      Temps:          0       0       0       0       0       0       0       0       0       0       0       0       
      +0       0       0       0       0       0       0       0       0       0       0       0       0       0       0       
      +0       0       0       0       0       0
  5310 ;;      Totals:         0       0       0       0       0       0       0       0       0       0       0       0       
      +0       0       0       0       0       0       0       0       0       0       0       0       0       0       0       
      +0       0       0       0       0       0
  5311 ;;Total ram usage:        0 bytes
  5312 ;; Hardware stack levels used:    1
  5313 ;; Hardware stack levels required when called:    5
  5314 ;; This function calls:
  5315 ;;		Nothing
  5316 ;; This function is called by:
  5317 ;;		_SYSTEM_Initialize
  5318 ;; This function uses a non-reentrant model
  5319 ;;
  5320                           
  5321                           	psect	text15
  5322  013180                     __ptext15:
  5323                           	opt stack 0
  5324  013180                     _ADC_MANAGER_Initialize:
  5325                           	opt stack 23
  5326                           
  5327                           ;incstack = 0
  5328  013180  0012               	return		;funcret
  5329  013182                     __end_of_ADC_MANAGER_Initialize:
  5330                           	opt stack 0
  5331                           
  5332 ;; *************** function _LCD_Initialize *****************
  5333 ;; Defined at:
  5334 ;;		line 10 in file "lcd.c"
  5335 ;; Parameters:    Size  Location     Type
  5336 ;;		None
  5337 ;; Auto vars:     Size  Location     Type
  5338 ;;		None
  5339 ;; Return value:  Size  Location     Type
  5340 ;;                  1    wreg      void 
  5341 ;; Registers used:
  5342 ;;		wreg, status,2, status,0, cstack
  5343 ;; Tracked objects:
  5344 ;;		On entry : 0/0
  5345 ;;		On exit  : 0/0
  5346 ;;		Unchanged: 0/0
  5347 ;; Data sizes:     COMRAM   BANK0   BANK1   BANK2   BANK3   BANK4   BANK5   BANK6   BANK7   BANK8   BANK9  BANK10  BANK1
      +1  BANK12  BANK13  BANK14  BANK15  BANK16  BANK17  BANK18  BANK19  BANK20  BANK21  BANK22  BANK23  BANK24  BANK25  BANK2
      +6  BANK27  BANK28  BANK29  BANK30  BANK31
  5348 ;;      Params:         0       0       0       0       0       0       0       0       0       0       0       0       
      +0       0       0       0       0       0       0       0       0       0       0       0       0       0       0       
      +0       0       0       0       0       0
  5349 ;;      Locals:         0       0       0       0       0       0       0       0       0       0       0       0       
      +0       0       0       0       0       0       0       0       0       0       0       0       0       0       0       
      +0       0       0       0       0       0
  5350 ;;      Temps:          1       0       0       0       0       0       0       0       0       0       0       0       
      +0       0       0       0       0       0       0       0       0       0       0       0       0       0       0       
      +0       0       0       0       0       0
  5351 ;;      Totals:         1       0       0       0       0       0       0       0       0       0       0       0       
      +0       0       0       0       0       0       0       0       0       0       0       0       0       0       0       
      +0       0       0       0       0       0
  5352 ;;Total ram usage:        1 bytes
  5353 ;; Hardware stack levels used:    1
  5354 ;; Hardware stack levels required when called:    6
  5355 ;; This function calls:
  5356 ;;		_LCD_Clear
  5357 ;;		_LCD_Cmd
  5358 ;; This function is called by:
  5359 ;;		_setup
  5360 ;; This function uses a non-reentrant model
  5361 ;;
  5362                           
  5363                           	psect	text16
  5364  012918                     __ptext16:
  5365                           	opt stack 0
  5366  012918                     _LCD_Initialize:
  5367                           	opt stack 23
  5368                           
  5369                           ;lcd.c: 12: TRISD = 0x00;
  5370                           
  5371                           ;incstack = 0
  5372  012918  0E00               	movlw	0
  5373  01291A  013F               	movlb	63	; () banked
  5374  01291C  6FC5               	movwf	197,b	;volatile
  5375                           
  5376                           ;lcd.c: 13: TRISC = 0x00;
  5377  01291E  0E00               	movlw	0
  5378  012920  6FC4               	movwf	196,b	;volatile
  5379                           
  5380                           ; BSR set to: 63
  5381                           ;lcd.c: 14: LATCbits.LATC6 = 0;
  5382  012922  9DBC               	bcf	188,6,b	;volatile
  5383                           
  5384                           ; BSR set to: 63
  5385                           ;lcd.c: 17: _delay((unsigned long)((40)*(8000000/4000.0)));
  5386  012924  0E68               	movlw	104
  5387  012926  6E49               	movwf	??_LCD_Initialize& (0+255),c
  5388  012928  0EE4               	movlw	228
  5389  01292A                     u9067:
  5390  01292A  2EE8               	decfsz	16360,f,c
  5391  01292C  D7FE               	bra	u9067
  5392  01292E  2E49               	decfsz	??_LCD_Initialize& (0+255),f,c
  5393  012930  D7FC               	bra	u9067
  5394  012932  D000               	nop2	
  5395                           
  5396                           ;lcd.c: 19: LCD_Cmd(0b00110000);
  5397  012934  0E30               	movlw	48
  5398  012936  EC22  F098         	call	_LCD_Cmd
  5399                           
  5400                           ;lcd.c: 20: _delay((unsigned long)((20)*(8000000/4000.0)));
  5401  01293A  0E34               	movlw	52
  5402  01293C  6E49               	movwf	??_LCD_Initialize& (0+255),c
  5403  01293E  0EF2               	movlw	242
  5404  012940                     u9077:
  5405  012940  2EE8               	decfsz	16360,f,c
  5406  012942  D7FE               	bra	u9077
  5407  012944  2E49               	decfsz	??_LCD_Initialize& (0+255),f,c
  5408  012946  D7FC               	bra	u9077
  5409                           
  5410                           ;lcd.c: 21: LCD_Cmd(0b00110000);
  5411  012948  0E30               	movlw	48
  5412  01294A  EC22  F098         	call	_LCD_Cmd
  5413                           
  5414                           ;lcd.c: 22: _delay((unsigned long)((2)*(8000000/4000.0)));
  5415  01294E  0E06               	movlw	6
  5416  012950  6E49               	movwf	??_LCD_Initialize& (0+255),c
  5417  012952  0E30               	movlw	48
  5418  012954                     u9087:
  5419  012954  2EE8               	decfsz	16360,f,c
  5420  012956  D7FE               	bra	u9087
  5421  012958  2E49               	decfsz	??_LCD_Initialize& (0+255),f,c
  5422  01295A  D7FC               	bra	u9087
  5423  01295C  D000               	nop2	
  5424                           
  5425                           ;lcd.c: 23: LCD_Cmd(0b00110000);
  5426  01295E  0E30               	movlw	48
  5427  012960  EC22  F098         	call	_LCD_Cmd
  5428                           
  5429                           ;lcd.c: 24: _delay((unsigned long)((40)*(8000000/4000.0)));
  5430  012964  0E68               	movlw	104
  5431  012966  6E49               	movwf	??_LCD_Initialize& (0+255),c
  5432  012968  0EE4               	movlw	228
  5433  01296A                     u9097:
  5434  01296A  2EE8               	decfsz	16360,f,c
  5435  01296C  D7FE               	bra	u9097
  5436  01296E  2E49               	decfsz	??_LCD_Initialize& (0+255),f,c
  5437  012970  D7FC               	bra	u9097
  5438  012972  D000               	nop2	
  5439                           
  5440                           ;lcd.c: 27: LCD_Cmd(0b00111000);
  5441  012974  0E38               	movlw	56
  5442  012976  EC22  F098         	call	_LCD_Cmd
  5443                           
  5444                           ;lcd.c: 29: LCD_Cmd(0b00001000);
  5445  01297A  0E08               	movlw	8
  5446  01297C  EC22  F098         	call	_LCD_Cmd
  5447                           
  5448                           ;lcd.c: 31: LCD_Cmd(0b00000001);
  5449  012980  0E01               	movlw	1
  5450  012982  EC22  F098         	call	_LCD_Cmd
  5451                           
  5452                           ;lcd.c: 33: LCD_Cmd(0b00000110);
  5453  012986  0E06               	movlw	6
  5454  012988  EC22  F098         	call	_LCD_Cmd
  5455                           
  5456                           ;lcd.c: 35: LCD_Cmd(0b00001110);
  5457  01298C  0E0E               	movlw	14
  5458  01298E  EC22  F098         	call	_LCD_Cmd
  5459                           
  5460                           ;lcd.c: 37: LCD_Cmd(0b00000010);
  5461  012992  0E02               	movlw	2
  5462  012994  EC22  F098         	call	_LCD_Cmd
  5463                           
  5464                           ;lcd.c: 39: LCD_Clear();
  5465  012998  ECE5  F097         	call	_LCD_Clear	;wreg free
  5466  01299C  0012               	return		;funcret
  5467  01299E                     __end_of_LCD_Initialize:
  5468                           	opt stack 0
  5469                           
  5470 ;; *************** function _KEYPAD_Initialize *****************
  5471 ;; Defined at:
  5472 ;;		line 22 in file "keypad.c"
  5473 ;; Parameters:    Size  Location     Type
  5474 ;;		None
  5475 ;; Auto vars:     Size  Location     Type
  5476 ;;		None
  5477 ;; Return value:  Size  Location     Type
  5478 ;;                  1    wreg      void 
  5479 ;; Registers used:
  5480 ;;		None
  5481 ;; Tracked objects:
  5482 ;;		On entry : 0/0
  5483 ;;		On exit  : 0/0
  5484 ;;		Unchanged: 0/0
  5485 ;; Data sizes:     COMRAM   BANK0   BANK1   BANK2   BANK3   BANK4   BANK5   BANK6   BANK7   BANK8   BANK9  BANK10  BANK1
      +1  BANK12  BANK13  BANK14  BANK15  BANK16  BANK17  BANK18  BANK19  BANK20  BANK21  BANK22  BANK23  BANK24  BANK25  BANK2
      +6  BANK27  BANK28  BANK29  BANK30  BANK31
  5486 ;;      Params:         0       0       0       0       0       0       0       0       0       0       0       0       
      +0       0       0       0       0       0       0       0       0       0       0       0       0       0       0       
      +0       0       0       0       0       0
  5487 ;;      Locals:         0       0       0       0       0       0       0       0       0       0       0       0       
      +0       0       0       0       0       0       0       0       0       0       0       0       0       0       0       
      +0       0       0       0       0       0
  5488 ;;      Temps:          0       0       0       0       0       0       0       0       0       0       0       0       
      +0       0       0       0       0       0       0       0       0       0       0       0       0       0       0       
      +0       0       0       0       0       0
  5489 ;;      Totals:         0       0       0       0       0       0       0       0       0       0       0       0       
      +0       0       0       0       0       0       0       0       0       0       0       0       0       0       0       
      +0       0       0       0       0       0
  5490 ;;Total ram usage:        0 bytes
  5491 ;; Hardware stack levels used:    1
  5492 ;; Hardware stack levels required when called:    5
  5493 ;; This function calls:
  5494 ;;		Nothing
  5495 ;; This function is called by:
  5496 ;;		_setup
  5497 ;; This function uses a non-reentrant model
  5498 ;;
  5499                           
  5500                           	psect	text17
  5501  01300A                     __ptext17:
  5502                           	opt stack 0
  5503  01300A                     _KEYPAD_Initialize:
  5504                           	opt stack 24
  5505                           
  5506                           ;keypad.c: 26: TRISBbits.TRISB0 = 0;
  5507                           
  5508                           ;incstack = 0
  5509  01300A  013F               	movlb	63	; () banked
  5510  01300C  91C3               	bcf	195,0,b	;volatile
  5511                           
  5512                           ;keypad.c: 27: TRISBbits.TRISB1 = 0;
  5513  01300E  93C3               	bcf	195,1,b	;volatile
  5514                           
  5515                           ;keypad.c: 28: TRISBbits.TRISB2 = 0;
  5516  013010  95C3               	bcf	195,2,b	;volatile
  5517                           
  5518                           ;keypad.c: 29: TRISBbits.TRISB3 = 0;
  5519  013012  97C3               	bcf	195,3,b	;volatile
  5520                           
  5521                           ;keypad.c: 31: TRISBbits.TRISB4 = 1;
  5522  013014  89C3               	bsf	195,4,b	;volatile
  5523                           
  5524                           ;keypad.c: 32: TRISBbits.TRISB5 = 1;
  5525  013016  8BC3               	bsf	195,5,b	;volatile
  5526                           
  5527                           ;keypad.c: 33: TRISBbits.TRISB6 = 1;
  5528  013018  8DC3               	bsf	195,6,b	;volatile
  5529                           
  5530                           ;keypad.c: 34: TRISBbits.TRISB7 = 1;
  5531  01301A  8FC3               	bsf	195,7,b	;volatile
  5532                           
  5533                           ;keypad.c: 36: ANSELBbits.ANSELB4 = 0;
  5534  01301C  013A               	movlb	58	; () banked
  5535  01301E  9950               	bcf	80,4,b	;volatile
  5536                           
  5537                           ;keypad.c: 37: ANSELBbits.ANSELB5 = 0;
  5538  013020  9B50               	bcf	80,5,b	;volatile
  5539                           
  5540                           ;keypad.c: 38: ANSELBbits.ANSELB6 = 0;
  5541  013022  9D50               	bcf	80,6,b	;volatile
  5542                           
  5543                           ;keypad.c: 39: ANSELBbits.ANSELB7 = 0;
  5544  013024  9F50               	bcf	80,7,b	;volatile
  5545                           
  5546                           ; BSR set to: 58
  5547  013026  0012               	return		;funcret
  5548  013028                     __end_of_KEYPAD_Initialize:
  5549                           	opt stack 0
  5550                           
  5551 ;; *************** function _COUNTDOWN_Initialize *****************
  5552 ;; Defined at:
  5553 ;;		line 11 in file "countdown.c"
  5554 ;; Parameters:    Size  Location     Type
  5555 ;;		None
  5556 ;; Auto vars:     Size  Location     Type
  5557 ;;		None
  5558 ;; Return value:  Size  Location     Type
  5559 ;;                  1    wreg      void 
  5560 ;; Registers used:
  5561 ;;		wreg, status,2
  5562 ;; Tracked objects:
  5563 ;;		On entry : 0/0
  5564 ;;		On exit  : 0/0
  5565 ;;		Unchanged: 0/0
  5566 ;; Data sizes:     COMRAM   BANK0   BANK1   BANK2   BANK3   BANK4   BANK5   BANK6   BANK7   BANK8   BANK9  BANK10  BANK1
      +1  BANK12  BANK13  BANK14  BANK15  BANK16  BANK17  BANK18  BANK19  BANK20  BANK21  BANK22  BANK23  BANK24  BANK25  BANK2
      +6  BANK27  BANK28  BANK29  BANK30  BANK31
  5567 ;;      Params:         0       0       0       0       0       0       0       0       0       0       0       0       
      +0       0       0       0       0       0       0       0       0       0       0       0       0       0       0       
      +0       0       0       0       0       0
  5568 ;;      Locals:         0       0       0       0       0       0       0       0       0       0       0       0       
      +0       0       0       0       0       0       0       0       0       0       0       0       0       0       0       
      +0       0       0       0       0       0
  5569 ;;      Temps:          0       0       0       0       0       0       0       0       0       0       0       0       
      +0       0       0       0       0       0       0       0       0       0       0       0       0       0       0       
      +0       0       0       0       0       0
  5570 ;;      Totals:         0       0       0       0       0       0       0       0       0       0       0       0       
      +0       0       0       0       0       0       0       0       0       0       0       0       0       0       0       
      +0       0       0       0       0       0
  5571 ;;Total ram usage:        0 bytes
  5572 ;; Hardware stack levels used:    1
  5573 ;; Hardware stack levels required when called:    5
  5574 ;; This function calls:
  5575 ;;		Nothing
  5576 ;; This function is called by:
  5577 ;;		_setup
  5578 ;; This function uses a non-reentrant model
  5579 ;;
  5580                           
  5581                           	psect	text18
  5582  012F44                     __ptext18:
  5583                           	opt stack 0
  5584  012F44                     _COUNTDOWN_Initialize:
  5585                           	opt stack 24
  5586                           
  5587                           ;countdown.c: 14: PIE3bits.TMR0IE = 1;
  5588                           
  5589                           ; BSR set to: 58
  5590                           ;incstack = 0
  5591  012F44  0139               	movlb	57	; () banked
  5592  012F46  8F93               	bsf	147,7,b	;volatile
  5593                           
  5594                           ;countdown.c: 15: IPR3bits.TMR0IP = 1;
  5595  012F48  8F83               	bsf	131,7,b	;volatile
  5596                           
  5597                           ;countdown.c: 16: PIR3bits.TMR0IF = 0;
  5598  012F4A  9FA3               	bcf	163,7,b	;volatile
  5599                           
  5600                           ;countdown.c: 17: T0CON0bits.EN = 0;
  5601  012F4C  013F               	movlb	63	; () banked
  5602  012F4E  9FB8               	bcf	184,7,b	;volatile
  5603                           
  5604                           ;countdown.c: 18: T0CON0bits.MD16 = 1;
  5605  012F50  89B8               	bsf	184,4,b	;volatile
  5606                           
  5607                           ; BSR set to: 63
  5608                           ;countdown.c: 19: T0CON1bits.CS = 0b011;
  5609  012F52  51B9               	movf	185,w,b	;volatile
  5610  012F54  0B1F               	andlw	-225
  5611  012F56  0960               	iorlw	96
  5612  012F58  6FB9               	movwf	185,b	;volatile
  5613                           
  5614                           ; BSR set to: 63
  5615                           ;countdown.c: 20: T0CON1bits.ASYNC = 1;
  5616  012F5A  89B9               	bsf	185,4,b	;volatile
  5617                           
  5618                           ;countdown.c: 21: T0CON1bits.CKPS = 0b0001;
  5619  012F5C  51B9               	movf	185,w,b	;volatile
  5620  012F5E  0BF0               	andlw	-16
  5621  012F60  0901               	iorlw	1
  5622  012F62  6FB9               	movwf	185,b	;volatile
  5623                           
  5624                           ; BSR set to: 63
  5625  012F64  0012               	return		;funcret
  5626  012F66                     __end_of_COUNTDOWN_Initialize:
  5627                           	opt stack 0
  5628                           
  5629 ;; *************** function _BEEPER_Initialize *****************
  5630 ;; Defined at:
  5631 ;;		line 13 in file "beeper.c"
  5632 ;; Parameters:    Size  Location     Type
  5633 ;;		None
  5634 ;; Auto vars:     Size  Location     Type
  5635 ;;		None
  5636 ;; Return value:  Size  Location     Type
  5637 ;;                  1    wreg      void 
  5638 ;; Registers used:
  5639 ;;		wreg, status,2
  5640 ;; Tracked objects:
  5641 ;;		On entry : 0/0
  5642 ;;		On exit  : 0/0
  5643 ;;		Unchanged: 0/0
  5644 ;; Data sizes:     COMRAM   BANK0   BANK1   BANK2   BANK3   BANK4   BANK5   BANK6   BANK7   BANK8   BANK9  BANK10  BANK1
      +1  BANK12  BANK13  BANK14  BANK15  BANK16  BANK17  BANK18  BANK19  BANK20  BANK21  BANK22  BANK23  BANK24  BANK25  BANK2
      +6  BANK27  BANK28  BANK29  BANK30  BANK31
  5645 ;;      Params:         0       0       0       0       0       0       0       0       0       0       0       0       
      +0       0       0       0       0       0       0       0       0       0       0       0       0       0       0       
      +0       0       0       0       0       0
  5646 ;;      Locals:         0       0       0       0       0       0       0       0       0       0       0       0       
      +0       0       0       0       0       0       0       0       0       0       0       0       0       0       0       
      +0       0       0       0       0       0
  5647 ;;      Temps:          0       0       0       0       0       0       0       0       0       0       0       0       
      +0       0       0       0       0       0       0       0       0       0       0       0       0       0       0       
      +0       0       0       0       0       0
  5648 ;;      Totals:         0       0       0       0       0       0       0       0       0       0       0       0       
      +0       0       0       0       0       0       0       0       0       0       0       0       0       0       0       
      +0       0       0       0       0       0
  5649 ;;Total ram usage:        0 bytes
  5650 ;; Hardware stack levels used:    1
  5651 ;; Hardware stack levels required when called:    5
  5652 ;; This function calls:
  5653 ;;		Nothing
  5654 ;; This function is called by:
  5655 ;;		_setup
  5656 ;; This function uses a non-reentrant model
  5657 ;;
  5658                           
  5659                           	psect	text19
  5660  012BE4                     __ptext19:
  5661                           	opt stack 0
  5662  012BE4                     _BEEPER_Initialize:
  5663                           	opt stack 24
  5664                           
  5665                           ;beeper.c: 15: TRISAbits.TRISA0 = 0;
  5666                           
  5667                           ; BSR set to: 63
  5668                           ;incstack = 0
  5669  012BE4  013F               	movlb	63	; () banked
  5670  012BE6  91C2               	bcf	194,0,b	;volatile
  5671                           
  5672                           ;beeper.c: 16: TRISAbits.TRISA1 = 0;
  5673  012BE8  93C2               	bcf	194,1,b	;volatile
  5674                           
  5675                           ; BSR set to: 63
  5676                           ;beeper.c: 18: RA1PPS = 0b001101;
  5677  012BEA  0E0D               	movlw	13
  5678  012BEC  013A               	movlb	58	; () banked
  5679  012BEE  6F01               	movwf	1,b	;volatile
  5680                           
  5681                           ;beeper.c: 25: CCPTMRS1bits.P5TSEL = 0b01;
  5682  012BF0  013F               	movlb	63	; () banked
  5683  012BF2  515F               	movf	95,w,b	;volatile
  5684  012BF4  0BFC               	andlw	-4
  5685  012BF6  0901               	iorlw	1
  5686  012BF8  6F5F               	movwf	95,b	;volatile
  5687                           
  5688                           ;beeper.c: 27: PWM5DCH = 0x39;
  5689  012BFA  0E39               	movlw	57
  5690  012BFC  6F6D               	movwf	109,b	;volatile
  5691                           
  5692                           ;beeper.c: 28: PWM5DCL = 0x10;
  5693  012BFE  0E10               	movlw	16
  5694  012C00  6F6C               	movwf	108,b	;volatile
  5695                           
  5696                           ; BSR set to: 63
  5697                           ;beeper.c: 29: PWM5CONbits.EN = 0;
  5698  012C02  9F6E               	bcf	110,7,b	;volatile
  5699                           
  5700                           ;beeper.c: 30: T2CLKbits.CS = 0b0001;
  5701  012C04  51AE               	movf	174,w,b	;volatile
  5702  012C06  0BF0               	andlw	-16
  5703  012C08  0901               	iorlw	1
  5704  012C0A  6FAE               	movwf	174,b	;volatile
  5705                           
  5706                           ;beeper.c: 31: T2PR = 0x72;
  5707  012C0C  0E72               	movlw	114
  5708  012C0E  6FAB               	movwf	171,b	;volatile
  5709                           
  5710                           ;beeper.c: 32: T2CONbits.CKPS = 0b010;
  5711  012C10  51AC               	movf	172,w,b	;volatile
  5712  012C12  0B8F               	andlw	-113
  5713  012C14  0920               	iorlw	32
  5714  012C16  6FAC               	movwf	172,b	;volatile
  5715                           
  5716                           ; BSR set to: 63
  5717                           ;beeper.c: 33: T2CONbits.ON = 1;
  5718  012C18  8FAC               	bsf	172,7,b	;volatile
  5719                           
  5720                           ;beeper.c: 38: T1CON = 0b00110000;
  5721  012C1A  0E30               	movlw	48
  5722  012C1C  6FB2               	movwf	178,b	;volatile
  5723                           
  5724                           ;beeper.c: 39: T1CLK = 0b00001;
  5725  012C1E  0E01               	movlw	1
  5726  012C20  6FB5               	movwf	181,b	;volatile
  5727                           
  5728                           ; BSR set to: 63
  5729                           ;beeper.c: 40: PIE4bits.TMR1IE = 1;
  5730  012C22  0139               	movlb	57	; () banked
  5731  012C24  8194               	bsf	148,0,b	;volatile
  5732                           
  5733                           ; BSR set to: 57
  5734                           ;beeper.c: 41: PIR4bits.TMR1IF = 0;
  5735  012C26  91A4               	bcf	164,0,b	;volatile
  5736                           
  5737                           ; BSR set to: 57
  5738  012C28  0012               	return		;funcret
  5739  012C2A                     __end_of_BEEPER_Initialize:
  5740                           	opt stack 0
  5741                           
  5742 ;; *************** function _resetPasswordEntry *****************
  5743 ;; Defined at:
  5744 ;;		line 42 in file "main.c"
  5745 ;; Parameters:    Size  Location     Type
  5746 ;;		None
  5747 ;; Auto vars:     Size  Location     Type
  5748 ;;  i               2   12[COMRAM] int 
  5749 ;; Return value:  Size  Location     Type
  5750 ;;                  1    wreg      void 
  5751 ;; Registers used:
  5752 ;;		wreg, fsr2l, fsr2h, status,2, status,0
  5753 ;; Tracked objects:
  5754 ;;		On entry : 0/0
  5755 ;;		On exit  : 0/0
  5756 ;;		Unchanged: 0/0
  5757 ;; Data sizes:     COMRAM   BANK0   BANK1   BANK2   BANK3   BANK4   BANK5   BANK6   BANK7   BANK8   BANK9  BANK10  BANK1
      +1  BANK12  BANK13  BANK14  BANK15  BANK16  BANK17  BANK18  BANK19  BANK20  BANK21  BANK22  BANK23  BANK24  BANK25  BANK2
      +6  BANK27  BANK28  BANK29  BANK30  BANK31
  5758 ;;      Params:         0       0       0       0       0       0       0       0       0       0       0       0       
      +0       0       0       0       0       0       0       0       0       0       0       0       0       0       0       
      +0       0       0       0       0       0
  5759 ;;      Locals:         2       0       0       0       0       0       0       0       0       0       0       0       
      +0       0       0       0       0       0       0       0       0       0       0       0       0       0       0       
      +0       0       0       0       0       0
  5760 ;;      Temps:          0       0       0       0       0       0       0       0       0       0       0       0       
      +0       0       0       0       0       0       0       0       0       0       0       0       0       0       0       
      +0       0       0       0       0       0
  5761 ;;      Totals:         2       0       0       0       0       0       0       0       0       0       0       0       
      +0       0       0       0       0       0       0       0       0       0       0       0       0       0       0       
      +0       0       0       0       0       0
  5762 ;;Total ram usage:        2 bytes
  5763 ;; Hardware stack levels used:    1
  5764 ;; Hardware stack levels required when called:    5
  5765 ;; This function calls:
  5766 ;;		Nothing
  5767 ;; This function is called by:
  5768 ;;		_main
  5769 ;; This function uses a non-reentrant model
  5770 ;;
  5771                           
  5772                           	psect	text20
  5773  012E44                     __ptext20:
  5774                           	opt stack 0
  5775  012E44                     _resetPasswordEntry:
  5776                           	opt stack 25
  5777                           
  5778                           ;main.c: 44: for(int i=0;i<=6;i++)
  5779                           
  5780                           ; BSR set to: 57
  5781                           ;incstack = 0
  5782  012E44  0E00               	movlw	0
  5783  012E46  6E49               	movwf	resetPasswordEntry@i+1,c
  5784  012E48  0E00               	movlw	0
  5785  012E4A  6E48               	movwf	resetPasswordEntry@i,c
  5786  012E4C                     l6400:
  5787  012E4C  BE49               	btfsc	resetPasswordEntry@i+1,7,c
  5788  012E4E  D006               	goto	l730
  5789  012E50  5049               	movf	resetPasswordEntry@i+1,w,c
  5790  012E52  E10F               	bnz	l732
  5791  012E54  0E07               	movlw	7
  5792  012E56  5C48               	subwf	resetPasswordEntry@i,w,c
  5793  012E58  B0D8               	btfsc	16344,0,c
  5794  012E5A  0012               	return	
  5795  012E5C                     l730:
  5796                           
  5797                           ;main.c: 45: {;main.c: 46: userPswdEntry[i] = 0;
  5798  012E5C  0E93               	movlw	low _userPswdEntry
  5799  012E5E  2448               	addwf	resetPasswordEntry@i,w,c
  5800  012E60  6ED9               	movwf	16345,c
  5801  012E62  0E00               	movlw	high _userPswdEntry
  5802  012E64  2049               	addwfc	resetPasswordEntry@i+1,w,c
  5803  012E66  6EDA               	movwf	16346,c
  5804  012E68  0E00               	movlw	0
  5805  012E6A  6EDF               	movwf	16351,c
  5806  012E6C  4A48               	infsnz	resetPasswordEntry@i,f,c
  5807  012E6E  2A49               	incf	resetPasswordEntry@i+1,f,c
  5808  012E70  D7ED               	goto	l6400
  5809  012E72                     l732:
  5810  012E72  0012               	return		;funcret
  5811  012E74                     __end_of_resetPasswordEntry:
  5812                           	opt stack 0
  5813                           
  5814 ;; *************** function _keypadRead *****************
  5815 ;; Defined at:
  5816 ;;		line 44 in file "keypad.c"
  5817 ;; Parameters:    Size  Location     Type
  5818 ;;		None
  5819 ;; Auto vars:     Size  Location     Type
  5820 ;;  output          2    4[BANK0 ] struct keypadStruct
  5821 ;;  flagPressed     2    2[BANK0 ] unsigned int 
  5822 ;;  keyHoldTime     2    0[BANK0 ] unsigned int 
  5823 ;;  key             1    8[BANK0 ] volatile unsigned char 
  5824 ;;  keyPressed      1    7[BANK0 ] volatile unsigned char 
  5825 ;;  keyHeld         1    6[BANK0 ] volatile unsigned char 
  5826 ;; Return value:  Size  Location     Type
  5827 ;;                  2   15[COMRAM] struct keypadStruct
  5828 ;; Registers used:
  5829 ;;		wreg, status,2, status,0, cstack
  5830 ;; Tracked objects:
  5831 ;;		On entry : 0/0
  5832 ;;		On exit  : 0/0
  5833 ;;		Unchanged: 0/0
  5834 ;; Data sizes:     COMRAM   BANK0   BANK1   BANK2   BANK3   BANK4   BANK5   BANK6   BANK7   BANK8   BANK9  BANK10  BANK1
      +1  BANK12  BANK13  BANK14  BANK15  BANK16  BANK17  BANK18  BANK19  BANK20  BANK21  BANK22  BANK23  BANK24  BANK25  BANK2
      +6  BANK27  BANK28  BANK29  BANK30  BANK31
  5835 ;;      Params:         2       0       0       0       0       0       0       0       0       0       0       0       
      +0       0       0       0       0       0       0       0       0       0       0       0       0       0       0       
      +0       0       0       0       0       0
  5836 ;;      Locals:         0       9       0       0       0       0       0       0       0       0       0       0       
      +0       0       0       0       0       0       0       0       0       0       0       0       0       0       0       
      +0       0       0       0       0       0
  5837 ;;      Temps:          2       0       0       0       0       0       0       0       0       0       0       0       
      +0       0       0       0       0       0       0       0       0       0       0       0       0       0       0       
      +0       0       0       0       0       0
  5838 ;;      Totals:         4       9       0       0       0       0       0       0       0       0       0       0       
      +0       0       0       0       0       0       0       0       0       0       0       0       0       0       0       
      +0       0       0       0       0       0
  5839 ;;Total ram usage:       13 bytes
  5840 ;; Hardware stack levels used:    1
  5841 ;; Hardware stack levels required when called:    6
  5842 ;; This function calls:
  5843 ;;		_keypadScan
  5844 ;;		_normalBeep
  5845 ;;		_normalBlink
  5846 ;;		_quickBeep
  5847 ;;		_quickBlink
  5848 ;; This function is called by:
  5849 ;;		_main
  5850 ;; This function uses a non-reentrant model
  5851 ;;
  5852                           
  5853                           	psect	text21
  5854  0120E6                     __ptext21:
  5855                           	opt stack 0
  5856  0120E6                     _keypadRead:
  5857                           	opt stack 24
  5858                           
  5859                           ;keypad.c: 46: keypadStruct output;;keypad.c: 47: volatile unsigned char keyHeld = 0;
  5860                           
  5861                           ;incstack = 0
  5862  0120E6  0E00               	movlw	0
  5863  0120E8  0100               	movlb	0	; () banked
  5864  0120EA  6F82               	movwf	keypadRead@keyHeld& (0+255),b	;volatile
  5865                           
  5866                           ;keypad.c: 48: volatile unsigned char keyPressed = 0;
  5867  0120EC  0E00               	movlw	0
  5868  0120EE  6F83               	movwf	keypadRead@keyPressed& (0+255),b	;volatile
  5869                           
  5870                           ;keypad.c: 49: volatile unsigned char key = 0;
  5871  0120F0  0E00               	movlw	0
  5872  0120F2  6F84               	movwf	keypadRead@key& (0+255),b	;volatile
  5873                           
  5874                           ;keypad.c: 51: unsigned int flagPressed = 0;
  5875  0120F4  0E00               	movlw	0
  5876  0120F6  6F7F               	movwf	(keypadRead@flagPressed+1)& (0+255),b
  5877  0120F8  0E00               	movlw	0
  5878  0120FA  6F7E               	movwf	keypadRead@flagPressed& (0+255),b
  5879                           
  5880                           ;keypad.c: 52: unsigned int keyHoldTime = 0;
  5881  0120FC  0E00               	movlw	0
  5882  0120FE  6F7D               	movwf	(keypadRead@keyHoldTime+1)& (0+255),b
  5883  012100  0E00               	movlw	0
  5884  012102  6F7C               	movwf	keypadRead@keyHoldTime& (0+255),b
  5885                           
  5886                           ;keypad.c: 54: while(key == NONE)
  5887  012104  D024               	goto	l423
  5888  012106                     
  5889                           ; BSR set to: 0
  5890                           ;keypad.c: 55: {;keypad.c: 56: key = keypadScan();
  5891                           
  5892                           ; BSR set to: 0
  5893  012106  EC1A  F091         	call	_keypadScan	;wreg free
  5894  01210A  5048               	movf	?_keypadScan,w,c
  5895  01210C  0100               	movlb	0	; () banked
  5896  01210E  6F84               	movwf	keypadRead@key& (0+255),b	;volatile
  5897                           
  5898                           ; BSR set to: 0
  5899                           ;keypad.c: 58: if(key != NONE)
  5900  012110  5184               	movf	keypadRead@key& (0+255),w,b	;volatile
  5901  012112  6E4D               	movwf	??_keypadRead& (0+255),c
  5902  012114  6A4E               	clrf	(??_keypadRead+1)& (0+255),c
  5903  012116  5026               	movf	_NONE,w,c
  5904  012118  184D               	xorwf	??_keypadRead,w,c
  5905  01211A  E104               	bnz	u6990
  5906  01211C  5027               	movf	_NONE+1,w,c
  5907  01211E  184E               	xorwf	??_keypadRead+1,w,c
  5908  012120  B4D8               	btfsc	16344,2,c
  5909  012122  D015               	goto	l423
  5910  012124                     u6990:
  5911                           
  5912                           ; BSR set to: 0
  5913                           ;keypad.c: 59: {;keypad.c: 60: keyPressed = key;
  5914  012124  0060  F210  F083   	movff	keypadRead@key,keypadRead@keyPressed	;volatile
  5915                           
  5916                           ;keypad.c: 61: flagPressed = TRUE;
  5917  01212A  0060  F064  F07E   	movff	_TRUE,keypadRead@flagPressed
  5918  012130  0060  F068  F07F   	movff	_TRUE+1,keypadRead@flagPressed+1
  5919                           
  5920                           ; BSR set to: 0
  5921                           ;keypad.c: 63: if (keyBeeps == ON)
  5922  012136  501B               	movf	_ON,w,c
  5923  012138  182E               	xorwf	_keyBeeps,w,c
  5924  01213A  E107               	bnz	l6276
  5925  01213C  501C               	movf	_ON+1,w,c
  5926  01213E  182F               	xorwf	_keyBeeps+1,w,c
  5927  012140  A4D8               	btfss	16344,2,c
  5928  012142  D003               	goto	l422
  5929                           
  5930                           ; BSR set to: 0
  5931                           ;keypad.c: 64: {;keypad.c: 65: normalBeep();
  5932  012144  EC75  F098         	call	_normalBeep	;wreg free
  5933                           
  5934                           ;keypad.c: 66: }
  5935  012148  D002               	goto	l423
  5936  01214A                     l422:
  5937  01214A                     l6276:
  5938                           
  5939                           ;keypad.c: 68: else;keypad.c: 69: {;keypad.c: 70: normalBlink();
  5940  01214A  EC8F  F098         	call	_normalBlink	;wreg free
  5941  01214E                     l423:
  5942  01214E  0100               	movlb	0	; () banked
  5943  012150  5184               	movf	keypadRead@key& (0+255),w,b	;volatile
  5944  012152  6E4D               	movwf	??_keypadRead& (0+255),c
  5945  012154  6A4E               	clrf	(??_keypadRead+1)& (0+255),c
  5946  012156  5026               	movf	_NONE,w,c
  5947  012158  184D               	xorwf	??_keypadRead,w,c
  5948  01215A  E157               	bnz	l6308
  5949  01215C  5027               	movf	_NONE+1,w,c
  5950  01215E  184E               	xorwf	??_keypadRead+1,w,c
  5951  012160  A4D8               	btfss	16344,2,c
  5952  012162  D053               	goto	l430
  5953  012164  D7D0               	goto	l420
  5954  012166                     
  5955                           ; BSR set to: 0
  5956                           ;keypad.c: 76: {;keypad.c: 77: _delay((unsigned long)((10)*(8000000/4000.0)));
  5957                           
  5958                           ; BSR set to: 0
  5959  012166  0E1A               	movlw	26
  5960  012168  6E4D               	movwf	??_keypadRead& (0+255),c
  5961  01216A  0EF8               	movlw	248
  5962  01216C                     u9107:
  5963  01216C  2EE8               	decfsz	16360,f,c
  5964  01216E  D7FE               	bra	u9107
  5965  012170  2E4D               	decfsz	??_keypadRead& (0+255),f,c
  5966  012172  D7FC               	bra	u9107
  5967  012174  D000               	nop2	
  5968                           
  5969                           ;keypad.c: 78: keyHoldTime += 10;
  5970  012176  0E0A               	movlw	10
  5971  012178  0100               	movlb	0	; () banked
  5972  01217A  277C               	addwf	keypadRead@keyHoldTime& (0+255),f,b
  5973  01217C  0E00               	movlw	0
  5974  01217E  237D               	addwfc	(keypadRead@keyHoldTime+1)& (0+255),f,b
  5975                           
  5976                           ; BSR set to: 0
  5977                           ;keypad.c: 79: key = keypadScan();
  5978  012180  EC1A  F091         	call	_keypadScan	;wreg free
  5979  012184  5048               	movf	?_keypadScan,w,c
  5980  012186  0100               	movlb	0	; () banked
  5981  012188  6F84               	movwf	keypadRead@key& (0+255),b	;volatile
  5982                           
  5983                           ; BSR set to: 0
  5984                           ;keypad.c: 81: if(key == NONE)
  5985  01218A  5184               	movf	keypadRead@key& (0+255),w,b	;volatile
  5986  01218C  6E4D               	movwf	??_keypadRead& (0+255),c
  5987  01218E  6A4E               	clrf	(??_keypadRead+1)& (0+255),c
  5988  012190  5026               	movf	_NONE,w,c
  5989  012192  184D               	xorwf	??_keypadRead,w,c
  5990  012194  E108               	bnz	l6290
  5991  012196  5027               	movf	_NONE+1,w,c
  5992  012198  184E               	xorwf	??_keypadRead+1,w,c
  5993  01219A  A4D8               	btfss	16344,2,c
  5994  01219C  D004               	goto	l427
  5995                           
  5996                           ; BSR set to: 0
  5997                           ;keypad.c: 82: {;keypad.c: 83: flagPressed = 0;
  5998  01219E  0E00               	movlw	0
  5999  0121A0  6F7F               	movwf	(keypadRead@flagPressed+1)& (0+255),b
  6000  0121A2  0E00               	movlw	0
  6001  0121A4  6F7E               	movwf	keypadRead@flagPressed& (0+255),b
  6002  0121A6                     l427:
  6003  0121A6                     l6290:
  6004                           
  6005                           ; BSR set to: 0
  6006                           ;keypad.c: 84: };keypad.c: 86: if (keyHoldTime == 2000)
  6007  0121A6  0ED0               	movlw	208
  6008  0121A8  197C               	xorwf	keypadRead@keyHoldTime& (0+255),w,b
  6009  0121AA  E12F               	bnz	l6308
  6010  0121AC  0E07               	movlw	7
  6011  0121AE  197D               	xorwf	(keypadRead@keyHoldTime+1)& (0+255),w,b
  6012  0121B0  A4D8               	btfss	16344,2,c
  6013  0121B2  D02B               	goto	l430
  6014                           
  6015                           ; BSR set to: 0
  6016                           ;keypad.c: 87: {;keypad.c: 88: keyHeld = key;
  6017  0121B4  0060  F210  F082   	movff	keypadRead@key,keypadRead@keyHeld	;volatile
  6018                           
  6019                           ; BSR set to: 0
  6020                           ;keypad.c: 90: if (keyBeeps == ON)
  6021  0121BA  501B               	movf	_ON,w,c
  6022  0121BC  182E               	xorwf	_keyBeeps,w,c
  6023  0121BE  E115               	bnz	l6302
  6024  0121C0  501C               	movf	_ON+1,w,c
  6025  0121C2  182F               	xorwf	_keyBeeps+1,w,c
  6026  0121C4  A4D8               	btfss	16344,2,c
  6027  0121C6  D011               	goto	l429
  6028                           
  6029                           ; BSR set to: 0
  6030                           ;keypad.c: 91: {;keypad.c: 92: quickBeep();
  6031  0121C8  EC6C  F098         	call	_quickBeep	;wreg free
  6032                           
  6033                           ;keypad.c: 93: _delay((unsigned long)((100)*(8000000/4000.0)));
  6034  0121CC  0E02               	movlw	2
  6035  0121CE  6E4E               	movwf	(??_keypadRead+1)& (0+255),c
  6036  0121D0  0E04               	movlw	4
  6037  0121D2  6E4D               	movwf	??_keypadRead& (0+255),c
  6038  0121D4  0EBA               	movlw	186
  6039  0121D6                     u9117:
  6040  0121D6  2EE8               	decfsz	16360,f,c
  6041  0121D8  D7FE               	bra	u9117
  6042  0121DA  2E4D               	decfsz	??_keypadRead& (0+255),f,c
  6043  0121DC  D7FC               	bra	u9117
  6044  0121DE  2E4E               	decfsz	(??_keypadRead+1)& (0+255),f,c
  6045  0121E0  D7FA               	bra	u9117
  6046  0121E2  D000               	nop2	
  6047                           
  6048                           ;keypad.c: 94: quickBeep();
  6049  0121E4  EC6C  F098         	call	_quickBeep	;wreg free
  6050                           
  6051                           ;keypad.c: 95: }
  6052  0121E8  D010               	goto	l430
  6053  0121EA                     l429:
  6054  0121EA                     l6302:
  6055                           
  6056                           ;keypad.c: 97: else;keypad.c: 98: {;keypad.c: 99: quickBlink();
  6057  0121EA  EC87  F098         	call	_quickBlink	;wreg free
  6058                           
  6059                           ;keypad.c: 100: _delay((unsigned long)((100)*(8000000/4000.0)));
  6060  0121EE  0E02               	movlw	2
  6061  0121F0  6E4E               	movwf	(??_keypadRead+1)& (0+255),c
  6062  0121F2  0E04               	movlw	4
  6063  0121F4  6E4D               	movwf	??_keypadRead& (0+255),c
  6064  0121F6  0EBA               	movlw	186
  6065  0121F8                     u9127:
  6066  0121F8  2EE8               	decfsz	16360,f,c
  6067  0121FA  D7FE               	bra	u9127
  6068  0121FC  2E4D               	decfsz	??_keypadRead& (0+255),f,c
  6069  0121FE  D7FC               	bra	u9127
  6070  012200  2E4E               	decfsz	(??_keypadRead+1)& (0+255),f,c
  6071  012202  D7FA               	bra	u9127
  6072  012204  D000               	nop2	
  6073                           
  6074                           ;keypad.c: 101: quickBlink();
  6075  012206  EC87  F098         	call	_quickBlink	;wreg free
  6076  01220A                     l430:
  6077  01220A                     l6308:
  6078  01220A  0100               	movlb	0	; () banked
  6079  01220C  517E               	movf	keypadRead@flagPressed& (0+255),w,b
  6080  01220E  1819               	xorwf	_TRUE,w,c
  6081  012210  E104               	bnz	u7050
  6082  012212  517F               	movf	(keypadRead@flagPressed+1)& (0+255),w,b
  6083  012214  181A               	xorwf	_TRUE+1,w,c
  6084  012216  B4D8               	btfsc	16344,2,c
  6085  012218  D7A6               	goto	l426
  6086  01221A                     u7050:
  6087                           
  6088                           ; BSR set to: 0
  6089                           ;keypad.c: 102: };keypad.c: 103: };keypad.c: 104: };keypad.c: 106: output.keyPressed = k
      +                          eyPressed;
  6090  01221A  0060  F20C  F080   	movff	keypadRead@keyPressed,keypadRead@output	;volatile
  6091                           
  6092                           ;keypad.c: 107: output.keyHeld = keyHeld;
  6093  012220  0060  F208  F081   	movff	keypadRead@keyHeld,keypadRead@output+1	;volatile
  6094                           
  6095                           ;keypad.c: 108: return output;
  6096  012226  0060  F200  F04B   	movff	keypadRead@output,?_keypadRead
  6097  01222C  0060  F204  F04C   	movff	keypadRead@output+1,?_keypadRead+1
  6098                           
  6099                           ; BSR set to: 0
  6100  012232  0012               	return		;funcret
  6101  012234                     __end_of_keypadRead:
  6102                           	opt stack 0
  6103                           
  6104 ;; *************** function _quickBlink *****************
  6105 ;; Defined at:
  6106 ;;		line 93 in file "beeper.c"
  6107 ;; Parameters:    Size  Location     Type
  6108 ;;		None
  6109 ;; Auto vars:     Size  Location     Type
  6110 ;;		None
  6111 ;; Return value:  Size  Location     Type
  6112 ;;                  1    wreg      void 
  6113 ;; Registers used:
  6114 ;;		wreg, status,2
  6115 ;; Tracked objects:
  6116 ;;		On entry : 0/0
  6117 ;;		On exit  : 0/0
  6118 ;;		Unchanged: 0/0
  6119 ;; Data sizes:     COMRAM   BANK0   BANK1   BANK2   BANK3   BANK4   BANK5   BANK6   BANK7   BANK8   BANK9  BANK10  BANK1
      +1  BANK12  BANK13  BANK14  BANK15  BANK16  BANK17  BANK18  BANK19  BANK20  BANK21  BANK22  BANK23  BANK24  BANK25  BANK2
      +6  BANK27  BANK28  BANK29  BANK30  BANK31
  6120 ;;      Params:         0       0       0       0       0       0       0       0       0       0       0       0       
      +0       0       0       0       0       0       0       0       0       0       0       0       0       0       0       
      +0       0       0       0       0       0
  6121 ;;      Locals:         0       0       0       0       0       0       0       0       0       0       0       0       
      +0       0       0       0       0       0       0       0       0       0       0       0       0       0       0       
      +0       0       0       0       0       0
  6122 ;;      Temps:          0       0       0       0       0       0       0       0       0       0       0       0       
      +0       0       0       0       0       0       0       0       0       0       0       0       0       0       0       
      +0       0       0       0       0       0
  6123 ;;      Totals:         0       0       0       0       0       0       0       0       0       0       0       0       
      +0       0       0       0       0       0       0       0       0       0       0       0       0       0       0       
      +0       0       0       0       0       0
  6124 ;;Total ram usage:        0 bytes
  6125 ;; Hardware stack levels used:    1
  6126 ;; Hardware stack levels required when called:    5
  6127 ;; This function calls:
  6128 ;;		Nothing
  6129 ;; This function is called by:
  6130 ;;		_keypadRead
  6131 ;; This function uses a non-reentrant model
  6132 ;;
  6133                           
  6134                           	psect	text22
  6135  01310E                     __ptext22:
  6136                           	opt stack 0
  6137  01310E                     _quickBlink:
  6138                           	opt stack 24
  6139                           
  6140                           ;beeper.c: 95: TMR1H = 0xCE;
  6141                           
  6142                           ; BSR set to: 0
  6143                           ;incstack = 0
  6144  01310E  0ECE               	movlw	206
  6145  013110  013F               	movlb	63	; () banked
  6146  013112  6FB1               	movwf	177,b	;volatile
  6147                           
  6148                           ;beeper.c: 96: TMR1L = 0x57;
  6149  013114  0E57               	movlw	87
  6150  013116  6FB0               	movwf	176,b	;volatile
  6151                           
  6152                           ; BSR set to: 63
  6153                           ;beeper.c: 97: LATAbits.LATA0 = 1;
  6154  013118  81BA               	bsf	186,0,b	;volatile
  6155                           
  6156                           ; BSR set to: 63
  6157                           ;beeper.c: 98: T1CONbits.ON = 1;
  6158  01311A  81B2               	bsf	178,0,b	;volatile
  6159                           
  6160                           ; BSR set to: 63
  6161  01311C  0012               	return		;funcret
  6162  01311E                     __end_of_quickBlink:
  6163                           	opt stack 0
  6164                           
  6165 ;; *************** function _quickBeep *****************
  6166 ;; Defined at:
  6167 ;;		line 84 in file "beeper.c"
  6168 ;; Parameters:    Size  Location     Type
  6169 ;;		None
  6170 ;; Auto vars:     Size  Location     Type
  6171 ;;		None
  6172 ;; Return value:  Size  Location     Type
  6173 ;;                  1    wreg      void 
  6174 ;; Registers used:
  6175 ;;		wreg, status,2
  6176 ;; Tracked objects:
  6177 ;;		On entry : 0/0
  6178 ;;		On exit  : 0/0
  6179 ;;		Unchanged: 0/0
  6180 ;; Data sizes:     COMRAM   BANK0   BANK1   BANK2   BANK3   BANK4   BANK5   BANK6   BANK7   BANK8   BANK9  BANK10  BANK1
      +1  BANK12  BANK13  BANK14  BANK15  BANK16  BANK17  BANK18  BANK19  BANK20  BANK21  BANK22  BANK23  BANK24  BANK25  BANK2
      +6  BANK27  BANK28  BANK29  BANK30  BANK31
  6181 ;;      Params:         0       0       0       0       0       0       0       0       0       0       0       0       
      +0       0       0       0       0       0       0       0       0       0       0       0       0       0       0       
      +0       0       0       0       0       0
  6182 ;;      Locals:         0       0       0       0       0       0       0       0       0       0       0       0       
      +0       0       0       0       0       0       0       0       0       0       0       0       0       0       0       
      +0       0       0       0       0       0
  6183 ;;      Temps:          0       0       0       0       0       0       0       0       0       0       0       0       
      +0       0       0       0       0       0       0       0       0       0       0       0       0       0       0       
      +0       0       0       0       0       0
  6184 ;;      Totals:         0       0       0       0       0       0       0       0       0       0       0       0       
      +0       0       0       0       0       0       0       0       0       0       0       0       0       0       0       
      +0       0       0       0       0       0
  6185 ;;Total ram usage:        0 bytes
  6186 ;; Hardware stack levels used:    1
  6187 ;; Hardware stack levels required when called:    5
  6188 ;; This function calls:
  6189 ;;		Nothing
  6190 ;; This function is called by:
  6191 ;;		_keypadRead
  6192 ;; This function uses a non-reentrant model
  6193 ;;
  6194                           
  6195                           	psect	text23
  6196  0130D8                     __ptext23:
  6197                           	opt stack 0
  6198  0130D8                     _quickBeep:
  6199                           	opt stack 24
  6200                           
  6201                           ;beeper.c: 86: TMR1H = 0xCE;
  6202                           
  6203                           ; BSR set to: 63
  6204                           ;incstack = 0
  6205  0130D8  0ECE               	movlw	206
  6206  0130DA  013F               	movlb	63	; () banked
  6207  0130DC  6FB1               	movwf	177,b	;volatile
  6208                           
  6209                           ;beeper.c: 87: TMR1L = 0x57;
  6210  0130DE  0E57               	movlw	87
  6211  0130E0  6FB0               	movwf	176,b	;volatile
  6212                           
  6213                           ; BSR set to: 63
  6214                           ;beeper.c: 88: PWM5CONbits.EN = 1;
  6215  0130E2  8F6E               	bsf	110,7,b	;volatile
  6216                           
  6217                           ; BSR set to: 63
  6218                           ;beeper.c: 89: LATAbits.LATA0 = 1;
  6219  0130E4  81BA               	bsf	186,0,b	;volatile
  6220                           
  6221                           ; BSR set to: 63
  6222                           ;beeper.c: 90: T1CONbits.ON = 1;
  6223  0130E6  81B2               	bsf	178,0,b	;volatile
  6224                           
  6225                           ; BSR set to: 63
  6226  0130E8  0012               	return		;funcret
  6227  0130EA                     __end_of_quickBeep:
  6228                           	opt stack 0
  6229                           
  6230 ;; *************** function _normalBlink *****************
  6231 ;; Defined at:
  6232 ;;		line 119 in file "beeper.c"
  6233 ;; Parameters:    Size  Location     Type
  6234 ;;		None
  6235 ;; Auto vars:     Size  Location     Type
  6236 ;;		None
  6237 ;; Return value:  Size  Location     Type
  6238 ;;                  1    wreg      void 
  6239 ;; Registers used:
  6240 ;;		wreg, status,2
  6241 ;; Tracked objects:
  6242 ;;		On entry : 0/0
  6243 ;;		On exit  : 0/0
  6244 ;;		Unchanged: 0/0
  6245 ;; Data sizes:     COMRAM   BANK0   BANK1   BANK2   BANK3   BANK4   BANK5   BANK6   BANK7   BANK8   BANK9  BANK10  BANK1
      +1  BANK12  BANK13  BANK14  BANK15  BANK16  BANK17  BANK18  BANK19  BANK20  BANK21  BANK22  BANK23  BANK24  BANK25  BANK2
      +6  BANK27  BANK28  BANK29  BANK30  BANK31
  6246 ;;      Params:         0       0       0       0       0       0       0       0       0       0       0       0       
      +0       0       0       0       0       0       0       0       0       0       0       0       0       0       0       
      +0       0       0       0       0       0
  6247 ;;      Locals:         0       0       0       0       0       0       0       0       0       0       0       0       
      +0       0       0       0       0       0       0       0       0       0       0       0       0       0       0       
      +0       0       0       0       0       0
  6248 ;;      Temps:          0       0       0       0       0       0       0       0       0       0       0       0       
      +0       0       0       0       0       0       0       0       0       0       0       0       0       0       0       
      +0       0       0       0       0       0
  6249 ;;      Totals:         0       0       0       0       0       0       0       0       0       0       0       0       
      +0       0       0       0       0       0       0       0       0       0       0       0       0       0       0       
      +0       0       0       0       0       0
  6250 ;;Total ram usage:        0 bytes
  6251 ;; Hardware stack levels used:    1
  6252 ;; Hardware stack levels required when called:    5
  6253 ;; This function calls:
  6254 ;;		Nothing
  6255 ;; This function is called by:
  6256 ;;		_keypadRead
  6257 ;; This function uses a non-reentrant model
  6258 ;;
  6259                           
  6260                           	psect	text24
  6261  01311E                     __ptext24:
  6262                           	opt stack 0
  6263  01311E                     _normalBlink:
  6264                           	opt stack 24
  6265                           
  6266                           ;beeper.c: 121: TMR1H = 0xAE;
  6267                           
  6268                           ; BSR set to: 63
  6269                           ;incstack = 0
  6270  01311E  0EAE               	movlw	174
  6271  013120  013F               	movlb	63	; () banked
  6272  013122  6FB1               	movwf	177,b	;volatile
  6273                           
  6274                           ;beeper.c: 122: TMR1L = 0x57;
  6275  013124  0E57               	movlw	87
  6276  013126  6FB0               	movwf	176,b	;volatile
  6277                           
  6278                           ; BSR set to: 63
  6279                           ;beeper.c: 123: LATAbits.LATA0 = 1;
  6280  013128  81BA               	bsf	186,0,b	;volatile
  6281                           
  6282                           ; BSR set to: 63
  6283                           ;beeper.c: 124: T1CONbits.ON = 1;
  6284  01312A  81B2               	bsf	178,0,b	;volatile
  6285                           
  6286                           ; BSR set to: 63
  6287  01312C  0012               	return		;funcret
  6288  01312E                     __end_of_normalBlink:
  6289                           	opt stack 0
  6290                           
  6291 ;; *************** function _normalBeep *****************
  6292 ;; Defined at:
  6293 ;;		line 110 in file "beeper.c"
  6294 ;; Parameters:    Size  Location     Type
  6295 ;;		None
  6296 ;; Auto vars:     Size  Location     Type
  6297 ;;		None
  6298 ;; Return value:  Size  Location     Type
  6299 ;;                  1    wreg      void 
  6300 ;; Registers used:
  6301 ;;		wreg, status,2
  6302 ;; Tracked objects:
  6303 ;;		On entry : 0/0
  6304 ;;		On exit  : 0/0
  6305 ;;		Unchanged: 0/0
  6306 ;; Data sizes:     COMRAM   BANK0   BANK1   BANK2   BANK3   BANK4   BANK5   BANK6   BANK7   BANK8   BANK9  BANK10  BANK1
      +1  BANK12  BANK13  BANK14  BANK15  BANK16  BANK17  BANK18  BANK19  BANK20  BANK21  BANK22  BANK23  BANK24  BANK25  BANK2
      +6  BANK27  BANK28  BANK29  BANK30  BANK31
  6307 ;;      Params:         0       0       0       0       0       0       0       0       0       0       0       0       
      +0       0       0       0       0       0       0       0       0       0       0       0       0       0       0       
      +0       0       0       0       0       0
  6308 ;;      Locals:         0       0       0       0       0       0       0       0       0       0       0       0       
      +0       0       0       0       0       0       0       0       0       0       0       0       0       0       0       
      +0       0       0       0       0       0
  6309 ;;      Temps:          0       0       0       0       0       0       0       0       0       0       0       0       
      +0       0       0       0       0       0       0       0       0       0       0       0       0       0       0       
      +0       0       0       0       0       0
  6310 ;;      Totals:         0       0       0       0       0       0       0       0       0       0       0       0       
      +0       0       0       0       0       0       0       0       0       0       0       0       0       0       0       
      +0       0       0       0       0       0
  6311 ;;Total ram usage:        0 bytes
  6312 ;; Hardware stack levels used:    1
  6313 ;; Hardware stack levels required when called:    5
  6314 ;; This function calls:
  6315 ;;		Nothing
  6316 ;; This function is called by:
  6317 ;;		_keypadRead
  6318 ;; This function uses a non-reentrant model
  6319 ;;
  6320                           
  6321                           	psect	text25
  6322  0130EA                     __ptext25:
  6323                           	opt stack 0
  6324  0130EA                     _normalBeep:
  6325                           	opt stack 24
  6326                           
  6327                           ;beeper.c: 112: TMR1H = 0xAE;
  6328                           
  6329                           ; BSR set to: 63
  6330                           ;incstack = 0
  6331  0130EA  0EAE               	movlw	174
  6332  0130EC  013F               	movlb	63	; () banked
  6333  0130EE  6FB1               	movwf	177,b	;volatile
  6334                           
  6335                           ;beeper.c: 113: TMR1L = 0x57;
  6336  0130F0  0E57               	movlw	87
  6337  0130F2  6FB0               	movwf	176,b	;volatile
  6338                           
  6339                           ; BSR set to: 63
  6340                           ;beeper.c: 114: PWM5CONbits.EN = 1;
  6341  0130F4  8F6E               	bsf	110,7,b	;volatile
  6342                           
  6343                           ; BSR set to: 63
  6344                           ;beeper.c: 115: LATAbits.LATA0 = 1;
  6345  0130F6  81BA               	bsf	186,0,b	;volatile
  6346                           
  6347                           ; BSR set to: 63
  6348                           ;beeper.c: 116: T1CONbits.ON = 1;
  6349  0130F8  81B2               	bsf	178,0,b	;volatile
  6350                           
  6351                           ; BSR set to: 63
  6352  0130FA  0012               	return		;funcret
  6353  0130FC                     __end_of_normalBeep:
  6354                           	opt stack 0
  6355                           
  6356 ;; *************** function _keypadScan *****************
  6357 ;; Defined at:
  6358 ;;		line 112 in file "keypad.c"
  6359 ;; Parameters:    Size  Location     Type
  6360 ;;		None
  6361 ;; Auto vars:     Size  Location     Type
  6362 ;;		None
  6363 ;; Return value:  Size  Location     Type
  6364 ;;                  2   12[COMRAM] int 
  6365 ;; Registers used:
  6366 ;;		wreg, status,2
  6367 ;; Tracked objects:
  6368 ;;		On entry : 0/0
  6369 ;;		On exit  : 0/0
  6370 ;;		Unchanged: 0/0
  6371 ;; Data sizes:     COMRAM   BANK0   BANK1   BANK2   BANK3   BANK4   BANK5   BANK6   BANK7   BANK8   BANK9  BANK10  BANK1
      +1  BANK12  BANK13  BANK14  BANK15  BANK16  BANK17  BANK18  BANK19  BANK20  BANK21  BANK22  BANK23  BANK24  BANK25  BANK2
      +6  BANK27  BANK28  BANK29  BANK30  BANK31
  6372 ;;      Params:         2       0       0       0       0       0       0       0       0       0       0       0       
      +0       0       0       0       0       0       0       0       0       0       0       0       0       0       0       
      +0       0       0       0       0       0
  6373 ;;      Locals:         0       0       0       0       0       0       0       0       0       0       0       0       
      +0       0       0       0       0       0       0       0       0       0       0       0       0       0       0       
      +0       0       0       0       0       0
  6374 ;;      Temps:          1       0       0       0       0       0       0       0       0       0       0       0       
      +0       0       0       0       0       0       0       0       0       0       0       0       0       0       0       
      +0       0       0       0       0       0
  6375 ;;      Totals:         3       0       0       0       0       0       0       0       0       0       0       0       
      +0       0       0       0       0       0       0       0       0       0       0       0       0       0       0       
      +0       0       0       0       0       0
  6376 ;;Total ram usage:        3 bytes
  6377 ;; Hardware stack levels used:    1
  6378 ;; Hardware stack levels required when called:    5
  6379 ;; This function calls:
  6380 ;;		Nothing
  6381 ;; This function is called by:
  6382 ;;		_keypadRead
  6383 ;; This function uses a non-reentrant model
  6384 ;;
  6385                           
  6386                           	psect	text26
  6387  012234                     __ptext26:
  6388                           	opt stack 0
  6389  012234                     _keypadScan:
  6390                           	opt stack 24
  6391                           
  6392                           ;keypad.c: 115: LATBbits.LATB0 = 1;
  6393                           
  6394                           ; BSR set to: 63
  6395                           ;incstack = 0
  6396  012234  013F               	movlb	63	; () banked
  6397  012236  81BB               	bsf	187,0,b	;volatile
  6398                           
  6399                           ;keypad.c: 116: if (PORTBbits.RB4 == 1){LATBbits.LATB0=0;return '1'; }
  6400  012238  A9CB               	btfss	203,4,b	;volatile
  6401  01223A  D006               	goto	l435
  6402                           
  6403                           ; BSR set to: 63
  6404  01223C  91BB               	bcf	187,0,b	;volatile
  6405                           
  6406                           ; BSR set to: 63
  6407  01223E  0E00               	movlw	0
  6408  012240  6E49               	movwf	?_keypadScan+1,c
  6409  012242  0E31               	movlw	49
  6410  012244                     L10:
  6411  012244  6E48               	movwf	?_keypadScan,c
  6412                           
  6413                           ; BSR set to: 63
  6414  012246  0012               	return	
  6415  012248                     l435:
  6416                           
  6417                           ; BSR set to: 63
  6418                           ;keypad.c: 117: else if(PORTBbits.RB5 == 1){LATBbits.LATB0=0;return '2'; }
  6419  012248  ABCB               	btfss	203,5,b	;volatile
  6420  01224A  D005               	goto	l438
  6421                           
  6422                           ; BSR set to: 63
  6423  01224C  91BB               	bcf	187,0,b	;volatile
  6424                           
  6425                           ; BSR set to: 63
  6426  01224E  0E00               	movlw	0
  6427  012250  6E49               	movwf	?_keypadScan+1,c
  6428  012252  0E32               	movlw	50
  6429  012254  D7F7               	goto	L10
  6430  012256                     l438:
  6431                           
  6432                           ; BSR set to: 63
  6433                           ;keypad.c: 118: else if(PORTBbits.RB6 == 1){LATBbits.LATB0=0;return '3'; }
  6434  012256  ADCB               	btfss	203,6,b	;volatile
  6435  012258  D005               	goto	l440
  6436                           
  6437                           ; BSR set to: 63
  6438  01225A  91BB               	bcf	187,0,b	;volatile
  6439                           
  6440                           ; BSR set to: 63
  6441  01225C  0E00               	movlw	0
  6442  01225E  6E49               	movwf	?_keypadScan+1,c
  6443  012260  0E33               	movlw	51
  6444  012262  D7F0               	goto	L10
  6445  012264                     l440:
  6446                           
  6447                           ; BSR set to: 63
  6448                           ;keypad.c: 119: else if(PORTBbits.RB7 == 1){LATBbits.LATB0=0;return 'A'; }
  6449  012264  AFCB               	btfss	203,7,b	;volatile
  6450  012266  D005               	goto	l442
  6451                           
  6452                           ; BSR set to: 63
  6453  012268  91BB               	bcf	187,0,b	;volatile
  6454                           
  6455                           ; BSR set to: 63
  6456  01226A  0E00               	movlw	0
  6457  01226C  6E49               	movwf	?_keypadScan+1,c
  6458  01226E  0E41               	movlw	65
  6459  012270  D7E9               	goto	L10
  6460  012272                     l442:
  6461                           
  6462                           ; BSR set to: 63
  6463                           ;keypad.c: 120: else {LATBbits.LATB0 = 0;}
  6464  012272  91BB               	bcf	187,0,b	;volatile
  6465                           
  6466                           ; BSR set to: 63
  6467                           ;keypad.c: 121: _delay((unsigned long)((1)*(8000000/4000.0)));
  6468                           
  6469                           ; BSR set to: 63
  6470                           
  6471                           ; BSR set to: 63
  6472                           
  6473                           ; BSR set to: 63
  6474                           
  6475                           ; BSR set to: 63
  6476  012274  0E03               	movlw	3
  6477  012276  6E4A               	movwf	??_keypadScan& (0+255),c
  6478  012278  0E98               	movlw	152
  6479  01227A                     u9137:
  6480  01227A  2EE8               	decfsz	16360,f,c
  6481  01227C  D7FE               	bra	u9137
  6482  01227E  2E4A               	decfsz	??_keypadScan& (0+255),f,c
  6483  012280  D7FC               	bra	u9137
  6484                           
  6485                           ;keypad.c: 123: LATBbits.LATB1 = 1;
  6486  012282  013F               	movlb	63	; () banked
  6487  012284  83BB               	bsf	187,1,b	;volatile
  6488                           
  6489                           ; BSR set to: 63
  6490                           ;keypad.c: 124: if (PORTBbits.RB4 == 1){LATBbits.LATB1=0;return '4';}
  6491  012286  A9CB               	btfss	203,4,b	;volatile
  6492  012288  D006               	goto	l444
  6493                           
  6494                           ; BSR set to: 63
  6495  01228A  93BB               	bcf	187,1,b	;volatile
  6496                           
  6497                           ; BSR set to: 63
  6498  01228C  0E00               	movlw	0
  6499  01228E  6E49               	movwf	?_keypadScan+1,c
  6500  012290  0E34               	movlw	52
  6501  012292                     L11:
  6502  012292  6E48               	movwf	?_keypadScan,c
  6503                           
  6504                           ; BSR set to: 63
  6505  012294  0012               	return	
  6506  012296                     l444:
  6507                           
  6508                           ; BSR set to: 63
  6509                           ;keypad.c: 125: else if(PORTBbits.RB5 == 1){LATBbits.LATB1=0;return '5';}
  6510  012296  ABCB               	btfss	203,5,b	;volatile
  6511  012298  D005               	goto	l446
  6512                           
  6513                           ; BSR set to: 63
  6514  01229A  93BB               	bcf	187,1,b	;volatile
  6515                           
  6516                           ; BSR set to: 63
  6517  01229C  0E00               	movlw	0
  6518  01229E  6E49               	movwf	?_keypadScan+1,c
  6519  0122A0  0E35               	movlw	53
  6520  0122A2  D7F7               	goto	L11
  6521  0122A4                     l446:
  6522                           
  6523                           ; BSR set to: 63
  6524                           ;keypad.c: 126: else if(PORTBbits.RB6 == 1){LATBbits.LATB1=0;return '6';}
  6525  0122A4  ADCB               	btfss	203,6,b	;volatile
  6526  0122A6  D005               	goto	l448
  6527                           
  6528                           ; BSR set to: 63
  6529  0122A8  93BB               	bcf	187,1,b	;volatile
  6530                           
  6531                           ; BSR set to: 63
  6532  0122AA  0E00               	movlw	0
  6533  0122AC  6E49               	movwf	?_keypadScan+1,c
  6534  0122AE  0E36               	movlw	54
  6535  0122B0  D7F0               	goto	L11
  6536  0122B2                     l448:
  6537                           
  6538                           ; BSR set to: 63
  6539                           ;keypad.c: 127: else if(PORTBbits.RB7 == 1){LATBbits.LATB1=0;return 'B';}
  6540  0122B2  AFCB               	btfss	203,7,b	;volatile
  6541  0122B4  D005               	goto	l450
  6542                           
  6543                           ; BSR set to: 63
  6544  0122B6  93BB               	bcf	187,1,b	;volatile
  6545                           
  6546                           ; BSR set to: 63
  6547  0122B8  0E00               	movlw	0
  6548  0122BA  6E49               	movwf	?_keypadScan+1,c
  6549  0122BC  0E42               	movlw	66
  6550  0122BE  D7E9               	goto	L11
  6551  0122C0                     l450:
  6552                           
  6553                           ; BSR set to: 63
  6554                           ;keypad.c: 128: else {LATBbits.LATB1 = 0;}
  6555  0122C0  93BB               	bcf	187,1,b	;volatile
  6556                           
  6557                           ; BSR set to: 63
  6558                           ;keypad.c: 129: _delay((unsigned long)((1)*(8000000/4000.0)));
  6559                           
  6560                           ; BSR set to: 63
  6561                           
  6562                           ; BSR set to: 63
  6563                           
  6564                           ; BSR set to: 63
  6565                           
  6566                           ; BSR set to: 63
  6567  0122C2  0E03               	movlw	3
  6568  0122C4  6E4A               	movwf	??_keypadScan& (0+255),c
  6569  0122C6  0E98               	movlw	152
  6570  0122C8                     u9147:
  6571  0122C8  2EE8               	decfsz	16360,f,c
  6572  0122CA  D7FE               	bra	u9147
  6573  0122CC  2E4A               	decfsz	??_keypadScan& (0+255),f,c
  6574  0122CE  D7FC               	bra	u9147
  6575                           
  6576                           ;keypad.c: 131: LATBbits.LATB2 = 1;
  6577  0122D0  013F               	movlb	63	; () banked
  6578  0122D2  85BB               	bsf	187,2,b	;volatile
  6579                           
  6580                           ; BSR set to: 63
  6581                           ;keypad.c: 132: if (PORTBbits.RB4 == 1){LATBbits.LATB2=0;return '7';}
  6582  0122D4  A9CB               	btfss	203,4,b	;volatile
  6583  0122D6  D006               	goto	l452
  6584                           
  6585                           ; BSR set to: 63
  6586  0122D8  95BB               	bcf	187,2,b	;volatile
  6587                           
  6588                           ; BSR set to: 63
  6589  0122DA  0E00               	movlw	0
  6590  0122DC  6E49               	movwf	?_keypadScan+1,c
  6591  0122DE  0E37               	movlw	55
  6592  0122E0                     L12:
  6593  0122E0  6E48               	movwf	?_keypadScan,c
  6594                           
  6595                           ; BSR set to: 63
  6596  0122E2  0012               	return	
  6597  0122E4                     l452:
  6598                           
  6599                           ; BSR set to: 63
  6600                           ;keypad.c: 133: else if(PORTBbits.RB5 == 1){LATBbits.LATB2=0;return '8';}
  6601  0122E4  ABCB               	btfss	203,5,b	;volatile
  6602  0122E6  D005               	goto	l454
  6603                           
  6604                           ; BSR set to: 63
  6605  0122E8  95BB               	bcf	187,2,b	;volatile
  6606                           
  6607                           ; BSR set to: 63
  6608  0122EA  0E00               	movlw	0
  6609  0122EC  6E49               	movwf	?_keypadScan+1,c
  6610  0122EE  0E38               	movlw	56
  6611  0122F0  D7F7               	goto	L12
  6612  0122F2                     l454:
  6613                           
  6614                           ; BSR set to: 63
  6615                           ;keypad.c: 134: else if(PORTBbits.RB6 == 1){LATBbits.LATB2=0;return '9';}
  6616  0122F2  ADCB               	btfss	203,6,b	;volatile
  6617  0122F4  D005               	goto	l456
  6618                           
  6619                           ; BSR set to: 63
  6620  0122F6  95BB               	bcf	187,2,b	;volatile
  6621                           
  6622                           ; BSR set to: 63
  6623  0122F8  0E00               	movlw	0
  6624  0122FA  6E49               	movwf	?_keypadScan+1,c
  6625  0122FC  0E39               	movlw	57
  6626  0122FE  D7F0               	goto	L12
  6627  012300                     l456:
  6628                           
  6629                           ; BSR set to: 63
  6630                           ;keypad.c: 135: else if(PORTBbits.RB7 == 1){LATBbits.LATB2=0;return 'C';}
  6631  012300  AFCB               	btfss	203,7,b	;volatile
  6632  012302  D005               	goto	l458
  6633                           
  6634                           ; BSR set to: 63
  6635  012304  95BB               	bcf	187,2,b	;volatile
  6636                           
  6637                           ; BSR set to: 63
  6638  012306  0E00               	movlw	0
  6639  012308  6E49               	movwf	?_keypadScan+1,c
  6640  01230A  0E43               	movlw	67
  6641  01230C  D7E9               	goto	L12
  6642  01230E                     l458:
  6643                           
  6644                           ; BSR set to: 63
  6645                           ;keypad.c: 136: else {LATBbits.LATB2 = 0;}
  6646  01230E  95BB               	bcf	187,2,b	;volatile
  6647                           
  6648                           ; BSR set to: 63
  6649                           ;keypad.c: 137: _delay((unsigned long)((1)*(8000000/4000.0)));
  6650                           
  6651                           ; BSR set to: 63
  6652                           
  6653                           ; BSR set to: 63
  6654                           
  6655                           ; BSR set to: 63
  6656                           
  6657                           ; BSR set to: 63
  6658  012310  0E03               	movlw	3
  6659  012312  6E4A               	movwf	??_keypadScan& (0+255),c
  6660  012314  0E98               	movlw	152
  6661  012316                     u9157:
  6662  012316  2EE8               	decfsz	16360,f,c
  6663  012318  D7FE               	bra	u9157
  6664  01231A  2E4A               	decfsz	??_keypadScan& (0+255),f,c
  6665  01231C  D7FC               	bra	u9157
  6666                           
  6667                           ;keypad.c: 139: LATBbits.LATB3 = 1;
  6668  01231E  013F               	movlb	63	; () banked
  6669  012320  87BB               	bsf	187,3,b	;volatile
  6670                           
  6671                           ; BSR set to: 63
  6672                           ;keypad.c: 140: if (PORTBbits.RB4 == 1){LATBbits.LATB3=0;return '*'; }
  6673  012322  A9CB               	btfss	203,4,b	;volatile
  6674  012324  D006               	goto	l460
  6675                           
  6676                           ; BSR set to: 63
  6677  012326  97BB               	bcf	187,3,b	;volatile
  6678                           
  6679                           ; BSR set to: 63
  6680  012328  0E00               	movlw	0
  6681  01232A  6E49               	movwf	?_keypadScan+1,c
  6682  01232C  0E2A               	movlw	42
  6683  01232E                     L13:
  6684  01232E  6E48               	movwf	?_keypadScan,c
  6685                           
  6686                           ; BSR set to: 63
  6687  012330  0012               	return	
  6688  012332                     l460:
  6689                           
  6690                           ; BSR set to: 63
  6691                           ;keypad.c: 141: else if(PORTBbits.RB5 == 1){LATBbits.LATB3=0;return '0'; }
  6692  012332  ABCB               	btfss	203,5,b	;volatile
  6693  012334  D005               	goto	l462
  6694                           
  6695                           ; BSR set to: 63
  6696  012336  97BB               	bcf	187,3,b	;volatile
  6697                           
  6698                           ; BSR set to: 63
  6699  012338  0E00               	movlw	0
  6700  01233A  6E49               	movwf	?_keypadScan+1,c
  6701  01233C  0E30               	movlw	48
  6702  01233E  D7F7               	goto	L13
  6703  012340                     l462:
  6704                           
  6705                           ; BSR set to: 63
  6706                           ;keypad.c: 142: else if(PORTBbits.RB6 == 1){LATBbits.LATB3=0;return '#'; }
  6707  012340  ADCB               	btfss	203,6,b	;volatile
  6708  012342  D005               	goto	l464
  6709                           
  6710                           ; BSR set to: 63
  6711  012344  97BB               	bcf	187,3,b	;volatile
  6712                           
  6713                           ; BSR set to: 63
  6714  012346  0E00               	movlw	0
  6715  012348  6E49               	movwf	?_keypadScan+1,c
  6716  01234A  0E23               	movlw	35
  6717  01234C  D7F0               	goto	L13
  6718  01234E                     l464:
  6719                           
  6720                           ; BSR set to: 63
  6721                           ;keypad.c: 143: else if(PORTBbits.RB7 == 1){LATBbits.LATB3=0;return 'D'; }
  6722  01234E  AFCB               	btfss	203,7,b	;volatile
  6723  012350  D005               	goto	l466
  6724                           
  6725                           ; BSR set to: 63
  6726  012352  97BB               	bcf	187,3,b	;volatile
  6727                           
  6728                           ; BSR set to: 63
  6729  012354  0E00               	movlw	0
  6730  012356  6E49               	movwf	?_keypadScan+1,c
  6731  012358  0E44               	movlw	68
  6732  01235A  D7E9               	goto	L13
  6733  01235C                     l466:
  6734                           
  6735                           ; BSR set to: 63
  6736                           ;keypad.c: 144: else {LATBbits.LATB3 = 0;}
  6737  01235C  97BB               	bcf	187,3,b	;volatile
  6738                           
  6739                           ; BSR set to: 63
  6740                           ;keypad.c: 145: _delay((unsigned long)((1)*(8000000/4000.0)));
  6741                           
  6742                           ; BSR set to: 63
  6743                           
  6744                           ; BSR set to: 63
  6745                           
  6746                           ; BSR set to: 63
  6747                           
  6748                           ; BSR set to: 63
  6749  01235E  0E03               	movlw	3
  6750  012360  6E4A               	movwf	??_keypadScan& (0+255),c
  6751  012362  0E98               	movlw	152
  6752  012364                     u9167:
  6753  012364  2EE8               	decfsz	16360,f,c
  6754  012366  D7FE               	bra	u9167
  6755  012368  2E4A               	decfsz	??_keypadScan& (0+255),f,c
  6756  01236A  D7FC               	bra	u9167
  6757                           
  6758                           ;keypad.c: 147: return 0;
  6759  01236C  0E00               	movlw	0
  6760  01236E  6E49               	movwf	?_keypadScan+1,c
  6761  012370  0E00               	movlw	0
  6762  012372  6E48               	movwf	?_keypadScan,c
  6763  012374  0012               	return	
  6764  012376                     __end_of_keypadScan:
  6765                           	opt stack 0
  6766                           
  6767 ;; *************** function _disarmedPageReset *****************
  6768 ;; Defined at:
  6769 ;;		line 77 in file "main.c"
  6770 ;; Parameters:    Size  Location     Type
  6771 ;;		None
  6772 ;; Auto vars:     Size  Location     Type
  6773 ;;		None
  6774 ;; Return value:  Size  Location     Type
  6775 ;;                  1    wreg      void 
  6776 ;; Registers used:
  6777 ;;		wreg, fsr2l, fsr2h, status,2, status,0, tblptrl, tblptrh, tblptru, cstack
  6778 ;; Tracked objects:
  6779 ;;		On entry : 0/0
  6780 ;;		On exit  : 0/0
  6781 ;;		Unchanged: 0/0
  6782 ;; Data sizes:     COMRAM   BANK0   BANK1   BANK2   BANK3   BANK4   BANK5   BANK6   BANK7   BANK8   BANK9  BANK10  BANK1
      +1  BANK12  BANK13  BANK14  BANK15  BANK16  BANK17  BANK18  BANK19  BANK20  BANK21  BANK22  BANK23  BANK24  BANK25  BANK2
      +6  BANK27  BANK28  BANK29  BANK30  BANK31
  6783 ;;      Params:         0       0       0       0       0       0       0       0       0       0       0       0       
      +0       0       0       0       0       0       0       0       0       0       0       0       0       0       0       
      +0       0       0       0       0       0
  6784 ;;      Locals:         0       0       0       0       0       0       0       0       0       0       0       0       
      +0       0       0       0       0       0       0       0       0       0       0       0       0       0       0       
      +0       0       0       0       0       0
  6785 ;;      Temps:          0       0       0       0       0       0       0       0       0       0       0       0       
      +0       0       0       0       0       0       0       0       0       0       0       0       0       0       0       
      +0       0       0       0       0       0
  6786 ;;      Totals:         0       0       0       0       0       0       0       0       0       0       0       0       
      +0       0       0       0       0       0       0       0       0       0       0       0       0       0       0       
      +0       0       0       0       0       0
  6787 ;;Total ram usage:        0 bytes
  6788 ;; Hardware stack levels used:    1
  6789 ;; Hardware stack levels required when called:    8
  6790 ;; This function calls:
  6791 ;;		_LCD_Clear
  6792 ;;		_LCD_Set_Cursor
  6793 ;;		_LCD_Write_String
  6794 ;;		_LCD_printNowCountdown
  6795 ;;		_LCD_resetPasswordEntry
  6796 ;;		_resetEntry
  6797 ;; This function is called by:
  6798 ;;		_main
  6799 ;; This function uses a non-reentrant model
  6800 ;;
  6801                           
  6802                           	psect	text27
  6803  012CB2                     __ptext27:
  6804                           	opt stack 0
  6805  012CB2                     _disarmedPageReset:
  6806                           	opt stack 22
  6807                           
  6808                           ;main.c: 79: keyIterrator = 0;
  6809                           
  6810                           ;incstack = 0
  6811  012CB2  0E00               	movlw	0
  6812  012CB4  6E37               	movwf	_keyIterrator+1,c
  6813  012CB6  0E00               	movlw	0
  6814  012CB8  6E36               	movwf	_keyIterrator,c
  6815                           
  6816                           ;main.c: 80: resetEntry(userPswdEntry);
  6817  012CBA  0E93               	movlw	low _userPswdEntry
  6818  012CBC  6E4E               	movwf	resetEntry@str,c
  6819  012CBE  0E00               	movlw	high _userPswdEntry
  6820  012CC0  6E4F               	movwf	resetEntry@str+1,c
  6821  012CC2  EC7A  F096         	call	_resetEntry	;wreg free
  6822                           
  6823                           ;main.c: 81: LCD_Clear();
  6824  012CC6  ECE5  F097         	call	_LCD_Clear	;wreg free
  6825                           
  6826                           ;main.c: 82: LCD_Set_Cursor(1,1);
  6827  012CCA  0E00               	movlw	0
  6828  012CCC  6E4A               	movwf	LCD_Set_Cursor@c+1,c
  6829  012CCE  0E01               	movlw	1
  6830  012CD0  6E49               	movwf	LCD_Set_Cursor@c,c
  6831  012CD2  0E00               	movlw	0
  6832  012CD4  6E4C               	movwf	LCD_Set_Cursor@d+1,c
  6833  012CD6  0E01               	movlw	1
  6834  012CD8  6E4B               	movwf	LCD_Set_Cursor@d,c
  6835  012CDA  EC3A  F097         	call	_LCD_Set_Cursor	;wreg free
  6836                           
  6837                           ;main.c: 83: LCD_Write_String("STOPED  ");
  6838  012CDE  0ECC               	movlw	low STR_12
  6839  012CE0  6E49               	movwf	LCD_Write_String@f,c
  6840  012CE2  0EFF               	movlw	high STR_12
  6841  012CE4  6E4A               	movwf	LCD_Write_String@f+1,c
  6842  012CE6  EC31  F095         	call	_LCD_Write_String	;wreg free
  6843                           
  6844                           ;main.c: 84: LCD_printNowCountdown();
  6845  012CEA  EC83  F095         	call	_LCD_printNowCountdown	;wreg free
  6846                           
  6847                           ;main.c: 85: LCD_resetPasswordEntry();
  6848  012CEE  ECEE  F096         	call	_LCD_resetPasswordEntry	;wreg free
  6849  012CF2  0012               	return		;funcret
  6850  012CF4                     __end_of_disarmedPageReset:
  6851                           	opt stack 0
  6852                           
  6853 ;; *************** function _LCD_printNowCountdown *****************
  6854 ;; Defined at:
  6855 ;;		line 153 in file "lcd.c"
  6856 ;; Parameters:    Size  Location     Type
  6857 ;;		None
  6858 ;; Auto vars:     Size  Location     Type
  6859 ;;  i               2   18[COMRAM] int 
  6860 ;; Return value:  Size  Location     Type
  6861 ;;                  1    wreg      void 
  6862 ;; Registers used:
  6863 ;;		wreg, fsr2l, fsr2h, status,2, status,0, cstack
  6864 ;; Tracked objects:
  6865 ;;		On entry : 0/0
  6866 ;;		On exit  : 0/0
  6867 ;;		Unchanged: 0/0
  6868 ;; Data sizes:     COMRAM   BANK0   BANK1   BANK2   BANK3   BANK4   BANK5   BANK6   BANK7   BANK8   BANK9  BANK10  BANK1
      +1  BANK12  BANK13  BANK14  BANK15  BANK16  BANK17  BANK18  BANK19  BANK20  BANK21  BANK22  BANK23  BANK24  BANK25  BANK2
      +6  BANK27  BANK28  BANK29  BANK30  BANK31
  6869 ;;      Params:         0       0       0       0       0       0       0       0       0       0       0       0       
      +0       0       0       0       0       0       0       0       0       0       0       0       0       0       0       
      +0       0       0       0       0       0
  6870 ;;      Locals:         2       0       0       0       0       0       0       0       0       0       0       0       
      +0       0       0       0       0       0       0       0       0       0       0       0       0       0       0       
      +0       0       0       0       0       0
  6871 ;;      Temps:          0       0       0       0       0       0       0       0       0       0       0       0       
      +0       0       0       0       0       0       0       0       0       0       0       0       0       0       0       
      +0       0       0       0       0       0
  6872 ;;      Totals:         2       0       0       0       0       0       0       0       0       0       0       0       
      +0       0       0       0       0       0       0       0       0       0       0       0       0       0       0       
      +0       0       0       0       0       0
  6873 ;;Total ram usage:        2 bytes
  6874 ;; Hardware stack levels used:    1
  6875 ;; Hardware stack levels required when called:    7
  6876 ;; This function calls:
  6877 ;;		_LCD_Set_Cursor
  6878 ;;		_LCD_Write_Char
  6879 ;; This function is called by:
  6880 ;;		_stanbyPageReset
  6881 ;;		_disarmedPageReset
  6882 ;;		_main
  6883 ;; This function uses a non-reentrant model
  6884 ;;
  6885                           
  6886                           	psect	text28
  6887  012B06                     __ptext28:
  6888                           	opt stack 0
  6889  012B06                     _LCD_printNowCountdown:
  6890                           	opt stack 22
  6891                           
  6892                           ;lcd.c: 155: for(int i=0;i<=7;i++)
  6893                           
  6894                           ;incstack = 0
  6895  012B06  0E00               	movlw	0
  6896  012B08  6E4F               	movwf	LCD_printNowCountdown@i+1,c
  6897  012B0A  0E00               	movlw	0
  6898  012B0C  6E4E               	movwf	LCD_printNowCountdown@i,c
  6899  012B0E                     l5878:
  6900  012B0E  BE4F               	btfsc	LCD_printNowCountdown@i+1,7,c
  6901  012B10  D006               	goto	l586
  6902  012B12  504F               	movf	LCD_printNowCountdown@i+1,w,c
  6903  012B14  E11C               	bnz	l588
  6904  012B16  0E08               	movlw	8
  6905  012B18  5C4E               	subwf	LCD_printNowCountdown@i,w,c
  6906  012B1A  B0D8               	btfsc	16344,0,c
  6907  012B1C  0012               	return	
  6908  012B1E                     l586:
  6909                           
  6910                           ;lcd.c: 156: {;lcd.c: 157: LCD_Set_Cursor(1,9+i);
  6911  012B1E  0E00               	movlw	0
  6912  012B20  6E4A               	movwf	LCD_Set_Cursor@c+1,c
  6913  012B22  0E01               	movlw	1
  6914  012B24  6E49               	movwf	LCD_Set_Cursor@c,c
  6915  012B26  0E09               	movlw	9
  6916  012B28  244E               	addwf	LCD_printNowCountdown@i,w,c
  6917  012B2A  6E4B               	movwf	LCD_Set_Cursor@d,c
  6918  012B2C  0E00               	movlw	0
  6919  012B2E  204F               	addwfc	LCD_printNowCountdown@i+1,w,c
  6920  012B30  6E4C               	movwf	LCD_Set_Cursor@d+1,c
  6921  012B32  EC3A  F097         	call	_LCD_Set_Cursor	;wreg free
  6922                           
  6923                           ;lcd.c: 158: LCD_Write_Char(strCountdownNowTime[i]);
  6924  012B36  0E68               	movlw	low _strCountdownNowTime
  6925  012B38  244E               	addwf	LCD_printNowCountdown@i,w,c
  6926  012B3A  6ED9               	movwf	16345,c
  6927  012B3C  0E00               	movlw	high _strCountdownNowTime
  6928  012B3E  204F               	addwfc	LCD_printNowCountdown@i+1,w,c
  6929  012B40  6EDA               	movwf	16346,c
  6930  012B42  50DF               	movf	16351,w,c
  6931  012B44  ECB3  F097         	call	_LCD_Write_Char
  6932  012B48  4A4E               	infsnz	LCD_printNowCountdown@i,f,c
  6933  012B4A  2A4F               	incf	LCD_printNowCountdown@i+1,f,c
  6934  012B4C  D7E0               	goto	l5878
  6935  012B4E                     l588:
  6936  012B4E  0012               	return		;funcret
  6937  012B50                     __end_of_LCD_printNowCountdown:
  6938                           	opt stack 0
  6939                           
  6940 ;; *************** function _LCD_Clear *****************
  6941 ;; Defined at:
  6942 ;;		line 52 in file "lcd.c"
  6943 ;; Parameters:    Size  Location     Type
  6944 ;;		None
  6945 ;; Auto vars:     Size  Location     Type
  6946 ;;		None
  6947 ;; Return value:  Size  Location     Type
  6948 ;;                  1    wreg      void 
  6949 ;; Registers used:
  6950 ;;		wreg, status,2, status,0
  6951 ;; Tracked objects:
  6952 ;;		On entry : 0/0
  6953 ;;		On exit  : 0/0
  6954 ;;		Unchanged: 0/0
  6955 ;; Data sizes:     COMRAM   BANK0   BANK1   BANK2   BANK3   BANK4   BANK5   BANK6   BANK7   BANK8   BANK9  BANK10  BANK1
      +1  BANK12  BANK13  BANK14  BANK15  BANK16  BANK17  BANK18  BANK19  BANK20  BANK21  BANK22  BANK23  BANK24  BANK25  BANK2
      +6  BANK27  BANK28  BANK29  BANK30  BANK31
  6956 ;;      Params:         0       0       0       0       0       0       0       0       0       0       0       0       
      +0       0       0       0       0       0       0       0       0       0       0       0       0       0       0       
      +0       0       0       0       0       0
  6957 ;;      Locals:         0       0       0       0       0       0       0       0       0       0       0       0       
      +0       0       0       0       0       0       0       0       0       0       0       0       0       0       0       
      +0       0       0       0       0       0
  6958 ;;      Temps:          1       0       0       0       0       0       0       0       0       0       0       0       
      +0       0       0       0       0       0       0       0       0       0       0       0       0       0       0       
      +0       0       0       0       0       0
  6959 ;;      Totals:         1       0       0       0       0       0       0       0       0       0       0       0       
      +0       0       0       0       0       0       0       0       0       0       0       0       0       0       0       
      +0       0       0       0       0       0
  6960 ;;Total ram usage:        1 bytes
  6961 ;; Hardware stack levels used:    1
  6962 ;; Hardware stack levels required when called:    5
  6963 ;; This function calls:
  6964 ;;		Nothing
  6965 ;; This function is called by:
  6966 ;;		_LCD_Initialize
  6967 ;;		_stanbyPageReset
  6968 ;;		_disarmedPageReset
  6969 ;; This function uses a non-reentrant model
  6970 ;;
  6971                           
  6972                           	psect	text29
  6973  012FCA                     __ptext29:
  6974                           	opt stack 0
  6975  012FCA                     _LCD_Clear:
  6976                           	opt stack 24
  6977                           
  6978                           ;lcd.c: 54: LATCbits.LATC6 = 0;
  6979                           
  6980                           ;incstack = 0
  6981  012FCA  013F               	movlb	63	; () banked
  6982  012FCC  9DBC               	bcf	188,6,b	;volatile
  6983                           
  6984                           ; BSR set to: 63
  6985                           ;lcd.c: 55: LATD &= 0x01;
  6986  012FCE  0E01               	movlw	1
  6987  012FD0  17BD               	andwf	189,f,b	;volatile
  6988                           
  6989                           ; BSR set to: 63
  6990                           ;lcd.c: 56: LATCbits.LATC7 = 1;
  6991  012FD2  8FBC               	bsf	188,7,b	;volatile
  6992                           
  6993                           ; BSR set to: 63
  6994                           ;lcd.c: 57: _delay((unsigned long)((4)*(8000000/4000.0)));
  6995  012FD4  0E0B               	movlw	11
  6996  012FD6  6E48               	movwf	??_LCD_Clear& (0+255),c
  6997  012FD8  0E62               	movlw	98
  6998  012FDA                     u9177:
  6999  012FDA  2EE8               	decfsz	16360,f,c
  7000  012FDC  D7FE               	bra	u9177
  7001  012FDE  2E48               	decfsz	??_LCD_Clear& (0+255),f,c
  7002  012FE0  D7FC               	bra	u9177
  7003  012FE2  D000               	nop2	
  7004                           
  7005                           ;lcd.c: 58: LATCbits.LATC7 = 0;
  7006  012FE4  013F               	movlb	63	; () banked
  7007  012FE6  9FBC               	bcf	188,7,b	;volatile
  7008                           
  7009                           ; BSR set to: 63
  7010  012FE8  0012               	return		;funcret
  7011  012FEA                     __end_of_LCD_Clear:
  7012                           	opt stack 0
  7013                           
  7014 ;; *************** function _disarmBeep *****************
  7015 ;; Defined at:
  7016 ;;		line 145 in file "beeper.c"
  7017 ;; Parameters:    Size  Location     Type
  7018 ;;		None
  7019 ;; Auto vars:     Size  Location     Type
  7020 ;;		None
  7021 ;; Return value:  Size  Location     Type
  7022 ;;                  1    wreg      void 
  7023 ;; Registers used:
  7024 ;;		wreg, status,2, cstack
  7025 ;; Tracked objects:
  7026 ;;		On entry : 0/0
  7027 ;;		On exit  : 0/0
  7028 ;;		Unchanged: 0/0
  7029 ;; Data sizes:     COMRAM   BANK0   BANK1   BANK2   BANK3   BANK4   BANK5   BANK6   BANK7   BANK8   BANK9  BANK10  BANK1
      +1  BANK12  BANK13  BANK14  BANK15  BANK16  BANK17  BANK18  BANK19  BANK20  BANK21  BANK22  BANK23  BANK24  BANK25  BANK2
      +6  BANK27  BANK28  BANK29  BANK30  BANK31
  7030 ;;      Params:         0       0       0       0       0       0       0       0       0       0       0       0       
      +0       0       0       0       0       0       0       0       0       0       0       0       0       0       0       
      +0       0       0       0       0       0
  7031 ;;      Locals:         0       0       0       0       0       0       0       0       0       0       0       0       
      +0       0       0       0       0       0       0       0       0       0       0       0       0       0       0       
      +0       0       0       0       0       0
  7032 ;;      Temps:          2       0       0       0       0       0       0       0       0       0       0       0       
      +0       0       0       0       0       0       0       0       0       0       0       0       0       0       0       
      +0       0       0       0       0       0
  7033 ;;      Totals:         2       0       0       0       0       0       0       0       0       0       0       0       
      +0       0       0       0       0       0       0       0       0       0       0       0       0       0       0       
      +0       0       0       0       0       0
  7034 ;;Total ram usage:        2 bytes
  7035 ;; Hardware stack levels used:    1
  7036 ;; Hardware stack levels required when called:    6
  7037 ;; This function calls:
  7038 ;;		_veryLowBeep
  7039 ;; This function is called by:
  7040 ;;		_main
  7041 ;; This function uses a non-reentrant model
  7042 ;;
  7043                           
  7044                           	psect	text30
  7045  012D30                     __ptext30:
  7046                           	opt stack 0
  7047  012D30                     _disarmBeep:
  7048                           	opt stack 24
  7049                           
  7050                           ;beeper.c: 147: veryLowBeep();
  7051                           
  7052                           ; BSR set to: 63
  7053                           ;incstack = 0
  7054  012D30  EC62  F098         	call	_veryLowBeep	;wreg free
  7055                           
  7056                           ;beeper.c: 148: _delay((unsigned long)((110)*(8000000/4000.0)));
  7057  012D34  0E02               	movlw	2
  7058  012D36  6E49               	movwf	(??_disarmBeep+1)& (0+255),c
  7059  012D38  0E1E               	movlw	30
  7060  012D3A  6E48               	movwf	??_disarmBeep& (0+255),c
  7061  012D3C  0EB4               	movlw	180
  7062  012D3E                     u9187:
  7063  012D3E  2EE8               	decfsz	16360,f,c
  7064  012D40  D7FE               	bra	u9187
  7065  012D42  2E48               	decfsz	??_disarmBeep& (0+255),f,c
  7066  012D44  D7FC               	bra	u9187
  7067  012D46  2E49               	decfsz	(??_disarmBeep+1)& (0+255),f,c
  7068  012D48  D7FA               	bra	u9187
  7069                           
  7070                           ;beeper.c: 149: veryLowBeep();
  7071  012D4A  EC62  F098         	call	_veryLowBeep	;wreg free
  7072                           
  7073                           ;beeper.c: 150: _delay((unsigned long)((110)*(8000000/4000.0)));
  7074  012D4E  0E02               	movlw	2
  7075  012D50  6E49               	movwf	(??_disarmBeep+1)& (0+255),c
  7076  012D52  0E1E               	movlw	30
  7077  012D54  6E48               	movwf	??_disarmBeep& (0+255),c
  7078  012D56  0EB4               	movlw	180
  7079  012D58                     u9197:
  7080  012D58  2EE8               	decfsz	16360,f,c
  7081  012D5A  D7FE               	bra	u9197
  7082  012D5C  2E48               	decfsz	??_disarmBeep& (0+255),f,c
  7083  012D5E  D7FC               	bra	u9197
  7084  012D60  2E49               	decfsz	(??_disarmBeep+1)& (0+255),f,c
  7085  012D62  D7FA               	bra	u9197
  7086                           
  7087                           ;beeper.c: 151: veryLowBeep();
  7088  012D64  EC62  F098         	call	_veryLowBeep	;wreg free
  7089  012D68  0012               	return		;funcret
  7090  012D6A                     __end_of_disarmBeep:
  7091                           	opt stack 0
  7092                           
  7093 ;; *************** function _countdown_now_reset_to_initial *****************
  7094 ;; Defined at:
  7095 ;;		line 36 in file "countdown.c"
  7096 ;; Parameters:    Size  Location     Type
  7097 ;;		None
  7098 ;; Auto vars:     Size  Location     Type
  7099 ;;  i               2   16[COMRAM] int 
  7100 ;; Return value:  Size  Location     Type
  7101 ;;                  1    wreg      void 
  7102 ;; Registers used:
  7103 ;;		wreg, fsr1l, fsr1h, fsr2l, fsr2h, status,2, status,0
  7104 ;; Tracked objects:
  7105 ;;		On entry : 0/0
  7106 ;;		On exit  : 0/0
  7107 ;;		Unchanged: 0/0
  7108 ;; Data sizes:     COMRAM   BANK0   BANK1   BANK2   BANK3   BANK4   BANK5   BANK6   BANK7   BANK8   BANK9  BANK10  BANK1
      +1  BANK12  BANK13  BANK14  BANK15  BANK16  BANK17  BANK18  BANK19  BANK20  BANK21  BANK22  BANK23  BANK24  BANK25  BANK2
      +6  BANK27  BANK28  BANK29  BANK30  BANK31
  7109 ;;      Params:         0       0       0       0       0       0       0       0       0       0       0       0       
      +0       0       0       0       0       0       0       0       0       0       0       0       0       0       0       
      +0       0       0       0       0       0
  7110 ;;      Locals:         2       0       0       0       0       0       0       0       0       0       0       0       
      +0       0       0       0       0       0       0       0       0       0       0       0       0       0       0       
      +0       0       0       0       0       0
  7111 ;;      Temps:          4       0       0       0       0       0       0       0       0       0       0       0       
      +0       0       0       0       0       0       0       0       0       0       0       0       0       0       0       
      +0       0       0       0       0       0
  7112 ;;      Totals:         6       0       0       0       0       0       0       0       0       0       0       0       
      +0       0       0       0       0       0       0       0       0       0       0       0       0       0       0       
      +0       0       0       0       0       0
  7113 ;;Total ram usage:        6 bytes
  7114 ;; Hardware stack levels used:    1
  7115 ;; Hardware stack levels required when called:    5
  7116 ;; This function calls:
  7117 ;;		Nothing
  7118 ;; This function is called by:
  7119 ;;		_main
  7120 ;; This function uses a non-reentrant model
  7121 ;;
  7122                           
  7123                           	psect	text31
  7124  012376                     __ptext31:
  7125                           	opt stack 0
  7126  012376                     _countdown_now_reset_to_initial:
  7127                           	opt stack 25
  7128                           
  7129                           ;countdown.c: 38: for(int i=0;i<=5;i++)
  7130                           
  7131                           ;incstack = 0
  7132  012376  0E00               	movlw	0
  7133  012378  6E4D               	movwf	countdown_now_reset_to_initial@i+1,c
  7134  01237A  0E00               	movlw	0
  7135  01237C  6E4C               	movwf	countdown_now_reset_to_initial@i,c
  7136  01237E  BE4D               	btfsc	countdown_now_reset_to_initial@i+1,7,c
  7137  012380  D008               	goto	l237
  7138  012382  504D               	movf	countdown_now_reset_to_initial@i+1,w,c
  7139  012384  E105               	bnz	u6540
  7140  012386  0E06               	movlw	6
  7141  012388  5C4C               	subwf	countdown_now_reset_to_initial@i,w,c
  7142  01238A  B0D8               	btfsc	16344,0,c
  7143  01238C  0012               	return	
  7144  01238E  D001               	goto	l237
  7145  012390                     u6540:
  7146  012390  0012               	return	
  7147  012392                     l237:
  7148                           
  7149                           ;countdown.c: 39: {;countdown.c: 40: numCountdownNowTime[i] = numCountdownInitialTime[i]
      +                          ;
  7150  012392  90D8               	bcf	16344,0,c
  7151  012394  344C               	rlcf	countdown_now_reset_to_initial@i,w,c
  7152  012396  6ED9               	movwf	16345,c
  7153  012398  344D               	rlcf	countdown_now_reset_to_initial@i+1,w,c
  7154  01239A  6EDA               	movwf	16346,c
  7155  01239C  0E0D               	movlw	low _numCountdownInitialTime
  7156  01239E  26D9               	addwf	16345,f,c
  7157  0123A0  0E00               	movlw	high _numCountdownInitialTime
  7158  0123A2  22DA               	addwfc	16346,f,c
  7159  0123A4  90D8               	bcf	16344,0,c
  7160  0123A6  344C               	rlcf	countdown_now_reset_to_initial@i,w,c
  7161  0123A8  6EE1               	movwf	16353,c
  7162  0123AA  344D               	rlcf	countdown_now_reset_to_initial@i+1,w,c
  7163  0123AC  6EE2               	movwf	16354,c
  7164  0123AE  0E01               	movlw	low _numCountdownNowTime
  7165  0123B0  26E1               	addwf	16353,f,c
  7166  0123B2  0E00               	movlw	high _numCountdownNowTime
  7167  0123B4  22E2               	addwfc	16354,f,c
  7168  0123B6  006F FF7B FFE6     	movff	16350,16358
  7169  0123BC  006F FF77 FFE5     	movff	16349,16357
  7170                           
  7171                           ;countdown.c: 41: if(2>i){strCountdownNowTime[i] = strCountdownInitialTime[i];}
  7172  0123C2  BE4D               	btfsc	countdown_now_reset_to_initial@i+1,7,c
  7173  0123C4  D006               	goto	u6550
  7174  0123C6  504D               	movf	countdown_now_reset_to_initial@i+1,w,c
  7175  0123C8  E113               	bnz	l6160
  7176  0123CA  0E02               	movlw	2
  7177  0123CC  5C4C               	subwf	countdown_now_reset_to_initial@i,w,c
  7178  0123CE  B0D8               	btfsc	16344,0,c
  7179  0123D0  D00F               	goto	l239
  7180  0123D2                     u6550:
  7181  0123D2  0E60               	movlw	low _strCountdownInitialTime
  7182  0123D4  244C               	addwf	countdown_now_reset_to_initial@i,w,c
  7183  0123D6  6ED9               	movwf	16345,c
  7184  0123D8  0E00               	movlw	high _strCountdownInitialTime
  7185  0123DA  204D               	addwfc	countdown_now_reset_to_initial@i+1,w,c
  7186  0123DC  6EDA               	movwf	16346,c
  7187  0123DE  0E68               	movlw	low _strCountdownNowTime
  7188  0123E0  244C               	addwf	countdown_now_reset_to_initial@i,w,c
  7189  0123E2  6EE1               	movwf	16353,c
  7190  0123E4  0E00               	movlw	high _strCountdownNowTime
  7191  0123E6  204D               	addwfc	countdown_now_reset_to_initial@i+1,w,c
  7192  0123E8  6EE2               	movwf	16354,c
  7193  0123EA  006F FF7F FFE7     	movff	16351,16359
  7194  0123F0                     l239:
  7195  0123F0                     l6160:
  7196                           
  7197                           ;countdown.c: 42: if(2<=i && i<4){strCountdownNowTime[i+1] = strCountdownInitialTime[i+1
      +                          ];}
  7198  0123F0  BE4D               	btfsc	countdown_now_reset_to_initial@i+1,7,c
  7199  0123F2  D029               	goto	l240
  7200  0123F4  504D               	movf	countdown_now_reset_to_initial@i+1,w,c
  7201  0123F6  E104               	bnz	u6560
  7202  0123F8  0E02               	movlw	2
  7203  0123FA  5C4C               	subwf	countdown_now_reset_to_initial@i,w,c
  7204  0123FC  A0D8               	btfss	16344,0,c
  7205  0123FE  D023               	goto	l240
  7206  012400                     u6560:
  7207  012400  BE4D               	btfsc	countdown_now_reset_to_initial@i+1,7,c
  7208  012402  D006               	goto	u6570
  7209  012404  504D               	movf	countdown_now_reset_to_initial@i+1,w,c
  7210  012406  E11F               	bnz	l6166
  7211  012408  0E04               	movlw	4
  7212  01240A  5C4C               	subwf	countdown_now_reset_to_initial@i,w,c
  7213  01240C  B0D8               	btfsc	16344,0,c
  7214  01240E  D01B               	goto	l240
  7215  012410                     u6570:
  7216  012410  0E01               	movlw	1
  7217  012412  244C               	addwf	countdown_now_reset_to_initial@i,w,c
  7218  012414  6E48               	movwf	??_countdown_now_reset_to_initial& (0+255),c
  7219  012416  0E00               	movlw	0
  7220  012418  204D               	addwfc	countdown_now_reset_to_initial@i+1,w,c
  7221  01241A  6E49               	movwf	(??_countdown_now_reset_to_initial+1)& (0+255),c
  7222  01241C  0E60               	movlw	low _strCountdownInitialTime
  7223  01241E  2448               	addwf	??_countdown_now_reset_to_initial,w,c
  7224  012420  6ED9               	movwf	16345,c
  7225  012422  0E00               	movlw	high _strCountdownInitialTime
  7226  012424  2049               	addwfc	??_countdown_now_reset_to_initial+1,w,c
  7227  012426  6EDA               	movwf	16346,c
  7228  012428  0E01               	movlw	1
  7229  01242A  244C               	addwf	countdown_now_reset_to_initial@i,w,c
  7230  01242C  6E4A               	movwf	(??_countdown_now_reset_to_initial+2)& (0+255),c
  7231  01242E  0E00               	movlw	0
  7232  012430  204D               	addwfc	countdown_now_reset_to_initial@i+1,w,c
  7233  012432  6E4B               	movwf	(??_countdown_now_reset_to_initial+3)& (0+255),c
  7234  012434  0E68               	movlw	low _strCountdownNowTime
  7235  012436  244A               	addwf	??_countdown_now_reset_to_initial+2,w,c
  7236  012438  6EE1               	movwf	16353,c
  7237  01243A  0E00               	movlw	high _strCountdownNowTime
  7238  01243C  204B               	addwfc	??_countdown_now_reset_to_initial+3,w,c
  7239  01243E  6EE2               	movwf	16354,c
  7240  012440  006F FF7F FFE7     	movff	16351,16359
  7241  012446                     l240:
  7242  012446                     l6166:
  7243                           
  7244                           ;countdown.c: 43: if(4<=i && i<6){strCountdownNowTime[i+2] = strCountdownInitialTime[i+2
      +                          ];}
  7245  012446  BE4D               	btfsc	countdown_now_reset_to_initial@i+1,7,c
  7246  012448  D029               	goto	l241
  7247  01244A  504D               	movf	countdown_now_reset_to_initial@i+1,w,c
  7248  01244C  E104               	bnz	u6580
  7249  01244E  0E04               	movlw	4
  7250  012450  5C4C               	subwf	countdown_now_reset_to_initial@i,w,c
  7251  012452  A0D8               	btfss	16344,0,c
  7252  012454  D023               	goto	l241
  7253  012456                     u6580:
  7254  012456  BE4D               	btfsc	countdown_now_reset_to_initial@i+1,7,c
  7255  012458  D006               	goto	u6590
  7256  01245A  504D               	movf	countdown_now_reset_to_initial@i+1,w,c
  7257  01245C  E11F               	bnz	l6172
  7258  01245E  0E06               	movlw	6
  7259  012460  5C4C               	subwf	countdown_now_reset_to_initial@i,w,c
  7260  012462  B0D8               	btfsc	16344,0,c
  7261  012464  D01B               	goto	l241
  7262  012466                     u6590:
  7263  012466  0E02               	movlw	2
  7264  012468  244C               	addwf	countdown_now_reset_to_initial@i,w,c
  7265  01246A  6E48               	movwf	??_countdown_now_reset_to_initial& (0+255),c
  7266  01246C  0E00               	movlw	0
  7267  01246E  204D               	addwfc	countdown_now_reset_to_initial@i+1,w,c
  7268  012470  6E49               	movwf	(??_countdown_now_reset_to_initial+1)& (0+255),c
  7269  012472  0E60               	movlw	low _strCountdownInitialTime
  7270  012474  2448               	addwf	??_countdown_now_reset_to_initial,w,c
  7271  012476  6ED9               	movwf	16345,c
  7272  012478  0E00               	movlw	high _strCountdownInitialTime
  7273  01247A  2049               	addwfc	??_countdown_now_reset_to_initial+1,w,c
  7274  01247C  6EDA               	movwf	16346,c
  7275  01247E  0E02               	movlw	2
  7276  012480  244C               	addwf	countdown_now_reset_to_initial@i,w,c
  7277  012482  6E4A               	movwf	(??_countdown_now_reset_to_initial+2)& (0+255),c
  7278  012484  0E00               	movlw	0
  7279  012486  204D               	addwfc	countdown_now_reset_to_initial@i+1,w,c
  7280  012488  6E4B               	movwf	(??_countdown_now_reset_to_initial+3)& (0+255),c
  7281  01248A  0E68               	movlw	low _strCountdownNowTime
  7282  01248C  244A               	addwf	??_countdown_now_reset_to_initial+2,w,c
  7283  01248E  6EE1               	movwf	16353,c
  7284  012490  0E00               	movlw	high _strCountdownNowTime
  7285  012492  204B               	addwfc	??_countdown_now_reset_to_initial+3,w,c
  7286  012494  6EE2               	movwf	16354,c
  7287  012496  006F FF7F FFE7     	movff	16351,16359
  7288  01249C                     l241:
  7289  01249C                     l6172:
  7290  01249C  4A4C               	infsnz	countdown_now_reset_to_initial@i,f,c
  7291  01249E  2A4D               	incf	countdown_now_reset_to_initial@i+1,f,c
  7292  0124A0  BE4D               	btfsc	countdown_now_reset_to_initial@i+1,7,c
  7293  0124A2  D777               	goto	l237
  7294  0124A4  504D               	movf	countdown_now_reset_to_initial@i+1,w,c
  7295  0124A6  E101               	bnz	l242
  7296  0124A8  D76E               	goto	L14
  7297  0124AA                     l242:
  7298  0124AA  0012               	return		;funcret
  7299  0124AC                     __end_of_countdown_now_reset_to_initial:
  7300                           	opt stack 0
  7301                           
  7302 ;; *************** function _countdown_initial_str2num *****************
  7303 ;; Defined at:
  7304 ;;		line 47 in file "countdown.c"
  7305 ;; Parameters:    Size  Location     Type
  7306 ;;		None
  7307 ;; Auto vars:     Size  Location     Type
  7308 ;;  i               2   16[COMRAM] int 
  7309 ;; Return value:  Size  Location     Type
  7310 ;;                  1    wreg      void 
  7311 ;; Registers used:
  7312 ;;		wreg, fsr2l, fsr2h, status,2, status,0
  7313 ;; Tracked objects:
  7314 ;;		On entry : 0/0
  7315 ;;		On exit  : 0/0
  7316 ;;		Unchanged: 0/0
  7317 ;; Data sizes:     COMRAM   BANK0   BANK1   BANK2   BANK3   BANK4   BANK5   BANK6   BANK7   BANK8   BANK9  BANK10  BANK1
      +1  BANK12  BANK13  BANK14  BANK15  BANK16  BANK17  BANK18  BANK19  BANK20  BANK21  BANK22  BANK23  BANK24  BANK25  BANK2
      +6  BANK27  BANK28  BANK29  BANK30  BANK31
  7318 ;;      Params:         0       0       0       0       0       0       0       0       0       0       0       0       
      +0       0       0       0       0       0       0       0       0       0       0       0       0       0       0       
      +0       0       0       0       0       0
  7319 ;;      Locals:         2       0       0       0       0       0       0       0       0       0       0       0       
      +0       0       0       0       0       0       0       0       0       0       0       0       0       0       0       
      +0       0       0       0       0       0
  7320 ;;      Temps:          4       0       0       0       0       0       0       0       0       0       0       0       
      +0       0       0       0       0       0       0       0       0       0       0       0       0       0       0       
      +0       0       0       0       0       0
  7321 ;;      Totals:         6       0       0       0       0       0       0       0       0       0       0       0       
      +0       0       0       0       0       0       0       0       0       0       0       0       0       0       0       
      +0       0       0       0       0       0
  7322 ;;Total ram usage:        6 bytes
  7323 ;; Hardware stack levels used:    1
  7324 ;; Hardware stack levels required when called:    5
  7325 ;; This function calls:
  7326 ;;		Nothing
  7327 ;; This function is called by:
  7328 ;;		_main
  7329 ;; This function uses a non-reentrant model
  7330 ;;
  7331                           
  7332                           	psect	text32
  7333  01127E                     __ptext32:
  7334                           	opt stack 0
  7335  01127E                     _countdown_initial_str2num:
  7336                           	opt stack 25
  7337                           
  7338                           ;countdown.c: 49: for(int i=0;i<=7;i++)
  7339                           
  7340                           ;incstack = 0
  7341  01127E  0E00               	movlw	0
  7342  011280  6E4D               	movwf	countdown_initial_str2num@i+1,c
  7343  011282  0E00               	movlw	0
  7344  011284  6E4C               	movwf	countdown_initial_str2num@i,c
  7345  011286  BE4D               	btfsc	countdown_initial_str2num@i+1,7,c
  7346  011288  D008               	goto	l245
  7347  01128A  504D               	movf	countdown_initial_str2num@i+1,w,c
  7348  01128C  E105               	bnz	u6610
  7349  01128E  0E08               	movlw	8
  7350  011290  5C4C               	subwf	countdown_initial_str2num@i,w,c
  7351  011292  B0D8               	btfsc	16344,0,c
  7352  011294  0012               	return	
  7353  011296  D001               	goto	l245
  7354  011298                     u6610:
  7355  011298  0012               	return	
  7356  01129A                     l245:
  7357                           
  7358                           ;countdown.c: 50: {;countdown.c: 51: if(i==0||i==1)
  7359  01129A  504C               	movf	countdown_initial_str2num@i,w,c
  7360  01129C  104D               	iorwf	countdown_initial_str2num@i+1,w,c
  7361  01129E  B4D8               	btfsc	16344,2,c
  7362  0112A0  D004               	goto	u6630
  7363  0112A2  044C               	decf	countdown_initial_str2num@i,w,c
  7364  0112A4  104D               	iorwf	countdown_initial_str2num@i+1,w,c
  7365  0112A6  A4D8               	btfss	16344,2,c
  7366  0112A8  D0E6               	goto	l259
  7367  0112AA                     u6630:
  7368                           
  7369                           ;countdown.c: 52: {;countdown.c: 53: if(strCountdownInitialTime[i]=='0'){numCountdownIni
      +                          tialTime[i] = 0;}
  7370  0112AA  0E60               	movlw	low _strCountdownInitialTime
  7371  0112AC  244C               	addwf	countdown_initial_str2num@i,w,c
  7372  0112AE  6ED9               	movwf	16345,c
  7373  0112B0  0E00               	movlw	high _strCountdownInitialTime
  7374  0112B2  204D               	addwfc	countdown_initial_str2num@i+1,w,c
  7375  0112B4  6EDA               	movwf	16346,c
  7376  0112B6  0E30               	movlw	48
  7377  0112B8  18DE               	xorwf	16350,w,c
  7378  0112BA  A4D8               	btfss	16344,2,c
  7379  0112BC  D00D               	goto	l250
  7380  0112BE  90D8               	bcf	16344,0,c
  7381  0112C0  344C               	rlcf	countdown_initial_str2num@i,w,c
  7382  0112C2  6ED9               	movwf	16345,c
  7383  0112C4  344D               	rlcf	countdown_initial_str2num@i+1,w,c
  7384  0112C6  6EDA               	movwf	16346,c
  7385  0112C8  0E0D               	movlw	low _numCountdownInitialTime
  7386  0112CA  26D9               	addwf	16345,f,c
  7387  0112CC  0E00               	movlw	high _numCountdownInitialTime
  7388  0112CE  22DA               	addwfc	16346,f,c
  7389  0112D0  0E00               	movlw	0
  7390  0112D2  6EDE               	movwf	16350,c
  7391  0112D4  0E00               	movlw	0
  7392  0112D6  6EDD               	movwf	16349,c
  7393  0112D8                     l250:
  7394                           
  7395                           ;countdown.c: 54: if(strCountdownInitialTime[i]=='1'){numCountdownInitialTime[i] = 1;}
  7396  0112D8  0E60               	movlw	low _strCountdownInitialTime
  7397  0112DA  244C               	addwf	countdown_initial_str2num@i,w,c
  7398  0112DC  6ED9               	movwf	16345,c
  7399  0112DE  0E00               	movlw	high _strCountdownInitialTime
  7400  0112E0  204D               	addwfc	countdown_initial_str2num@i+1,w,c
  7401  0112E2  6EDA               	movwf	16346,c
  7402  0112E4  0E31               	movlw	49
  7403  0112E6  18DE               	xorwf	16350,w,c
  7404  0112E8  A4D8               	btfss	16344,2,c
  7405  0112EA  D00D               	goto	l251
  7406  0112EC  90D8               	bcf	16344,0,c
  7407  0112EE  344C               	rlcf	countdown_initial_str2num@i,w,c
  7408  0112F0  6ED9               	movwf	16345,c
  7409  0112F2  344D               	rlcf	countdown_initial_str2num@i+1,w,c
  7410  0112F4  6EDA               	movwf	16346,c
  7411  0112F6  0E0D               	movlw	low _numCountdownInitialTime
  7412  0112F8  26D9               	addwf	16345,f,c
  7413  0112FA  0E00               	movlw	high _numCountdownInitialTime
  7414  0112FC  22DA               	addwfc	16346,f,c
  7415  0112FE  0E01               	movlw	1
  7416  011300  6EDE               	movwf	16350,c
  7417  011302  0E00               	movlw	0
  7418  011304  6EDD               	movwf	16349,c
  7419  011306                     l251:
  7420                           
  7421                           ;countdown.c: 55: if(strCountdownInitialTime[i]=='2'){numCountdownInitialTime[i] = 2;}
  7422  011306  0E60               	movlw	low _strCountdownInitialTime
  7423  011308  244C               	addwf	countdown_initial_str2num@i,w,c
  7424  01130A  6ED9               	movwf	16345,c
  7425  01130C  0E00               	movlw	high _strCountdownInitialTime
  7426  01130E  204D               	addwfc	countdown_initial_str2num@i+1,w,c
  7427  011310  6EDA               	movwf	16346,c
  7428  011312  0E32               	movlw	50
  7429  011314  18DE               	xorwf	16350,w,c
  7430  011316  A4D8               	btfss	16344,2,c
  7431  011318  D00D               	goto	l252
  7432  01131A  90D8               	bcf	16344,0,c
  7433  01131C  344C               	rlcf	countdown_initial_str2num@i,w,c
  7434  01131E  6ED9               	movwf	16345,c
  7435  011320  344D               	rlcf	countdown_initial_str2num@i+1,w,c
  7436  011322  6EDA               	movwf	16346,c
  7437  011324  0E0D               	movlw	low _numCountdownInitialTime
  7438  011326  26D9               	addwf	16345,f,c
  7439  011328  0E00               	movlw	high _numCountdownInitialTime
  7440  01132A  22DA               	addwfc	16346,f,c
  7441  01132C  0E02               	movlw	2
  7442  01132E  6EDE               	movwf	16350,c
  7443  011330  0E00               	movlw	0
  7444  011332  6EDD               	movwf	16349,c
  7445  011334                     l252:
  7446                           
  7447                           ;countdown.c: 56: if(strCountdownInitialTime[i]=='3'){numCountdownInitialTime[i] = 3;}
  7448  011334  0E60               	movlw	low _strCountdownInitialTime
  7449  011336  244C               	addwf	countdown_initial_str2num@i,w,c
  7450  011338  6ED9               	movwf	16345,c
  7451  01133A  0E00               	movlw	high _strCountdownInitialTime
  7452  01133C  204D               	addwfc	countdown_initial_str2num@i+1,w,c
  7453  01133E  6EDA               	movwf	16346,c
  7454  011340  0E33               	movlw	51
  7455  011342  18DE               	xorwf	16350,w,c
  7456  011344  A4D8               	btfss	16344,2,c
  7457  011346  D00D               	goto	l253
  7458  011348  90D8               	bcf	16344,0,c
  7459  01134A  344C               	rlcf	countdown_initial_str2num@i,w,c
  7460  01134C  6ED9               	movwf	16345,c
  7461  01134E  344D               	rlcf	countdown_initial_str2num@i+1,w,c
  7462  011350  6EDA               	movwf	16346,c
  7463  011352  0E0D               	movlw	low _numCountdownInitialTime
  7464  011354  26D9               	addwf	16345,f,c
  7465  011356  0E00               	movlw	high _numCountdownInitialTime
  7466  011358  22DA               	addwfc	16346,f,c
  7467  01135A  0E03               	movlw	3
  7468  01135C  6EDE               	movwf	16350,c
  7469  01135E  0E00               	movlw	0
  7470  011360  6EDD               	movwf	16349,c
  7471  011362                     l253:
  7472                           
  7473                           ;countdown.c: 57: if(strCountdownInitialTime[i]=='4'){numCountdownInitialTime[i] = 4;}
  7474  011362  0E60               	movlw	low _strCountdownInitialTime
  7475  011364  244C               	addwf	countdown_initial_str2num@i,w,c
  7476  011366  6ED9               	movwf	16345,c
  7477  011368  0E00               	movlw	high _strCountdownInitialTime
  7478  01136A  204D               	addwfc	countdown_initial_str2num@i+1,w,c
  7479  01136C  6EDA               	movwf	16346,c
  7480  01136E  0E34               	movlw	52
  7481  011370  18DE               	xorwf	16350,w,c
  7482  011372  A4D8               	btfss	16344,2,c
  7483  011374  D00D               	goto	l254
  7484  011376  90D8               	bcf	16344,0,c
  7485  011378  344C               	rlcf	countdown_initial_str2num@i,w,c
  7486  01137A  6ED9               	movwf	16345,c
  7487  01137C  344D               	rlcf	countdown_initial_str2num@i+1,w,c
  7488  01137E  6EDA               	movwf	16346,c
  7489  011380  0E0D               	movlw	low _numCountdownInitialTime
  7490  011382  26D9               	addwf	16345,f,c
  7491  011384  0E00               	movlw	high _numCountdownInitialTime
  7492  011386  22DA               	addwfc	16346,f,c
  7493  011388  0E04               	movlw	4
  7494  01138A  6EDE               	movwf	16350,c
  7495  01138C  0E00               	movlw	0
  7496  01138E  6EDD               	movwf	16349,c
  7497  011390                     l254:
  7498                           
  7499                           ;countdown.c: 58: if(strCountdownInitialTime[i]=='5'){numCountdownInitialTime[i] = 5;}
  7500  011390  0E60               	movlw	low _strCountdownInitialTime
  7501  011392  244C               	addwf	countdown_initial_str2num@i,w,c
  7502  011394  6ED9               	movwf	16345,c
  7503  011396  0E00               	movlw	high _strCountdownInitialTime
  7504  011398  204D               	addwfc	countdown_initial_str2num@i+1,w,c
  7505  01139A  6EDA               	movwf	16346,c
  7506  01139C  0E35               	movlw	53
  7507  01139E  18DE               	xorwf	16350,w,c
  7508  0113A0  A4D8               	btfss	16344,2,c
  7509  0113A2  D00D               	goto	l255
  7510  0113A4  90D8               	bcf	16344,0,c
  7511  0113A6  344C               	rlcf	countdown_initial_str2num@i,w,c
  7512  0113A8  6ED9               	movwf	16345,c
  7513  0113AA  344D               	rlcf	countdown_initial_str2num@i+1,w,c
  7514  0113AC  6EDA               	movwf	16346,c
  7515  0113AE  0E0D               	movlw	low _numCountdownInitialTime
  7516  0113B0  26D9               	addwf	16345,f,c
  7517  0113B2  0E00               	movlw	high _numCountdownInitialTime
  7518  0113B4  22DA               	addwfc	16346,f,c
  7519  0113B6  0E05               	movlw	5
  7520  0113B8  6EDE               	movwf	16350,c
  7521  0113BA  0E00               	movlw	0
  7522  0113BC  6EDD               	movwf	16349,c
  7523  0113BE                     l255:
  7524                           
  7525                           ;countdown.c: 59: if(strCountdownInitialTime[i]=='6'){numCountdownInitialTime[i] = 6;}
  7526  0113BE  0E60               	movlw	low _strCountdownInitialTime
  7527  0113C0  244C               	addwf	countdown_initial_str2num@i,w,c
  7528  0113C2  6ED9               	movwf	16345,c
  7529  0113C4  0E00               	movlw	high _strCountdownInitialTime
  7530  0113C6  204D               	addwfc	countdown_initial_str2num@i+1,w,c
  7531  0113C8  6EDA               	movwf	16346,c
  7532  0113CA  0E36               	movlw	54
  7533  0113CC  18DE               	xorwf	16350,w,c
  7534  0113CE  A4D8               	btfss	16344,2,c
  7535  0113D0  D00D               	goto	l256
  7536  0113D2  90D8               	bcf	16344,0,c
  7537  0113D4  344C               	rlcf	countdown_initial_str2num@i,w,c
  7538  0113D6  6ED9               	movwf	16345,c
  7539  0113D8  344D               	rlcf	countdown_initial_str2num@i+1,w,c
  7540  0113DA  6EDA               	movwf	16346,c
  7541  0113DC  0E0D               	movlw	low _numCountdownInitialTime
  7542  0113DE  26D9               	addwf	16345,f,c
  7543  0113E0  0E00               	movlw	high _numCountdownInitialTime
  7544  0113E2  22DA               	addwfc	16346,f,c
  7545  0113E4  0E06               	movlw	6
  7546  0113E6  6EDE               	movwf	16350,c
  7547  0113E8  0E00               	movlw	0
  7548  0113EA  6EDD               	movwf	16349,c
  7549  0113EC                     l256:
  7550                           
  7551                           ;countdown.c: 60: if(strCountdownInitialTime[i]=='7'){numCountdownInitialTime[i] = 7;}
  7552  0113EC  0E60               	movlw	low _strCountdownInitialTime
  7553  0113EE  244C               	addwf	countdown_initial_str2num@i,w,c
  7554  0113F0  6ED9               	movwf	16345,c
  7555  0113F2  0E00               	movlw	high _strCountdownInitialTime
  7556  0113F4  204D               	addwfc	countdown_initial_str2num@i+1,w,c
  7557  0113F6  6EDA               	movwf	16346,c
  7558  0113F8  0E37               	movlw	55
  7559  0113FA  18DE               	xorwf	16350,w,c
  7560  0113FC  A4D8               	btfss	16344,2,c
  7561  0113FE  D00D               	goto	l257
  7562  011400  90D8               	bcf	16344,0,c
  7563  011402  344C               	rlcf	countdown_initial_str2num@i,w,c
  7564  011404  6ED9               	movwf	16345,c
  7565  011406  344D               	rlcf	countdown_initial_str2num@i+1,w,c
  7566  011408  6EDA               	movwf	16346,c
  7567  01140A  0E0D               	movlw	low _numCountdownInitialTime
  7568  01140C  26D9               	addwf	16345,f,c
  7569  01140E  0E00               	movlw	high _numCountdownInitialTime
  7570  011410  22DA               	addwfc	16346,f,c
  7571  011412  0E07               	movlw	7
  7572  011414  6EDE               	movwf	16350,c
  7573  011416  0E00               	movlw	0
  7574  011418  6EDD               	movwf	16349,c
  7575  01141A                     l257:
  7576                           
  7577                           ;countdown.c: 61: if(strCountdownInitialTime[i]=='8'){numCountdownInitialTime[i] = 8;}
  7578  01141A  0E60               	movlw	low _strCountdownInitialTime
  7579  01141C  244C               	addwf	countdown_initial_str2num@i,w,c
  7580  01141E  6ED9               	movwf	16345,c
  7581  011420  0E00               	movlw	high _strCountdownInitialTime
  7582  011422  204D               	addwfc	countdown_initial_str2num@i+1,w,c
  7583  011424  6EDA               	movwf	16346,c
  7584  011426  0E38               	movlw	56
  7585  011428  18DE               	xorwf	16350,w,c
  7586  01142A  A4D8               	btfss	16344,2,c
  7587  01142C  D00D               	goto	l258
  7588  01142E  90D8               	bcf	16344,0,c
  7589  011430  344C               	rlcf	countdown_initial_str2num@i,w,c
  7590  011432  6ED9               	movwf	16345,c
  7591  011434  344D               	rlcf	countdown_initial_str2num@i+1,w,c
  7592  011436  6EDA               	movwf	16346,c
  7593  011438  0E0D               	movlw	low _numCountdownInitialTime
  7594  01143A  26D9               	addwf	16345,f,c
  7595  01143C  0E00               	movlw	high _numCountdownInitialTime
  7596  01143E  22DA               	addwfc	16346,f,c
  7597  011440  0E08               	movlw	8
  7598  011442  6EDE               	movwf	16350,c
  7599  011444  0E00               	movlw	0
  7600  011446  6EDD               	movwf	16349,c
  7601  011448                     l258:
  7602                           
  7603                           ;countdown.c: 62: if(strCountdownInitialTime[i]=='9'){numCountdownInitialTime[i] = 9;}
  7604  011448  0E60               	movlw	low _strCountdownInitialTime
  7605  01144A  244C               	addwf	countdown_initial_str2num@i,w,c
  7606  01144C  6ED9               	movwf	16345,c
  7607  01144E  0E00               	movlw	high _strCountdownInitialTime
  7608  011450  204D               	addwfc	countdown_initial_str2num@i+1,w,c
  7609  011452  6EDA               	movwf	16346,c
  7610  011454  0E39               	movlw	57
  7611  011456  18DE               	xorwf	16350,w,c
  7612  011458  A4D8               	btfss	16344,2,c
  7613  01145A  D00D               	goto	l259
  7614  01145C  90D8               	bcf	16344,0,c
  7615  01145E  344C               	rlcf	countdown_initial_str2num@i,w,c
  7616  011460  6ED9               	movwf	16345,c
  7617  011462  344D               	rlcf	countdown_initial_str2num@i+1,w,c
  7618  011464  6EDA               	movwf	16346,c
  7619  011466  0E0D               	movlw	low _numCountdownInitialTime
  7620  011468  26D9               	addwf	16345,f,c
  7621  01146A  0E00               	movlw	high _numCountdownInitialTime
  7622  01146C  22DA               	addwfc	16346,f,c
  7623  01146E  0E09               	movlw	9
  7624  011470  6EDE               	movwf	16350,c
  7625  011472  0E00               	movlw	0
  7626  011474  6EDD               	movwf	16349,c
  7627  011476                     l259:
  7628                           
  7629                           ;countdown.c: 63: };countdown.c: 65: if(i==3||i==4)
  7630  011476  0E03               	movlw	3
  7631  011478  184C               	xorwf	countdown_initial_str2num@i,w,c
  7632  01147A  104D               	iorwf	countdown_initial_str2num@i+1,w,c
  7633  01147C  B4D8               	btfsc	16344,2,c
  7634  01147E  D005               	goto	u6750
  7635  011480  0E04               	movlw	4
  7636  011482  184C               	xorwf	countdown_initial_str2num@i,w,c
  7637  011484  104D               	iorwf	countdown_initial_str2num@i+1,w,c
  7638  011486  A4D8               	btfss	16344,2,c
  7639  011488  D172               	goto	l272
  7640  01148A                     u6750:
  7641                           
  7642                           ;countdown.c: 66: {;countdown.c: 67: if(strCountdownInitialTime[i]=='0'){numCountdownIni
      +                          tialTime[i-1] = 0;}
  7643  01148A  0E60               	movlw	low _strCountdownInitialTime
  7644  01148C  244C               	addwf	countdown_initial_str2num@i,w,c
  7645  01148E  6ED9               	movwf	16345,c
  7646  011490  0E00               	movlw	high _strCountdownInitialTime
  7647  011492  204D               	addwfc	countdown_initial_str2num@i+1,w,c
  7648  011494  6EDA               	movwf	16346,c
  7649  011496  0E30               	movlw	48
  7650  011498  18DE               	xorwf	16350,w,c
  7651  01149A  A4D8               	btfss	16344,2,c
  7652  01149C  D01B               	goto	l263
  7653  01149E  0EFE               	movlw	254
  7654  0114A0  6E48               	movwf	??_countdown_initial_str2num& (0+255),c
  7655  0114A2  0EFF               	movlw	255
  7656  0114A4  6E49               	movwf	(??_countdown_initial_str2num+1)& (0+255),c
  7657  0114A6  0060  F130  F04A   	movff	countdown_initial_str2num@i,??_countdown_initial_str2num+2
  7658  0114AC  0060  F134  F04B   	movff	countdown_initial_str2num@i+1,??_countdown_initial_str2num+3
  7659  0114B2  90D8               	bcf	16344,0,c
  7660  0114B4  364A               	rlcf	??_countdown_initial_str2num+2,f,c
  7661  0114B6  364B               	rlcf	??_countdown_initial_str2num+3,f,c
  7662  0114B8  5048               	movf	??_countdown_initial_str2num,w,c
  7663  0114BA  264A               	addwf	??_countdown_initial_str2num+2,f,c
  7664  0114BC  5049               	movf	??_countdown_initial_str2num+1,w,c
  7665  0114BE  224B               	addwfc	??_countdown_initial_str2num+3,f,c
  7666  0114C0  0E0D               	movlw	low _numCountdownInitialTime
  7667  0114C2  244A               	addwf	??_countdown_initial_str2num+2,w,c
  7668  0114C4  6ED9               	movwf	16345,c
  7669  0114C6  0E00               	movlw	high _numCountdownInitialTime
  7670  0114C8  204B               	addwfc	??_countdown_initial_str2num+3,w,c
  7671  0114CA  6EDA               	movwf	16346,c
  7672  0114CC  0E00               	movlw	0
  7673  0114CE  6EDE               	movwf	16350,c
  7674  0114D0  0E00               	movlw	0
  7675  0114D2  6EDD               	movwf	16349,c
  7676  0114D4                     l263:
  7677                           
  7678                           ;countdown.c: 68: if(strCountdownInitialTime[i]=='1'){numCountdownInitialTime[i-1] = 1;}
  7679  0114D4  0E60               	movlw	low _strCountdownInitialTime
  7680  0114D6  244C               	addwf	countdown_initial_str2num@i,w,c
  7681  0114D8  6ED9               	movwf	16345,c
  7682  0114DA  0E00               	movlw	high _strCountdownInitialTime
  7683  0114DC  204D               	addwfc	countdown_initial_str2num@i+1,w,c
  7684  0114DE  6EDA               	movwf	16346,c
  7685  0114E0  0E31               	movlw	49
  7686  0114E2  18DE               	xorwf	16350,w,c
  7687  0114E4  A4D8               	btfss	16344,2,c
  7688  0114E6  D01B               	goto	l264
  7689  0114E8  0EFE               	movlw	254
  7690  0114EA  6E48               	movwf	??_countdown_initial_str2num& (0+255),c
  7691  0114EC  0EFF               	movlw	255
  7692  0114EE  6E49               	movwf	(??_countdown_initial_str2num+1)& (0+255),c
  7693  0114F0  0060  F130  F04A   	movff	countdown_initial_str2num@i,??_countdown_initial_str2num+2
  7694  0114F6  0060  F134  F04B   	movff	countdown_initial_str2num@i+1,??_countdown_initial_str2num+3
  7695  0114FC  90D8               	bcf	16344,0,c
  7696  0114FE  364A               	rlcf	??_countdown_initial_str2num+2,f,c
  7697  011500  364B               	rlcf	??_countdown_initial_str2num+3,f,c
  7698  011502  5048               	movf	??_countdown_initial_str2num,w,c
  7699  011504  264A               	addwf	??_countdown_initial_str2num+2,f,c
  7700  011506  5049               	movf	??_countdown_initial_str2num+1,w,c
  7701  011508  224B               	addwfc	??_countdown_initial_str2num+3,f,c
  7702  01150A  0E0D               	movlw	low _numCountdownInitialTime
  7703  01150C  244A               	addwf	??_countdown_initial_str2num+2,w,c
  7704  01150E  6ED9               	movwf	16345,c
  7705  011510  0E00               	movlw	high _numCountdownInitialTime
  7706  011512  204B               	addwfc	??_countdown_initial_str2num+3,w,c
  7707  011514  6EDA               	movwf	16346,c
  7708  011516  0E01               	movlw	1
  7709  011518  6EDE               	movwf	16350,c
  7710  01151A  0E00               	movlw	0
  7711  01151C  6EDD               	movwf	16349,c
  7712  01151E                     l264:
  7713                           
  7714                           ;countdown.c: 69: if(strCountdownInitialTime[i]=='2'){numCountdownInitialTime[i-1] = 2;}
  7715  01151E  0E60               	movlw	low _strCountdownInitialTime
  7716  011520  244C               	addwf	countdown_initial_str2num@i,w,c
  7717  011522  6ED9               	movwf	16345,c
  7718  011524  0E00               	movlw	high _strCountdownInitialTime
  7719  011526  204D               	addwfc	countdown_initial_str2num@i+1,w,c
  7720  011528  6EDA               	movwf	16346,c
  7721  01152A  0E32               	movlw	50
  7722  01152C  18DE               	xorwf	16350,w,c
  7723  01152E  A4D8               	btfss	16344,2,c
  7724  011530  D01B               	goto	l265
  7725  011532  0EFE               	movlw	254
  7726  011534  6E48               	movwf	??_countdown_initial_str2num& (0+255),c
  7727  011536  0EFF               	movlw	255
  7728  011538  6E49               	movwf	(??_countdown_initial_str2num+1)& (0+255),c
  7729  01153A  0060  F130  F04A   	movff	countdown_initial_str2num@i,??_countdown_initial_str2num+2
  7730  011540  0060  F134  F04B   	movff	countdown_initial_str2num@i+1,??_countdown_initial_str2num+3
  7731  011546  90D8               	bcf	16344,0,c
  7732  011548  364A               	rlcf	??_countdown_initial_str2num+2,f,c
  7733  01154A  364B               	rlcf	??_countdown_initial_str2num+3,f,c
  7734  01154C  5048               	movf	??_countdown_initial_str2num,w,c
  7735  01154E  264A               	addwf	??_countdown_initial_str2num+2,f,c
  7736  011550  5049               	movf	??_countdown_initial_str2num+1,w,c
  7737  011552  224B               	addwfc	??_countdown_initial_str2num+3,f,c
  7738  011554  0E0D               	movlw	low _numCountdownInitialTime
  7739  011556  244A               	addwf	??_countdown_initial_str2num+2,w,c
  7740  011558  6ED9               	movwf	16345,c
  7741  01155A  0E00               	movlw	high _numCountdownInitialTime
  7742  01155C  204B               	addwfc	??_countdown_initial_str2num+3,w,c
  7743  01155E  6EDA               	movwf	16346,c
  7744  011560  0E02               	movlw	2
  7745  011562  6EDE               	movwf	16350,c
  7746  011564  0E00               	movlw	0
  7747  011566  6EDD               	movwf	16349,c
  7748  011568                     l265:
  7749                           
  7750                           ;countdown.c: 70: if(strCountdownInitialTime[i]=='3'){numCountdownInitialTime[i-1] = 3;}
  7751  011568  0E60               	movlw	low _strCountdownInitialTime
  7752  01156A  244C               	addwf	countdown_initial_str2num@i,w,c
  7753  01156C  6ED9               	movwf	16345,c
  7754  01156E  0E00               	movlw	high _strCountdownInitialTime
  7755  011570  204D               	addwfc	countdown_initial_str2num@i+1,w,c
  7756  011572  6EDA               	movwf	16346,c
  7757  011574  0E33               	movlw	51
  7758  011576  18DE               	xorwf	16350,w,c
  7759  011578  A4D8               	btfss	16344,2,c
  7760  01157A  D01B               	goto	l266
  7761  01157C  0EFE               	movlw	254
  7762  01157E  6E48               	movwf	??_countdown_initial_str2num& (0+255),c
  7763  011580  0EFF               	movlw	255
  7764  011582  6E49               	movwf	(??_countdown_initial_str2num+1)& (0+255),c
  7765  011584  0060  F130  F04A   	movff	countdown_initial_str2num@i,??_countdown_initial_str2num+2
  7766  01158A  0060  F134  F04B   	movff	countdown_initial_str2num@i+1,??_countdown_initial_str2num+3
  7767  011590  90D8               	bcf	16344,0,c
  7768  011592  364A               	rlcf	??_countdown_initial_str2num+2,f,c
  7769  011594  364B               	rlcf	??_countdown_initial_str2num+3,f,c
  7770  011596  5048               	movf	??_countdown_initial_str2num,w,c
  7771  011598  264A               	addwf	??_countdown_initial_str2num+2,f,c
  7772  01159A  5049               	movf	??_countdown_initial_str2num+1,w,c
  7773  01159C  224B               	addwfc	??_countdown_initial_str2num+3,f,c
  7774  01159E  0E0D               	movlw	low _numCountdownInitialTime
  7775  0115A0  244A               	addwf	??_countdown_initial_str2num+2,w,c
  7776  0115A2  6ED9               	movwf	16345,c
  7777  0115A4  0E00               	movlw	high _numCountdownInitialTime
  7778  0115A6  204B               	addwfc	??_countdown_initial_str2num+3,w,c
  7779  0115A8  6EDA               	movwf	16346,c
  7780  0115AA  0E03               	movlw	3
  7781  0115AC  6EDE               	movwf	16350,c
  7782  0115AE  0E00               	movlw	0
  7783  0115B0  6EDD               	movwf	16349,c
  7784  0115B2                     l266:
  7785                           
  7786                           ;countdown.c: 71: if(strCountdownInitialTime[i]=='4'){numCountdownInitialTime[i-1] = 4;}
  7787  0115B2  0E60               	movlw	low _strCountdownInitialTime
  7788  0115B4  244C               	addwf	countdown_initial_str2num@i,w,c
  7789  0115B6  6ED9               	movwf	16345,c
  7790  0115B8  0E00               	movlw	high _strCountdownInitialTime
  7791  0115BA  204D               	addwfc	countdown_initial_str2num@i+1,w,c
  7792  0115BC  6EDA               	movwf	16346,c
  7793  0115BE  0E34               	movlw	52
  7794  0115C0  18DE               	xorwf	16350,w,c
  7795  0115C2  A4D8               	btfss	16344,2,c
  7796  0115C4  D01B               	goto	l267
  7797  0115C6  0EFE               	movlw	254
  7798  0115C8  6E48               	movwf	??_countdown_initial_str2num& (0+255),c
  7799  0115CA  0EFF               	movlw	255
  7800  0115CC  6E49               	movwf	(??_countdown_initial_str2num+1)& (0+255),c
  7801  0115CE  0060  F130  F04A   	movff	countdown_initial_str2num@i,??_countdown_initial_str2num+2
  7802  0115D4  0060  F134  F04B   	movff	countdown_initial_str2num@i+1,??_countdown_initial_str2num+3
  7803  0115DA  90D8               	bcf	16344,0,c
  7804  0115DC  364A               	rlcf	??_countdown_initial_str2num+2,f,c
  7805  0115DE  364B               	rlcf	??_countdown_initial_str2num+3,f,c
  7806  0115E0  5048               	movf	??_countdown_initial_str2num,w,c
  7807  0115E2  264A               	addwf	??_countdown_initial_str2num+2,f,c
  7808  0115E4  5049               	movf	??_countdown_initial_str2num+1,w,c
  7809  0115E6  224B               	addwfc	??_countdown_initial_str2num+3,f,c
  7810  0115E8  0E0D               	movlw	low _numCountdownInitialTime
  7811  0115EA  244A               	addwf	??_countdown_initial_str2num+2,w,c
  7812  0115EC  6ED9               	movwf	16345,c
  7813  0115EE  0E00               	movlw	high _numCountdownInitialTime
  7814  0115F0  204B               	addwfc	??_countdown_initial_str2num+3,w,c
  7815  0115F2  6EDA               	movwf	16346,c
  7816  0115F4  0E04               	movlw	4
  7817  0115F6  6EDE               	movwf	16350,c
  7818  0115F8  0E00               	movlw	0
  7819  0115FA  6EDD               	movwf	16349,c
  7820  0115FC                     l267:
  7821                           
  7822                           ;countdown.c: 72: if(strCountdownInitialTime[i]=='5'){numCountdownInitialTime[i-1] = 5;}
  7823  0115FC  0E60               	movlw	low _strCountdownInitialTime
  7824  0115FE  244C               	addwf	countdown_initial_str2num@i,w,c
  7825  011600  6ED9               	movwf	16345,c
  7826  011602  0E00               	movlw	high _strCountdownInitialTime
  7827  011604  204D               	addwfc	countdown_initial_str2num@i+1,w,c
  7828  011606  6EDA               	movwf	16346,c
  7829  011608  0E35               	movlw	53
  7830  01160A  18DE               	xorwf	16350,w,c
  7831  01160C  A4D8               	btfss	16344,2,c
  7832  01160E  D01B               	goto	l268
  7833  011610  0EFE               	movlw	254
  7834  011612  6E48               	movwf	??_countdown_initial_str2num& (0+255),c
  7835  011614  0EFF               	movlw	255
  7836  011616  6E49               	movwf	(??_countdown_initial_str2num+1)& (0+255),c
  7837  011618  0060  F130  F04A   	movff	countdown_initial_str2num@i,??_countdown_initial_str2num+2
  7838  01161E  0060  F134  F04B   	movff	countdown_initial_str2num@i+1,??_countdown_initial_str2num+3
  7839  011624  90D8               	bcf	16344,0,c
  7840  011626  364A               	rlcf	??_countdown_initial_str2num+2,f,c
  7841  011628  364B               	rlcf	??_countdown_initial_str2num+3,f,c
  7842  01162A  5048               	movf	??_countdown_initial_str2num,w,c
  7843  01162C  264A               	addwf	??_countdown_initial_str2num+2,f,c
  7844  01162E  5049               	movf	??_countdown_initial_str2num+1,w,c
  7845  011630  224B               	addwfc	??_countdown_initial_str2num+3,f,c
  7846  011632  0E0D               	movlw	low _numCountdownInitialTime
  7847  011634  244A               	addwf	??_countdown_initial_str2num+2,w,c
  7848  011636  6ED9               	movwf	16345,c
  7849  011638  0E00               	movlw	high _numCountdownInitialTime
  7850  01163A  204B               	addwfc	??_countdown_initial_str2num+3,w,c
  7851  01163C  6EDA               	movwf	16346,c
  7852  01163E  0E05               	movlw	5
  7853  011640  6EDE               	movwf	16350,c
  7854  011642  0E00               	movlw	0
  7855  011644  6EDD               	movwf	16349,c
  7856  011646                     l268:
  7857                           
  7858                           ;countdown.c: 73: if(strCountdownInitialTime[i]=='6'){numCountdownInitialTime[i-1] = 6;}
  7859  011646  0E60               	movlw	low _strCountdownInitialTime
  7860  011648  244C               	addwf	countdown_initial_str2num@i,w,c
  7861  01164A  6ED9               	movwf	16345,c
  7862  01164C  0E00               	movlw	high _strCountdownInitialTime
  7863  01164E  204D               	addwfc	countdown_initial_str2num@i+1,w,c
  7864  011650  6EDA               	movwf	16346,c
  7865  011652  0E36               	movlw	54
  7866  011654  18DE               	xorwf	16350,w,c
  7867  011656  A4D8               	btfss	16344,2,c
  7868  011658  D01B               	goto	l269
  7869  01165A  0EFE               	movlw	254
  7870  01165C  6E48               	movwf	??_countdown_initial_str2num& (0+255),c
  7871  01165E  0EFF               	movlw	255
  7872  011660  6E49               	movwf	(??_countdown_initial_str2num+1)& (0+255),c
  7873  011662  0060  F130  F04A   	movff	countdown_initial_str2num@i,??_countdown_initial_str2num+2
  7874  011668  0060  F134  F04B   	movff	countdown_initial_str2num@i+1,??_countdown_initial_str2num+3
  7875  01166E  90D8               	bcf	16344,0,c
  7876  011670  364A               	rlcf	??_countdown_initial_str2num+2,f,c
  7877  011672  364B               	rlcf	??_countdown_initial_str2num+3,f,c
  7878  011674  5048               	movf	??_countdown_initial_str2num,w,c
  7879  011676  264A               	addwf	??_countdown_initial_str2num+2,f,c
  7880  011678  5049               	movf	??_countdown_initial_str2num+1,w,c
  7881  01167A  224B               	addwfc	??_countdown_initial_str2num+3,f,c
  7882  01167C  0E0D               	movlw	low _numCountdownInitialTime
  7883  01167E  244A               	addwf	??_countdown_initial_str2num+2,w,c
  7884  011680  6ED9               	movwf	16345,c
  7885  011682  0E00               	movlw	high _numCountdownInitialTime
  7886  011684  204B               	addwfc	??_countdown_initial_str2num+3,w,c
  7887  011686  6EDA               	movwf	16346,c
  7888  011688  0E06               	movlw	6
  7889  01168A  6EDE               	movwf	16350,c
  7890  01168C  0E00               	movlw	0
  7891  01168E  6EDD               	movwf	16349,c
  7892  011690                     l269:
  7893                           
  7894                           ;countdown.c: 74: if(strCountdownInitialTime[i]=='7'){numCountdownInitialTime[i-1] = 7;}
  7895  011690  0E60               	movlw	low _strCountdownInitialTime
  7896  011692  244C               	addwf	countdown_initial_str2num@i,w,c
  7897  011694  6ED9               	movwf	16345,c
  7898  011696  0E00               	movlw	high _strCountdownInitialTime
  7899  011698  204D               	addwfc	countdown_initial_str2num@i+1,w,c
  7900  01169A  6EDA               	movwf	16346,c
  7901  01169C  0E37               	movlw	55
  7902  01169E  18DE               	xorwf	16350,w,c
  7903  0116A0  A4D8               	btfss	16344,2,c
  7904  0116A2  D01B               	goto	l270
  7905  0116A4  0EFE               	movlw	254
  7906  0116A6  6E48               	movwf	??_countdown_initial_str2num& (0+255),c
  7907  0116A8  0EFF               	movlw	255
  7908  0116AA  6E49               	movwf	(??_countdown_initial_str2num+1)& (0+255),c
  7909  0116AC  0060  F130  F04A   	movff	countdown_initial_str2num@i,??_countdown_initial_str2num+2
  7910  0116B2  0060  F134  F04B   	movff	countdown_initial_str2num@i+1,??_countdown_initial_str2num+3
  7911  0116B8  90D8               	bcf	16344,0,c
  7912  0116BA  364A               	rlcf	??_countdown_initial_str2num+2,f,c
  7913  0116BC  364B               	rlcf	??_countdown_initial_str2num+3,f,c
  7914  0116BE  5048               	movf	??_countdown_initial_str2num,w,c
  7915  0116C0  264A               	addwf	??_countdown_initial_str2num+2,f,c
  7916  0116C2  5049               	movf	??_countdown_initial_str2num+1,w,c
  7917  0116C4  224B               	addwfc	??_countdown_initial_str2num+3,f,c
  7918  0116C6  0E0D               	movlw	low _numCountdownInitialTime
  7919  0116C8  244A               	addwf	??_countdown_initial_str2num+2,w,c
  7920  0116CA  6ED9               	movwf	16345,c
  7921  0116CC  0E00               	movlw	high _numCountdownInitialTime
  7922  0116CE  204B               	addwfc	??_countdown_initial_str2num+3,w,c
  7923  0116D0  6EDA               	movwf	16346,c
  7924  0116D2  0E07               	movlw	7
  7925  0116D4  6EDE               	movwf	16350,c
  7926  0116D6  0E00               	movlw	0
  7927  0116D8  6EDD               	movwf	16349,c
  7928  0116DA                     l270:
  7929                           
  7930                           ;countdown.c: 75: if(strCountdownInitialTime[i]=='8'){numCountdownInitialTime[i-1] = 8;}
  7931  0116DA  0E60               	movlw	low _strCountdownInitialTime
  7932  0116DC  244C               	addwf	countdown_initial_str2num@i,w,c
  7933  0116DE  6ED9               	movwf	16345,c
  7934  0116E0  0E00               	movlw	high _strCountdownInitialTime
  7935  0116E2  204D               	addwfc	countdown_initial_str2num@i+1,w,c
  7936  0116E4  6EDA               	movwf	16346,c
  7937  0116E6  0E38               	movlw	56
  7938  0116E8  18DE               	xorwf	16350,w,c
  7939  0116EA  A4D8               	btfss	16344,2,c
  7940  0116EC  D01B               	goto	l271
  7941  0116EE  0EFE               	movlw	254
  7942  0116F0  6E48               	movwf	??_countdown_initial_str2num& (0+255),c
  7943  0116F2  0EFF               	movlw	255
  7944  0116F4  6E49               	movwf	(??_countdown_initial_str2num+1)& (0+255),c
  7945  0116F6  0060  F130  F04A   	movff	countdown_initial_str2num@i,??_countdown_initial_str2num+2
  7946  0116FC  0060  F134  F04B   	movff	countdown_initial_str2num@i+1,??_countdown_initial_str2num+3
  7947  011702  90D8               	bcf	16344,0,c
  7948  011704  364A               	rlcf	??_countdown_initial_str2num+2,f,c
  7949  011706  364B               	rlcf	??_countdown_initial_str2num+3,f,c
  7950  011708  5048               	movf	??_countdown_initial_str2num,w,c
  7951  01170A  264A               	addwf	??_countdown_initial_str2num+2,f,c
  7952  01170C  5049               	movf	??_countdown_initial_str2num+1,w,c
  7953  01170E  224B               	addwfc	??_countdown_initial_str2num+3,f,c
  7954  011710  0E0D               	movlw	low _numCountdownInitialTime
  7955  011712  244A               	addwf	??_countdown_initial_str2num+2,w,c
  7956  011714  6ED9               	movwf	16345,c
  7957  011716  0E00               	movlw	high _numCountdownInitialTime
  7958  011718  204B               	addwfc	??_countdown_initial_str2num+3,w,c
  7959  01171A  6EDA               	movwf	16346,c
  7960  01171C  0E08               	movlw	8
  7961  01171E  6EDE               	movwf	16350,c
  7962  011720  0E00               	movlw	0
  7963  011722  6EDD               	movwf	16349,c
  7964  011724                     l271:
  7965                           
  7966                           ;countdown.c: 76: if(strCountdownInitialTime[i]=='9'){numCountdownInitialTime[i-1] = 9;}
  7967  011724  0E60               	movlw	low _strCountdownInitialTime
  7968  011726  244C               	addwf	countdown_initial_str2num@i,w,c
  7969  011728  6ED9               	movwf	16345,c
  7970  01172A  0E00               	movlw	high _strCountdownInitialTime
  7971  01172C  204D               	addwfc	countdown_initial_str2num@i+1,w,c
  7972  01172E  6EDA               	movwf	16346,c
  7973  011730  0E39               	movlw	57
  7974  011732  18DE               	xorwf	16350,w,c
  7975  011734  A4D8               	btfss	16344,2,c
  7976  011736  D01B               	goto	l272
  7977  011738  0EFE               	movlw	254
  7978  01173A  6E48               	movwf	??_countdown_initial_str2num& (0+255),c
  7979  01173C  0EFF               	movlw	255
  7980  01173E  6E49               	movwf	(??_countdown_initial_str2num+1)& (0+255),c
  7981  011740  0060  F130  F04A   	movff	countdown_initial_str2num@i,??_countdown_initial_str2num+2
  7982  011746  0060  F134  F04B   	movff	countdown_initial_str2num@i+1,??_countdown_initial_str2num+3
  7983  01174C  90D8               	bcf	16344,0,c
  7984  01174E  364A               	rlcf	??_countdown_initial_str2num+2,f,c
  7985  011750  364B               	rlcf	??_countdown_initial_str2num+3,f,c
  7986  011752  5048               	movf	??_countdown_initial_str2num,w,c
  7987  011754  264A               	addwf	??_countdown_initial_str2num+2,f,c
  7988  011756  5049               	movf	??_countdown_initial_str2num+1,w,c
  7989  011758  224B               	addwfc	??_countdown_initial_str2num+3,f,c
  7990  01175A  0E0D               	movlw	low _numCountdownInitialTime
  7991  01175C  244A               	addwf	??_countdown_initial_str2num+2,w,c
  7992  01175E  6ED9               	movwf	16345,c
  7993  011760  0E00               	movlw	high _numCountdownInitialTime
  7994  011762  204B               	addwfc	??_countdown_initial_str2num+3,w,c
  7995  011764  6EDA               	movwf	16346,c
  7996  011766  0E09               	movlw	9
  7997  011768  6EDE               	movwf	16350,c
  7998  01176A  0E00               	movlw	0
  7999  01176C  6EDD               	movwf	16349,c
  8000  01176E                     l272:
  8001                           
  8002                           ;countdown.c: 77: };countdown.c: 79: if(6==i||i==7)
  8003  01176E  0E06               	movlw	6
  8004  011770  184C               	xorwf	countdown_initial_str2num@i,w,c
  8005  011772  104D               	iorwf	countdown_initial_str2num@i+1,w,c
  8006  011774  B4D8               	btfsc	16344,2,c
  8007  011776  D005               	goto	u6870
  8008  011778  0E07               	movlw	7
  8009  01177A  184C               	xorwf	countdown_initial_str2num@i,w,c
  8010  01177C  104D               	iorwf	countdown_initial_str2num@i+1,w,c
  8011  01177E  A4D8               	btfss	16344,2,c
  8012  011780  D172               	goto	l285
  8013  011782                     u6870:
  8014                           
  8015                           ;countdown.c: 80: {;countdown.c: 81: if(strCountdownInitialTime[i]=='0'){numCountdownIni
      +                          tialTime[i-2] = 0;}
  8016  011782  0E60               	movlw	low _strCountdownInitialTime
  8017  011784  244C               	addwf	countdown_initial_str2num@i,w,c
  8018  011786  6ED9               	movwf	16345,c
  8019  011788  0E00               	movlw	high _strCountdownInitialTime
  8020  01178A  204D               	addwfc	countdown_initial_str2num@i+1,w,c
  8021  01178C  6EDA               	movwf	16346,c
  8022  01178E  0E30               	movlw	48
  8023  011790  18DE               	xorwf	16350,w,c
  8024  011792  A4D8               	btfss	16344,2,c
  8025  011794  D01B               	goto	l276
  8026  011796  0EFC               	movlw	252
  8027  011798  6E48               	movwf	??_countdown_initial_str2num& (0+255),c
  8028  01179A  0EFF               	movlw	255
  8029  01179C  6E49               	movwf	(??_countdown_initial_str2num+1)& (0+255),c
  8030  01179E  0060  F130  F04A   	movff	countdown_initial_str2num@i,??_countdown_initial_str2num+2
  8031  0117A4  0060  F134  F04B   	movff	countdown_initial_str2num@i+1,??_countdown_initial_str2num+3
  8032  0117AA  90D8               	bcf	16344,0,c
  8033  0117AC  364A               	rlcf	??_countdown_initial_str2num+2,f,c
  8034  0117AE  364B               	rlcf	??_countdown_initial_str2num+3,f,c
  8035  0117B0  5048               	movf	??_countdown_initial_str2num,w,c
  8036  0117B2  264A               	addwf	??_countdown_initial_str2num+2,f,c
  8037  0117B4  5049               	movf	??_countdown_initial_str2num+1,w,c
  8038  0117B6  224B               	addwfc	??_countdown_initial_str2num+3,f,c
  8039  0117B8  0E0D               	movlw	low _numCountdownInitialTime
  8040  0117BA  244A               	addwf	??_countdown_initial_str2num+2,w,c
  8041  0117BC  6ED9               	movwf	16345,c
  8042  0117BE  0E00               	movlw	high _numCountdownInitialTime
  8043  0117C0  204B               	addwfc	??_countdown_initial_str2num+3,w,c
  8044  0117C2  6EDA               	movwf	16346,c
  8045  0117C4  0E00               	movlw	0
  8046  0117C6  6EDE               	movwf	16350,c
  8047  0117C8  0E00               	movlw	0
  8048  0117CA  6EDD               	movwf	16349,c
  8049  0117CC                     l276:
  8050                           
  8051                           ;countdown.c: 82: if(strCountdownInitialTime[i]=='1'){numCountdownInitialTime[i-2] = 1;}
  8052  0117CC  0E60               	movlw	low _strCountdownInitialTime
  8053  0117CE  244C               	addwf	countdown_initial_str2num@i,w,c
  8054  0117D0  6ED9               	movwf	16345,c
  8055  0117D2  0E00               	movlw	high _strCountdownInitialTime
  8056  0117D4  204D               	addwfc	countdown_initial_str2num@i+1,w,c
  8057  0117D6  6EDA               	movwf	16346,c
  8058  0117D8  0E31               	movlw	49
  8059  0117DA  18DE               	xorwf	16350,w,c
  8060  0117DC  A4D8               	btfss	16344,2,c
  8061  0117DE  D01B               	goto	l277
  8062  0117E0  0EFC               	movlw	252
  8063  0117E2  6E48               	movwf	??_countdown_initial_str2num& (0+255),c
  8064  0117E4  0EFF               	movlw	255
  8065  0117E6  6E49               	movwf	(??_countdown_initial_str2num+1)& (0+255),c
  8066  0117E8  0060  F130  F04A   	movff	countdown_initial_str2num@i,??_countdown_initial_str2num+2
  8067  0117EE  0060  F134  F04B   	movff	countdown_initial_str2num@i+1,??_countdown_initial_str2num+3
  8068  0117F4  90D8               	bcf	16344,0,c
  8069  0117F6  364A               	rlcf	??_countdown_initial_str2num+2,f,c
  8070  0117F8  364B               	rlcf	??_countdown_initial_str2num+3,f,c
  8071  0117FA  5048               	movf	??_countdown_initial_str2num,w,c
  8072  0117FC  264A               	addwf	??_countdown_initial_str2num+2,f,c
  8073  0117FE  5049               	movf	??_countdown_initial_str2num+1,w,c
  8074  011800  224B               	addwfc	??_countdown_initial_str2num+3,f,c
  8075  011802  0E0D               	movlw	low _numCountdownInitialTime
  8076  011804  244A               	addwf	??_countdown_initial_str2num+2,w,c
  8077  011806  6ED9               	movwf	16345,c
  8078  011808  0E00               	movlw	high _numCountdownInitialTime
  8079  01180A  204B               	addwfc	??_countdown_initial_str2num+3,w,c
  8080  01180C  6EDA               	movwf	16346,c
  8081  01180E  0E01               	movlw	1
  8082  011810  6EDE               	movwf	16350,c
  8083  011812  0E00               	movlw	0
  8084  011814  6EDD               	movwf	16349,c
  8085  011816                     l277:
  8086                           
  8087                           ;countdown.c: 83: if(strCountdownInitialTime[i]=='2'){numCountdownInitialTime[i-2] = 2;}
  8088  011816  0E60               	movlw	low _strCountdownInitialTime
  8089  011818  244C               	addwf	countdown_initial_str2num@i,w,c
  8090  01181A  6ED9               	movwf	16345,c
  8091  01181C  0E00               	movlw	high _strCountdownInitialTime
  8092  01181E  204D               	addwfc	countdown_initial_str2num@i+1,w,c
  8093  011820  6EDA               	movwf	16346,c
  8094  011822  0E32               	movlw	50
  8095  011824  18DE               	xorwf	16350,w,c
  8096  011826  A4D8               	btfss	16344,2,c
  8097  011828  D01B               	goto	l278
  8098  01182A  0EFC               	movlw	252
  8099  01182C  6E48               	movwf	??_countdown_initial_str2num& (0+255),c
  8100  01182E  0EFF               	movlw	255
  8101  011830  6E49               	movwf	(??_countdown_initial_str2num+1)& (0+255),c
  8102  011832  0060  F130  F04A   	movff	countdown_initial_str2num@i,??_countdown_initial_str2num+2
  8103  011838  0060  F134  F04B   	movff	countdown_initial_str2num@i+1,??_countdown_initial_str2num+3
  8104  01183E  90D8               	bcf	16344,0,c
  8105  011840  364A               	rlcf	??_countdown_initial_str2num+2,f,c
  8106  011842  364B               	rlcf	??_countdown_initial_str2num+3,f,c
  8107  011844  5048               	movf	??_countdown_initial_str2num,w,c
  8108  011846  264A               	addwf	??_countdown_initial_str2num+2,f,c
  8109  011848  5049               	movf	??_countdown_initial_str2num+1,w,c
  8110  01184A  224B               	addwfc	??_countdown_initial_str2num+3,f,c
  8111  01184C  0E0D               	movlw	low _numCountdownInitialTime
  8112  01184E  244A               	addwf	??_countdown_initial_str2num+2,w,c
  8113  011850  6ED9               	movwf	16345,c
  8114  011852  0E00               	movlw	high _numCountdownInitialTime
  8115  011854  204B               	addwfc	??_countdown_initial_str2num+3,w,c
  8116  011856  6EDA               	movwf	16346,c
  8117  011858  0E02               	movlw	2
  8118  01185A  6EDE               	movwf	16350,c
  8119  01185C  0E00               	movlw	0
  8120  01185E  6EDD               	movwf	16349,c
  8121  011860                     l278:
  8122                           
  8123                           ;countdown.c: 84: if(strCountdownInitialTime[i]=='3'){numCountdownInitialTime[i-2] = 3;}
  8124  011860  0E60               	movlw	low _strCountdownInitialTime
  8125  011862  244C               	addwf	countdown_initial_str2num@i,w,c
  8126  011864  6ED9               	movwf	16345,c
  8127  011866  0E00               	movlw	high _strCountdownInitialTime
  8128  011868  204D               	addwfc	countdown_initial_str2num@i+1,w,c
  8129  01186A  6EDA               	movwf	16346,c
  8130  01186C  0E33               	movlw	51
  8131  01186E  18DE               	xorwf	16350,w,c
  8132  011870  A4D8               	btfss	16344,2,c
  8133  011872  D01B               	goto	l279
  8134  011874  0EFC               	movlw	252
  8135  011876  6E48               	movwf	??_countdown_initial_str2num& (0+255),c
  8136  011878  0EFF               	movlw	255
  8137  01187A  6E49               	movwf	(??_countdown_initial_str2num+1)& (0+255),c
  8138  01187C  0060  F130  F04A   	movff	countdown_initial_str2num@i,??_countdown_initial_str2num+2
  8139  011882  0060  F134  F04B   	movff	countdown_initial_str2num@i+1,??_countdown_initial_str2num+3
  8140  011888  90D8               	bcf	16344,0,c
  8141  01188A  364A               	rlcf	??_countdown_initial_str2num+2,f,c
  8142  01188C  364B               	rlcf	??_countdown_initial_str2num+3,f,c
  8143  01188E  5048               	movf	??_countdown_initial_str2num,w,c
  8144  011890  264A               	addwf	??_countdown_initial_str2num+2,f,c
  8145  011892  5049               	movf	??_countdown_initial_str2num+1,w,c
  8146  011894  224B               	addwfc	??_countdown_initial_str2num+3,f,c
  8147  011896  0E0D               	movlw	low _numCountdownInitialTime
  8148  011898  244A               	addwf	??_countdown_initial_str2num+2,w,c
  8149  01189A  6ED9               	movwf	16345,c
  8150  01189C  0E00               	movlw	high _numCountdownInitialTime
  8151  01189E  204B               	addwfc	??_countdown_initial_str2num+3,w,c
  8152  0118A0  6EDA               	movwf	16346,c
  8153  0118A2  0E03               	movlw	3
  8154  0118A4  6EDE               	movwf	16350,c
  8155  0118A6  0E00               	movlw	0
  8156  0118A8  6EDD               	movwf	16349,c
  8157  0118AA                     l279:
  8158                           
  8159                           ;countdown.c: 85: if(strCountdownInitialTime[i]=='4'){numCountdownInitialTime[i-2] = 4;}
  8160  0118AA  0E60               	movlw	low _strCountdownInitialTime
  8161  0118AC  244C               	addwf	countdown_initial_str2num@i,w,c
  8162  0118AE  6ED9               	movwf	16345,c
  8163  0118B0  0E00               	movlw	high _strCountdownInitialTime
  8164  0118B2  204D               	addwfc	countdown_initial_str2num@i+1,w,c
  8165  0118B4  6EDA               	movwf	16346,c
  8166  0118B6  0E34               	movlw	52
  8167  0118B8  18DE               	xorwf	16350,w,c
  8168  0118BA  A4D8               	btfss	16344,2,c
  8169  0118BC  D01B               	goto	l280
  8170  0118BE  0EFC               	movlw	252
  8171  0118C0  6E48               	movwf	??_countdown_initial_str2num& (0+255),c
  8172  0118C2  0EFF               	movlw	255
  8173  0118C4  6E49               	movwf	(??_countdown_initial_str2num+1)& (0+255),c
  8174  0118C6  0060  F130  F04A   	movff	countdown_initial_str2num@i,??_countdown_initial_str2num+2
  8175  0118CC  0060  F134  F04B   	movff	countdown_initial_str2num@i+1,??_countdown_initial_str2num+3
  8176  0118D2  90D8               	bcf	16344,0,c
  8177  0118D4  364A               	rlcf	??_countdown_initial_str2num+2,f,c
  8178  0118D6  364B               	rlcf	??_countdown_initial_str2num+3,f,c
  8179  0118D8  5048               	movf	??_countdown_initial_str2num,w,c
  8180  0118DA  264A               	addwf	??_countdown_initial_str2num+2,f,c
  8181  0118DC  5049               	movf	??_countdown_initial_str2num+1,w,c
  8182  0118DE  224B               	addwfc	??_countdown_initial_str2num+3,f,c
  8183  0118E0  0E0D               	movlw	low _numCountdownInitialTime
  8184  0118E2  244A               	addwf	??_countdown_initial_str2num+2,w,c
  8185  0118E4  6ED9               	movwf	16345,c
  8186  0118E6  0E00               	movlw	high _numCountdownInitialTime
  8187  0118E8  204B               	addwfc	??_countdown_initial_str2num+3,w,c
  8188  0118EA  6EDA               	movwf	16346,c
  8189  0118EC  0E04               	movlw	4
  8190  0118EE  6EDE               	movwf	16350,c
  8191  0118F0  0E00               	movlw	0
  8192  0118F2  6EDD               	movwf	16349,c
  8193  0118F4                     l280:
  8194                           
  8195                           ;countdown.c: 86: if(strCountdownInitialTime[i]=='5'){numCountdownInitialTime[i-2] = 5;}
  8196  0118F4  0E60               	movlw	low _strCountdownInitialTime
  8197  0118F6  244C               	addwf	countdown_initial_str2num@i,w,c
  8198  0118F8  6ED9               	movwf	16345,c
  8199  0118FA  0E00               	movlw	high _strCountdownInitialTime
  8200  0118FC  204D               	addwfc	countdown_initial_str2num@i+1,w,c
  8201  0118FE  6EDA               	movwf	16346,c
  8202  011900  0E35               	movlw	53
  8203  011902  18DE               	xorwf	16350,w,c
  8204  011904  A4D8               	btfss	16344,2,c
  8205  011906  D01B               	goto	l281
  8206  011908  0EFC               	movlw	252
  8207  01190A  6E48               	movwf	??_countdown_initial_str2num& (0+255),c
  8208  01190C  0EFF               	movlw	255
  8209  01190E  6E49               	movwf	(??_countdown_initial_str2num+1)& (0+255),c
  8210  011910  0060  F130  F04A   	movff	countdown_initial_str2num@i,??_countdown_initial_str2num+2
  8211  011916  0060  F134  F04B   	movff	countdown_initial_str2num@i+1,??_countdown_initial_str2num+3
  8212  01191C  90D8               	bcf	16344,0,c
  8213  01191E  364A               	rlcf	??_countdown_initial_str2num+2,f,c
  8214  011920  364B               	rlcf	??_countdown_initial_str2num+3,f,c
  8215  011922  5048               	movf	??_countdown_initial_str2num,w,c
  8216  011924  264A               	addwf	??_countdown_initial_str2num+2,f,c
  8217  011926  5049               	movf	??_countdown_initial_str2num+1,w,c
  8218  011928  224B               	addwfc	??_countdown_initial_str2num+3,f,c
  8219  01192A  0E0D               	movlw	low _numCountdownInitialTime
  8220  01192C  244A               	addwf	??_countdown_initial_str2num+2,w,c
  8221  01192E  6ED9               	movwf	16345,c
  8222  011930  0E00               	movlw	high _numCountdownInitialTime
  8223  011932  204B               	addwfc	??_countdown_initial_str2num+3,w,c
  8224  011934  6EDA               	movwf	16346,c
  8225  011936  0E05               	movlw	5
  8226  011938  6EDE               	movwf	16350,c
  8227  01193A  0E00               	movlw	0
  8228  01193C  6EDD               	movwf	16349,c
  8229  01193E                     l281:
  8230                           
  8231                           ;countdown.c: 87: if(strCountdownInitialTime[i]=='6'){numCountdownInitialTime[i-2] = 6;}
  8232  01193E  0E60               	movlw	low _strCountdownInitialTime
  8233  011940  244C               	addwf	countdown_initial_str2num@i,w,c
  8234  011942  6ED9               	movwf	16345,c
  8235  011944  0E00               	movlw	high _strCountdownInitialTime
  8236  011946  204D               	addwfc	countdown_initial_str2num@i+1,w,c
  8237  011948  6EDA               	movwf	16346,c
  8238  01194A  0E36               	movlw	54
  8239  01194C  18DE               	xorwf	16350,w,c
  8240  01194E  A4D8               	btfss	16344,2,c
  8241  011950  D01B               	goto	l282
  8242  011952  0EFC               	movlw	252
  8243  011954  6E48               	movwf	??_countdown_initial_str2num& (0+255),c
  8244  011956  0EFF               	movlw	255
  8245  011958  6E49               	movwf	(??_countdown_initial_str2num+1)& (0+255),c
  8246  01195A  0060  F130  F04A   	movff	countdown_initial_str2num@i,??_countdown_initial_str2num+2
  8247  011960  0060  F134  F04B   	movff	countdown_initial_str2num@i+1,??_countdown_initial_str2num+3
  8248  011966  90D8               	bcf	16344,0,c
  8249  011968  364A               	rlcf	??_countdown_initial_str2num+2,f,c
  8250  01196A  364B               	rlcf	??_countdown_initial_str2num+3,f,c
  8251  01196C  5048               	movf	??_countdown_initial_str2num,w,c
  8252  01196E  264A               	addwf	??_countdown_initial_str2num+2,f,c
  8253  011970  5049               	movf	??_countdown_initial_str2num+1,w,c
  8254  011972  224B               	addwfc	??_countdown_initial_str2num+3,f,c
  8255  011974  0E0D               	movlw	low _numCountdownInitialTime
  8256  011976  244A               	addwf	??_countdown_initial_str2num+2,w,c
  8257  011978  6ED9               	movwf	16345,c
  8258  01197A  0E00               	movlw	high _numCountdownInitialTime
  8259  01197C  204B               	addwfc	??_countdown_initial_str2num+3,w,c
  8260  01197E  6EDA               	movwf	16346,c
  8261  011980  0E06               	movlw	6
  8262  011982  6EDE               	movwf	16350,c
  8263  011984  0E00               	movlw	0
  8264  011986  6EDD               	movwf	16349,c
  8265  011988                     l282:
  8266                           
  8267                           ;countdown.c: 88: if(strCountdownInitialTime[i]=='7'){numCountdownInitialTime[i-2] = 7;}
  8268  011988  0E60               	movlw	low _strCountdownInitialTime
  8269  01198A  244C               	addwf	countdown_initial_str2num@i,w,c
  8270  01198C  6ED9               	movwf	16345,c
  8271  01198E  0E00               	movlw	high _strCountdownInitialTime
  8272  011990  204D               	addwfc	countdown_initial_str2num@i+1,w,c
  8273  011992  6EDA               	movwf	16346,c
  8274  011994  0E37               	movlw	55
  8275  011996  18DE               	xorwf	16350,w,c
  8276  011998  A4D8               	btfss	16344,2,c
  8277  01199A  D01B               	goto	l283
  8278  01199C  0EFC               	movlw	252
  8279  01199E  6E48               	movwf	??_countdown_initial_str2num& (0+255),c
  8280  0119A0  0EFF               	movlw	255
  8281  0119A2  6E49               	movwf	(??_countdown_initial_str2num+1)& (0+255),c
  8282  0119A4  0060  F130  F04A   	movff	countdown_initial_str2num@i,??_countdown_initial_str2num+2
  8283  0119AA  0060  F134  F04B   	movff	countdown_initial_str2num@i+1,??_countdown_initial_str2num+3
  8284  0119B0  90D8               	bcf	16344,0,c
  8285  0119B2  364A               	rlcf	??_countdown_initial_str2num+2,f,c
  8286  0119B4  364B               	rlcf	??_countdown_initial_str2num+3,f,c
  8287  0119B6  5048               	movf	??_countdown_initial_str2num,w,c
  8288  0119B8  264A               	addwf	??_countdown_initial_str2num+2,f,c
  8289  0119BA  5049               	movf	??_countdown_initial_str2num+1,w,c
  8290  0119BC  224B               	addwfc	??_countdown_initial_str2num+3,f,c
  8291  0119BE  0E0D               	movlw	low _numCountdownInitialTime
  8292  0119C0  244A               	addwf	??_countdown_initial_str2num+2,w,c
  8293  0119C2  6ED9               	movwf	16345,c
  8294  0119C4  0E00               	movlw	high _numCountdownInitialTime
  8295  0119C6  204B               	addwfc	??_countdown_initial_str2num+3,w,c
  8296  0119C8  6EDA               	movwf	16346,c
  8297  0119CA  0E07               	movlw	7
  8298  0119CC  6EDE               	movwf	16350,c
  8299  0119CE  0E00               	movlw	0
  8300  0119D0  6EDD               	movwf	16349,c
  8301  0119D2                     l283:
  8302                           
  8303                           ;countdown.c: 89: if(strCountdownInitialTime[i]=='8'){numCountdownInitialTime[i-2] = 8;}
  8304  0119D2  0E60               	movlw	low _strCountdownInitialTime
  8305  0119D4  244C               	addwf	countdown_initial_str2num@i,w,c
  8306  0119D6  6ED9               	movwf	16345,c
  8307  0119D8  0E00               	movlw	high _strCountdownInitialTime
  8308  0119DA  204D               	addwfc	countdown_initial_str2num@i+1,w,c
  8309  0119DC  6EDA               	movwf	16346,c
  8310  0119DE  0E38               	movlw	56
  8311  0119E0  18DE               	xorwf	16350,w,c
  8312  0119E2  A4D8               	btfss	16344,2,c
  8313  0119E4  D01B               	goto	l284
  8314  0119E6  0EFC               	movlw	252
  8315  0119E8  6E48               	movwf	??_countdown_initial_str2num& (0+255),c
  8316  0119EA  0EFF               	movlw	255
  8317  0119EC  6E49               	movwf	(??_countdown_initial_str2num+1)& (0+255),c
  8318  0119EE  0060  F130  F04A   	movff	countdown_initial_str2num@i,??_countdown_initial_str2num+2
  8319  0119F4  0060  F134  F04B   	movff	countdown_initial_str2num@i+1,??_countdown_initial_str2num+3
  8320  0119FA  90D8               	bcf	16344,0,c
  8321  0119FC  364A               	rlcf	??_countdown_initial_str2num+2,f,c
  8322  0119FE  364B               	rlcf	??_countdown_initial_str2num+3,f,c
  8323  011A00  5048               	movf	??_countdown_initial_str2num,w,c
  8324  011A02  264A               	addwf	??_countdown_initial_str2num+2,f,c
  8325  011A04  5049               	movf	??_countdown_initial_str2num+1,w,c
  8326  011A06  224B               	addwfc	??_countdown_initial_str2num+3,f,c
  8327  011A08  0E0D               	movlw	low _numCountdownInitialTime
  8328  011A0A  244A               	addwf	??_countdown_initial_str2num+2,w,c
  8329  011A0C  6ED9               	movwf	16345,c
  8330  011A0E  0E00               	movlw	high _numCountdownInitialTime
  8331  011A10  204B               	addwfc	??_countdown_initial_str2num+3,w,c
  8332  011A12  6EDA               	movwf	16346,c
  8333  011A14  0E08               	movlw	8
  8334  011A16  6EDE               	movwf	16350,c
  8335  011A18  0E00               	movlw	0
  8336  011A1A  6EDD               	movwf	16349,c
  8337  011A1C                     l284:
  8338                           
  8339                           ;countdown.c: 90: if(strCountdownInitialTime[i]=='9'){numCountdownInitialTime[i-2] = 9;}
  8340  011A1C  0E60               	movlw	low _strCountdownInitialTime
  8341  011A1E  244C               	addwf	countdown_initial_str2num@i,w,c
  8342  011A20  6ED9               	movwf	16345,c
  8343  011A22  0E00               	movlw	high _strCountdownInitialTime
  8344  011A24  204D               	addwfc	countdown_initial_str2num@i+1,w,c
  8345  011A26  6EDA               	movwf	16346,c
  8346  011A28  0E39               	movlw	57
  8347  011A2A  18DE               	xorwf	16350,w,c
  8348  011A2C  A4D8               	btfss	16344,2,c
  8349  011A2E  D01B               	goto	l285
  8350  011A30  0EFC               	movlw	252
  8351  011A32  6E48               	movwf	??_countdown_initial_str2num& (0+255),c
  8352  011A34  0EFF               	movlw	255
  8353  011A36  6E49               	movwf	(??_countdown_initial_str2num+1)& (0+255),c
  8354  011A38  0060  F130  F04A   	movff	countdown_initial_str2num@i,??_countdown_initial_str2num+2
  8355  011A3E  0060  F134  F04B   	movff	countdown_initial_str2num@i+1,??_countdown_initial_str2num+3
  8356  011A44  90D8               	bcf	16344,0,c
  8357  011A46  364A               	rlcf	??_countdown_initial_str2num+2,f,c
  8358  011A48  364B               	rlcf	??_countdown_initial_str2num+3,f,c
  8359  011A4A  5048               	movf	??_countdown_initial_str2num,w,c
  8360  011A4C  264A               	addwf	??_countdown_initial_str2num+2,f,c
  8361  011A4E  5049               	movf	??_countdown_initial_str2num+1,w,c
  8362  011A50  224B               	addwfc	??_countdown_initial_str2num+3,f,c
  8363  011A52  0E0D               	movlw	low _numCountdownInitialTime
  8364  011A54  244A               	addwf	??_countdown_initial_str2num+2,w,c
  8365  011A56  6ED9               	movwf	16345,c
  8366  011A58  0E00               	movlw	high _numCountdownInitialTime
  8367  011A5A  204B               	addwfc	??_countdown_initial_str2num+3,w,c
  8368  011A5C  6EDA               	movwf	16346,c
  8369  011A5E  0E09               	movlw	9
  8370  011A60  6EDE               	movwf	16350,c
  8371  011A62  0E00               	movlw	0
  8372  011A64  6EDD               	movwf	16349,c
  8373  011A66                     l285:
  8374  011A66  4A4C               	infsnz	countdown_initial_str2num@i,f,c
  8375  011A68  2A4D               	incf	countdown_initial_str2num@i+1,f,c
  8376  011A6A  BE4D               	btfsc	countdown_initial_str2num@i+1,7,c
  8377  011A6C  D416               	goto	l245
  8378  011A6E  504D               	movf	countdown_initial_str2num@i+1,w,c
  8379  011A70  E101               	bnz	l286
  8380  011A72  D40D               	goto	L15
  8381  011A74                     l286:
  8382  011A74  0012               	return		;funcret
  8383  011A76                     __end_of_countdown_initial_str2num:
  8384                           	opt stack 0
  8385                           
  8386 ;; *************** function _countdownStop *****************
  8387 ;; Defined at:
  8388 ;;		line 31 in file "countdown.c"
  8389 ;; Parameters:    Size  Location     Type
  8390 ;;		None
  8391 ;; Auto vars:     Size  Location     Type
  8392 ;;		None
  8393 ;; Return value:  Size  Location     Type
  8394 ;;                  1    wreg      void 
  8395 ;; Registers used:
  8396 ;;		None
  8397 ;; Tracked objects:
  8398 ;;		On entry : 0/0
  8399 ;;		On exit  : 0/0
  8400 ;;		Unchanged: 0/0
  8401 ;; Data sizes:     COMRAM   BANK0   BANK1   BANK2   BANK3   BANK4   BANK5   BANK6   BANK7   BANK8   BANK9  BANK10  BANK1
      +1  BANK12  BANK13  BANK14  BANK15  BANK16  BANK17  BANK18  BANK19  BANK20  BANK21  BANK22  BANK23  BANK24  BANK25  BANK2
      +6  BANK27  BANK28  BANK29  BANK30  BANK31
  8402 ;;      Params:         0       0       0       0       0       0       0       0       0       0       0       0       
      +0       0       0       0       0       0       0       0       0       0       0       0       0       0       0       
      +0       0       0       0       0       0
  8403 ;;      Locals:         0       0       0       0       0       0       0       0       0       0       0       0       
      +0       0       0       0       0       0       0       0       0       0       0       0       0       0       0       
      +0       0       0       0       0       0
  8404 ;;      Temps:          0       0       0       0       0       0       0       0       0       0       0       0       
      +0       0       0       0       0       0       0       0       0       0       0       0       0       0       0       
      +0       0       0       0       0       0
  8405 ;;      Totals:         0       0       0       0       0       0       0       0       0       0       0       0       
      +0       0       0       0       0       0       0       0       0       0       0       0       0       0       0       
      +0       0       0       0       0       0
  8406 ;;Total ram usage:        0 bytes
  8407 ;; Hardware stack levels used:    1
  8408 ;; Hardware stack levels required when called:    5
  8409 ;; This function calls:
  8410 ;;		Nothing
  8411 ;; This function is called by:
  8412 ;;		_main
  8413 ;; This function uses a non-reentrant model
  8414 ;;
  8415                           
  8416                           	psect	text33
  8417  013172                     __ptext33:
  8418                           	opt stack 0
  8419  013172                     _countdownStop:
  8420                           	opt stack 25
  8421                           
  8422                           ;countdown.c: 33: T0CON0bits.EN = 0;
  8423                           
  8424                           ;incstack = 0
  8425  013172  013F               	movlb	63	; () banked
  8426  013174  9FB8               	bcf	184,7,b	;volatile
  8427                           
  8428                           ; BSR set to: 63
  8429  013176  0012               	return		;funcret
  8430  013178                     __end_of_countdownStop:
  8431                           	opt stack 0
  8432                           
  8433 ;; *************** function _countdownStart *****************
  8434 ;; Defined at:
  8435 ;;		line 24 in file "countdown.c"
  8436 ;; Parameters:    Size  Location     Type
  8437 ;;		None
  8438 ;; Auto vars:     Size  Location     Type
  8439 ;;		None
  8440 ;; Return value:  Size  Location     Type
  8441 ;;                  1    wreg      void 
  8442 ;; Registers used:
  8443 ;;		wreg, status,2
  8444 ;; Tracked objects:
  8445 ;;		On entry : 0/0
  8446 ;;		On exit  : 0/0
  8447 ;;		Unchanged: 0/0
  8448 ;; Data sizes:     COMRAM   BANK0   BANK1   BANK2   BANK3   BANK4   BANK5   BANK6   BANK7   BANK8   BANK9  BANK10  BANK1
      +1  BANK12  BANK13  BANK14  BANK15  BANK16  BANK17  BANK18  BANK19  BANK20  BANK21  BANK22  BANK23  BANK24  BANK25  BANK2
      +6  BANK27  BANK28  BANK29  BANK30  BANK31
  8449 ;;      Params:         0       0       0       0       0       0       0       0       0       0       0       0       
      +0       0       0       0       0       0       0       0       0       0       0       0       0       0       0       
      +0       0       0       0       0       0
  8450 ;;      Locals:         0       0       0       0       0       0       0       0       0       0       0       0       
      +0       0       0       0       0       0       0       0       0       0       0       0       0       0       0       
      +0       0       0       0       0       0
  8451 ;;      Temps:          0       0       0       0       0       0       0       0       0       0       0       0       
      +0       0       0       0       0       0       0       0       0       0       0       0       0       0       0       
      +0       0       0       0       0       0
  8452 ;;      Totals:         0       0       0       0       0       0       0       0       0       0       0       0       
      +0       0       0       0       0       0       0       0       0       0       0       0       0       0       0       
      +0       0       0       0       0       0
  8453 ;;Total ram usage:        0 bytes
  8454 ;; Hardware stack levels used:    1
  8455 ;; Hardware stack levels required when called:    5
  8456 ;; This function calls:
  8457 ;;		Nothing
  8458 ;; This function is called by:
  8459 ;;		_main
  8460 ;; This function uses a non-reentrant model
  8461 ;;
  8462                           
  8463                           	psect	text34
  8464  01312E                     __ptext34:
  8465                           	opt stack 0
  8466  01312E                     _countdownStart:
  8467                           	opt stack 25
  8468                           
  8469                           ;countdown.c: 26: TMR0H = 0x63;
  8470                           
  8471                           ; BSR set to: 63
  8472                           ;incstack = 0
  8473  01312E  0E63               	movlw	99
  8474  013130  013F               	movlb	63	; () banked
  8475  013132  6FB7               	movwf	183,b	;volatile
  8476                           
  8477                           ;countdown.c: 27: TMR0L = 0xBF;
  8478  013134  0EBF               	movlw	191
  8479  013136  6FB6               	movwf	182,b	;volatile
  8480                           
  8481                           ; BSR set to: 63
  8482                           ;countdown.c: 28: T0CON0bits.EN = 1;
  8483  013138  8FB8               	bsf	184,7,b	;volatile
  8484                           
  8485                           ; BSR set to: 63
  8486  01313A  0012               	return		;funcret
  8487  01313C                     __end_of_countdownStart:
  8488                           	opt stack 0
  8489                           
  8490 ;; *************** function _armedPageReset *****************
  8491 ;; Defined at:
  8492 ;;		line 68 in file "main.c"
  8493 ;; Parameters:    Size  Location     Type
  8494 ;;		None
  8495 ;; Auto vars:     Size  Location     Type
  8496 ;;		None
  8497 ;; Return value:  Size  Location     Type
  8498 ;;                  1    wreg      void 
  8499 ;; Registers used:
  8500 ;;		wreg, fsr2l, fsr2h, status,2, status,0, tblptrl, tblptrh, tblptru, cstack
  8501 ;; Tracked objects:
  8502 ;;		On entry : 0/0
  8503 ;;		On exit  : 0/0
  8504 ;;		Unchanged: 0/0
  8505 ;; Data sizes:     COMRAM   BANK0   BANK1   BANK2   BANK3   BANK4   BANK5   BANK6   BANK7   BANK8   BANK9  BANK10  BANK1
      +1  BANK12  BANK13  BANK14  BANK15  BANK16  BANK17  BANK18  BANK19  BANK20  BANK21  BANK22  BANK23  BANK24  BANK25  BANK2
      +6  BANK27  BANK28  BANK29  BANK30  BANK31
  8506 ;;      Params:         0       0       0       0       0       0       0       0       0       0       0       0       
      +0       0       0       0       0       0       0       0       0       0       0       0       0       0       0       
      +0       0       0       0       0       0
  8507 ;;      Locals:         0       0       0       0       0       0       0       0       0       0       0       0       
      +0       0       0       0       0       0       0       0       0       0       0       0       0       0       0       
      +0       0       0       0       0       0
  8508 ;;      Temps:          0       0       0       0       0       0       0       0       0       0       0       0       
      +0       0       0       0       0       0       0       0       0       0       0       0       0       0       0       
      +0       0       0       0       0       0
  8509 ;;      Totals:         0       0       0       0       0       0       0       0       0       0       0       0       
      +0       0       0       0       0       0       0       0       0       0       0       0       0       0       0       
      +0       0       0       0       0       0
  8510 ;;Total ram usage:        0 bytes
  8511 ;; Hardware stack levels used:    1
  8512 ;; Hardware stack levels required when called:    8
  8513 ;; This function calls:
  8514 ;;		_LCD_Set_Cursor
  8515 ;;		_LCD_Write_String
  8516 ;;		_LCD_resetPasswordEntry
  8517 ;;		_resetEntry
  8518 ;; This function is called by:
  8519 ;;		_main
  8520 ;; This function uses a non-reentrant model
  8521 ;;
  8522                           
  8523                           	psect	text35
  8524  012D6A                     __ptext35:
  8525                           	opt stack 0
  8526  012D6A                     _armedPageReset:
  8527                           	opt stack 22
  8528                           
  8529                           ;main.c: 70: LCD_Set_Cursor(1,1);
  8530                           
  8531                           ; BSR set to: 63
  8532                           ;incstack = 0
  8533  012D6A  0E00               	movlw	0
  8534  012D6C  6E4A               	movwf	LCD_Set_Cursor@c+1,c
  8535  012D6E  0E01               	movlw	1
  8536  012D70  6E49               	movwf	LCD_Set_Cursor@c,c
  8537  012D72  0E00               	movlw	0
  8538  012D74  6E4C               	movwf	LCD_Set_Cursor@d+1,c
  8539  012D76  0E01               	movlw	1
  8540  012D78  6E4B               	movwf	LCD_Set_Cursor@d,c
  8541  012D7A  EC3A  F097         	call	_LCD_Set_Cursor	;wreg free
  8542                           
  8543                           ;main.c: 71: LCD_Write_String("ARMED ");
  8544  012D7E  0EF0               	movlw	low STR_11
  8545  012D80  6E49               	movwf	LCD_Write_String@f,c
  8546  012D82  0EFF               	movlw	high STR_11
  8547  012D84  6E4A               	movwf	LCD_Write_String@f+1,c
  8548  012D86  EC31  F095         	call	_LCD_Write_String	;wreg free
  8549                           
  8550                           ;main.c: 72: keyIterrator = 0;
  8551  012D8A  0E00               	movlw	0
  8552  012D8C  6E37               	movwf	_keyIterrator+1,c
  8553  012D8E  0E00               	movlw	0
  8554  012D90  6E36               	movwf	_keyIterrator,c
  8555                           
  8556                           ;main.c: 73: resetEntry(userPswdEntry);
  8557  012D92  0E93               	movlw	low _userPswdEntry
  8558  012D94  6E4E               	movwf	resetEntry@str,c
  8559  012D96  0E00               	movlw	high _userPswdEntry
  8560  012D98  6E4F               	movwf	resetEntry@str+1,c
  8561  012D9A  EC7A  F096         	call	_resetEntry	;wreg free
  8562                           
  8563                           ;main.c: 74: LCD_resetPasswordEntry();
  8564  012D9E  ECEE  F096         	call	_LCD_resetPasswordEntry	;wreg free
  8565  012DA2  0012               	return		;funcret
  8566  012DA4                     __end_of_armedPageReset:
  8567                           	opt stack 0
  8568                           
  8569 ;; *************** function _resetEntry *****************
  8570 ;; Defined at:
  8571 ;;		line 34 in file "main.c"
  8572 ;; Parameters:    Size  Location     Type
  8573 ;;  str             2   18[COMRAM] PTR unsigned char 
  8574 ;;		 -> userPswdEntry(8), 
  8575 ;; Auto vars:     Size  Location     Type
  8576 ;;  i               2   20[COMRAM] int 
  8577 ;; Return value:  Size  Location     Type
  8578 ;;                  1    wreg      void 
  8579 ;; Registers used:
  8580 ;;		wreg, fsr2l, fsr2h, status,2, status,0, cstack
  8581 ;; Tracked objects:
  8582 ;;		On entry : 0/0
  8583 ;;		On exit  : 0/0
  8584 ;;		Unchanged: 0/0
  8585 ;; Data sizes:     COMRAM   BANK0   BANK1   BANK2   BANK3   BANK4   BANK5   BANK6   BANK7   BANK8   BANK9  BANK10  BANK1
      +1  BANK12  BANK13  BANK14  BANK15  BANK16  BANK17  BANK18  BANK19  BANK20  BANK21  BANK22  BANK23  BANK24  BANK25  BANK2
      +6  BANK27  BANK28  BANK29  BANK30  BANK31
  8586 ;;      Params:         2       0       0       0       0       0       0       0       0       0       0       0       
      +0       0       0       0       0       0       0       0       0       0       0       0       0       0       0       
      +0       0       0       0       0       0
  8587 ;;      Locals:         2       0       0       0       0       0       0       0       0       0       0       0       
      +0       0       0       0       0       0       0       0       0       0       0       0       0       0       0       
      +0       0       0       0       0       0
  8588 ;;      Temps:          0       0       0       0       0       0       0       0       0       0       0       0       
      +0       0       0       0       0       0       0       0       0       0       0       0       0       0       0       
      +0       0       0       0       0       0
  8589 ;;      Totals:         4       0       0       0       0       0       0       0       0       0       0       0       
      +0       0       0       0       0       0       0       0       0       0       0       0       0       0       0       
      +0       0       0       0       0       0
  8590 ;;Total ram usage:        4 bytes
  8591 ;; Hardware stack levels used:    1
  8592 ;; Hardware stack levels required when called:    6
  8593 ;; This function calls:
  8594 ;;		_strlen
  8595 ;; This function is called by:
  8596 ;;		_stanbyPageReset
  8597 ;;		_armedPageReset
  8598 ;;		_disarmedPageReset
  8599 ;;		_main
  8600 ;; This function uses a non-reentrant model
  8601 ;;
  8602                           
  8603                           	psect	text36
  8604  012CF4                     __ptext36:
  8605                           	opt stack 0
  8606  012CF4                     _resetEntry:
  8607                           	opt stack 23
  8608                           
  8609                           ;main.c: 36: for(int i=0;i<=strlen(str);i++)
  8610                           
  8611                           ;incstack = 0
  8612  012CF4  0E00               	movlw	0
  8613  012CF6  6E51               	movwf	resetEntry@i+1,c
  8614  012CF8  0E00               	movlw	0
  8615  012CFA  6E50               	movwf	resetEntry@i,c
  8616  012CFC  D00A               	goto	l724
  8617  012CFE                     
  8618                           ;main.c: 37: {;main.c: 38: str[i]=0;
  8619  012CFE  5050               	movf	resetEntry@i,w,c
  8620  012D00  244E               	addwf	resetEntry@str,w,c
  8621  012D02  6ED9               	movwf	16345,c
  8622  012D04  5051               	movf	resetEntry@i+1,w,c
  8623  012D06  204F               	addwfc	resetEntry@str+1,w,c
  8624  012D08  6EDA               	movwf	16346,c
  8625  012D0A  0E00               	movlw	0
  8626  012D0C  6EDF               	movwf	16351,c
  8627  012D0E  4A50               	infsnz	resetEntry@i,f,c
  8628  012D10  2A51               	incf	resetEntry@i+1,f,c
  8629  012D12                     l724:
  8630  012D12  0060  F138  F048   	movff	resetEntry@str,strlen@s
  8631  012D18  0060  F13C  F049   	movff	resetEntry@str+1,strlen@s+1
  8632  012D1E  EC15  F096         	call	_strlen	;wreg free
  8633  012D22  5050               	movf	resetEntry@i,w,c
  8634  012D24  5C48               	subwf	?_strlen,w,c
  8635  012D26  5051               	movf	resetEntry@i+1,w,c
  8636  012D28  5849               	subwfb	?_strlen+1,w,c
  8637  012D2A  A0D8               	btfss	16344,0,c
  8638  012D2C  0012               	return	
  8639  012D2E  D7E7               	goto	l725
  8640  012D30                     __end_of_resetEntry:
  8641                           	opt stack 0
  8642                           
  8643 ;; *************** function _strlen *****************
  8644 ;; Defined at:
  8645 ;;		line 4 in file "C:\Program Files (x86)\Microchip\xc8\v2.00\pic\sources\c90\common\strlen.c"
  8646 ;; Parameters:    Size  Location     Type
  8647 ;;  s               2   12[COMRAM] PTR const unsigned char 
  8648 ;;		 -> userPswdEntry(8), 
  8649 ;; Auto vars:     Size  Location     Type
  8650 ;;  cp              2   16[COMRAM] PTR const unsigned char 
  8651 ;;		 -> userPswdEntry(8), 
  8652 ;; Return value:  Size  Location     Type
  8653 ;;                  2   12[COMRAM] unsigned int 
  8654 ;; Registers used:
  8655 ;;		wreg, fsr2l, fsr2h, status,2, status,0
  8656 ;; Tracked objects:
  8657 ;;		On entry : 0/0
  8658 ;;		On exit  : 0/0
  8659 ;;		Unchanged: 0/0
  8660 ;; Data sizes:     COMRAM   BANK0   BANK1   BANK2   BANK3   BANK4   BANK5   BANK6   BANK7   BANK8   BANK9  BANK10  BANK1
      +1  BANK12  BANK13  BANK14  BANK15  BANK16  BANK17  BANK18  BANK19  BANK20  BANK21  BANK22  BANK23  BANK24  BANK25  BANK2
      +6  BANK27  BANK28  BANK29  BANK30  BANK31
  8661 ;;      Params:         2       0       0       0       0       0       0       0       0       0       0       0       
      +0       0       0       0       0       0       0       0       0       0       0       0       0       0       0       
      +0       0       0       0       0       0
  8662 ;;      Locals:         2       0       0       0       0       0       0       0       0       0       0       0       
      +0       0       0       0       0       0       0       0       0       0       0       0       0       0       0       
      +0       0       0       0       0       0
  8663 ;;      Temps:          2       0       0       0       0       0       0       0       0       0       0       0       
      +0       0       0       0       0       0       0       0       0       0       0       0       0       0       0       
      +0       0       0       0       0       0
  8664 ;;      Totals:         6       0       0       0       0       0       0       0       0       0       0       0       
      +0       0       0       0       0       0       0       0       0       0       0       0       0       0       0       
      +0       0       0       0       0       0
  8665 ;;Total ram usage:        6 bytes
  8666 ;; Hardware stack levels used:    1
  8667 ;; Hardware stack levels required when called:    5
  8668 ;; This function calls:
  8669 ;;		Nothing
  8670 ;; This function is called by:
  8671 ;;		_resetEntry
  8672 ;;		_serialPrint
  8673 ;; This function uses a non-reentrant model
  8674 ;;
  8675                           
  8676                           	psect	text37
  8677  012C2A                     __ptext37:
  8678                           	opt stack 0
  8679  012C2A                     _strlen:
  8680                           	opt stack 23
  8681                           
  8682                           ;incstack = 0
  8683  012C2A  0060  F120  F04C   	movff	strlen@s,strlen@cp
  8684  012C30  0060  F124  F04D   	movff	strlen@s+1,strlen@cp+1
  8685  012C36  D002               	goto	l1817
  8686  012C38  4A4C               	infsnz	strlen@cp,f,c
  8687  012C3A  2A4D               	incf	strlen@cp+1,f,c
  8688  012C3C                     l1817:
  8689  012C3C  0060  F133  FFD9   	movff	strlen@cp,16345
  8690  012C42  0060  F137  FFDA   	movff	strlen@cp+1,16346
  8691  012C48  50DF               	movf	16351,w,c
  8692  012C4A  A4D8               	btfss	16344,2,c
  8693  012C4C  D7F5               	goto	l1818
  8694  012C4E  0060  F120  F04A   	movff	strlen@s,??_strlen
  8695  012C54  0060  F124  F04B   	movff	strlen@s+1,??_strlen+1
  8696  012C5A  1E4A               	comf	??_strlen,f,c
  8697  012C5C  1E4B               	comf	??_strlen+1,f,c
  8698  012C5E  4A4A               	infsnz	??_strlen,f,c
  8699  012C60  2A4B               	incf	??_strlen+1,f,c
  8700  012C62  504C               	movf	strlen@cp,w,c
  8701  012C64  244A               	addwf	??_strlen,w,c
  8702  012C66  6E48               	movwf	?_strlen,c
  8703  012C68  504D               	movf	strlen@cp+1,w,c
  8704  012C6A  204B               	addwfc	??_strlen+1,w,c
  8705  012C6C  6E49               	movwf	?_strlen+1,c
  8706  012C6E  0012               	return	
  8707  012C70                     __end_of_strlen:
  8708                           	opt stack 0
  8709                           
  8710 ;; *************** function _LCD_resetPasswordEntry *****************
  8711 ;; Defined at:
  8712 ;;		line 172 in file "lcd.c"
  8713 ;; Parameters:    Size  Location     Type
  8714 ;;		None
  8715 ;; Auto vars:     Size  Location     Type
  8716 ;;		None
  8717 ;; Return value:  Size  Location     Type
  8718 ;;                  1    wreg      void 
  8719 ;; Registers used:
  8720 ;;		wreg, status,2, status,0, tblptrl, tblptrh, tblptru, cstack
  8721 ;; Tracked objects:
  8722 ;;		On entry : 0/0
  8723 ;;		On exit  : 0/0
  8724 ;;		Unchanged: 0/0
  8725 ;; Data sizes:     COMRAM   BANK0   BANK1   BANK2   BANK3   BANK4   BANK5   BANK6   BANK7   BANK8   BANK9  BANK10  BANK1
      +1  BANK12  BANK13  BANK14  BANK15  BANK16  BANK17  BANK18  BANK19  BANK20  BANK21  BANK22  BANK23  BANK24  BANK25  BANK2
      +6  BANK27  BANK28  BANK29  BANK30  BANK31
  8726 ;;      Params:         0       0       0       0       0       0       0       0       0       0       0       0       
      +0       0       0       0       0       0       0       0       0       0       0       0       0       0       0       
      +0       0       0       0       0       0
  8727 ;;      Locals:         0       0       0       0       0       0       0       0       0       0       0       0       
      +0       0       0       0       0       0       0       0       0       0       0       0       0       0       0       
      +0       0       0       0       0       0
  8728 ;;      Temps:          0       0       0       0       0       0       0       0       0       0       0       0       
      +0       0       0       0       0       0       0       0       0       0       0       0       0       0       0       
      +0       0       0       0       0       0
  8729 ;;      Totals:         0       0       0       0       0       0       0       0       0       0       0       0       
      +0       0       0       0       0       0       0       0       0       0       0       0       0       0       0       
      +0       0       0       0       0       0
  8730 ;;Total ram usage:        0 bytes
  8731 ;; Hardware stack levels used:    1
  8732 ;; Hardware stack levels required when called:    7
  8733 ;; This function calls:
  8734 ;;		_LCD_Set_Cursor
  8735 ;;		_LCD_Write_String
  8736 ;; This function is called by:
  8737 ;;		_stanbyPageReset
  8738 ;;		_armedPageReset
  8739 ;;		_disarmedPageReset
  8740 ;;		_main
  8741 ;; This function uses a non-reentrant model
  8742 ;;
  8743                           
  8744                           	psect	text38
  8745  012DDC                     __ptext38:
  8746                           	opt stack 0
  8747  012DDC                     _LCD_resetPasswordEntry:
  8748                           	opt stack 22
  8749                           
  8750                           ;lcd.c: 174: LCD_Set_Cursor(2,1);
  8751                           
  8752                           ;incstack = 0
  8753  012DDC  0E00               	movlw	0
  8754  012DDE  6E4A               	movwf	LCD_Set_Cursor@c+1,c
  8755  012DE0  0E02               	movlw	2
  8756  012DE2  6E49               	movwf	LCD_Set_Cursor@c,c
  8757  012DE4  0E00               	movlw	0
  8758  012DE6  6E4C               	movwf	LCD_Set_Cursor@d+1,c
  8759  012DE8  0E01               	movlw	1
  8760  012DEA  6E4B               	movwf	LCD_Set_Cursor@d,c
  8761  012DEC  EC3A  F097         	call	_LCD_Set_Cursor	;wreg free
  8762                           
  8763                           ;lcd.c: 175: LCD_Write_String("PASSWORD:       ");
  8764  012DF0  0E9D               	movlw	low STR_9
  8765  012DF2  6E49               	movwf	LCD_Write_String@f,c
  8766  012DF4  0EFF               	movlw	high STR_9
  8767  012DF6  6E4A               	movwf	LCD_Write_String@f+1,c
  8768  012DF8  EC31  F095         	call	_LCD_Write_String	;wreg free
  8769                           
  8770                           ;lcd.c: 176: LCD_Set_Cursor(2,10);
  8771  012DFC  0E00               	movlw	0
  8772  012DFE  6E4A               	movwf	LCD_Set_Cursor@c+1,c
  8773  012E00  0E02               	movlw	2
  8774  012E02  6E49               	movwf	LCD_Set_Cursor@c,c
  8775  012E04  0E00               	movlw	0
  8776  012E06  6E4C               	movwf	LCD_Set_Cursor@d+1,c
  8777  012E08  0E0A               	movlw	10
  8778  012E0A  6E4B               	movwf	LCD_Set_Cursor@d,c
  8779  012E0C  EC3A  F097         	call	_LCD_Set_Cursor	;wreg free
  8780  012E10  0012               	return		;funcret
  8781  012E12                     __end_of_LCD_resetPasswordEntry:
  8782                           	opt stack 0
  8783                           
  8784 ;; *************** function _armBeep *****************
  8785 ;; Defined at:
  8786 ;;		line 138 in file "beeper.c"
  8787 ;; Parameters:    Size  Location     Type
  8788 ;;		None
  8789 ;; Auto vars:     Size  Location     Type
  8790 ;;		None
  8791 ;; Return value:  Size  Location     Type
  8792 ;;                  1    wreg      void 
  8793 ;; Registers used:
  8794 ;;		wreg, status,2, cstack
  8795 ;; Tracked objects:
  8796 ;;		On entry : 0/0
  8797 ;;		On exit  : 0/0
  8798 ;;		Unchanged: 0/0
  8799 ;; Data sizes:     COMRAM   BANK0   BANK1   BANK2   BANK3   BANK4   BANK5   BANK6   BANK7   BANK8   BANK9  BANK10  BANK1
      +1  BANK12  BANK13  BANK14  BANK15  BANK16  BANK17  BANK18  BANK19  BANK20  BANK21  BANK22  BANK23  BANK24  BANK25  BANK2
      +6  BANK27  BANK28  BANK29  BANK30  BANK31
  8800 ;;      Params:         0       0       0       0       0       0       0       0       0       0       0       0       
      +0       0       0       0       0       0       0       0       0       0       0       0       0       0       0       
      +0       0       0       0       0       0
  8801 ;;      Locals:         0       0       0       0       0       0       0       0       0       0       0       0       
      +0       0       0       0       0       0       0       0       0       0       0       0       0       0       0       
      +0       0       0       0       0       0
  8802 ;;      Temps:          2       0       0       0       0       0       0       0       0       0       0       0       
      +0       0       0       0       0       0       0       0       0       0       0       0       0       0       0       
      +0       0       0       0       0       0
  8803 ;;      Totals:         2       0       0       0       0       0       0       0       0       0       0       0       
      +0       0       0       0       0       0       0       0       0       0       0       0       0       0       0       
      +0       0       0       0       0       0
  8804 ;;Total ram usage:        2 bytes
  8805 ;; Hardware stack levels used:    1
  8806 ;; Hardware stack levels required when called:    6
  8807 ;; This function calls:
  8808 ;;		_veryLowBeep
  8809 ;; This function is called by:
  8810 ;;		_main
  8811 ;; This function uses a non-reentrant model
  8812 ;;
  8813                           
  8814                           	psect	text39
  8815  012FEA                     __ptext39:
  8816                           	opt stack 0
  8817  012FEA                     _armBeep:
  8818                           	opt stack 24
  8819                           
  8820                           ;beeper.c: 140: veryLowBeep();
  8821                           
  8822                           ;incstack = 0
  8823  012FEA  EC62  F098         	call	_veryLowBeep	;wreg free
  8824                           
  8825                           ;beeper.c: 141: _delay((unsigned long)((110)*(8000000/4000.0)));
  8826  012FEE  0E02               	movlw	2
  8827  012FF0  6E49               	movwf	(??_armBeep+1)& (0+255),c
  8828  012FF2  0E1E               	movlw	30
  8829  012FF4  6E48               	movwf	??_armBeep& (0+255),c
  8830  012FF6  0EB4               	movlw	180
  8831  012FF8                     u9207:
  8832  012FF8  2EE8               	decfsz	16360,f,c
  8833  012FFA  D7FE               	bra	u9207
  8834  012FFC  2E48               	decfsz	??_armBeep& (0+255),f,c
  8835  012FFE  D7FC               	bra	u9207
  8836  013000  2E49               	decfsz	(??_armBeep+1)& (0+255),f,c
  8837  013002  D7FA               	bra	u9207
  8838                           
  8839                           ;beeper.c: 142: veryLowBeep();
  8840  013004  EC62  F098         	call	_veryLowBeep	;wreg free
  8841  013008  0012               	return		;funcret
  8842  01300A                     __end_of_armBeep:
  8843                           	opt stack 0
  8844                           
  8845 ;; *************** function _veryLowBeep *****************
  8846 ;; Defined at:
  8847 ;;		line 128 in file "beeper.c"
  8848 ;; Parameters:    Size  Location     Type
  8849 ;;		None
  8850 ;; Auto vars:     Size  Location     Type
  8851 ;;		None
  8852 ;; Return value:  Size  Location     Type
  8853 ;;                  1    wreg      void 
  8854 ;; Registers used:
  8855 ;;		wreg, status,2
  8856 ;; Tracked objects:
  8857 ;;		On entry : 0/0
  8858 ;;		On exit  : 0/0
  8859 ;;		Unchanged: 0/0
  8860 ;; Data sizes:     COMRAM   BANK0   BANK1   BANK2   BANK3   BANK4   BANK5   BANK6   BANK7   BANK8   BANK9  BANK10  BANK1
      +1  BANK12  BANK13  BANK14  BANK15  BANK16  BANK17  BANK18  BANK19  BANK20  BANK21  BANK22  BANK23  BANK24  BANK25  BANK2
      +6  BANK27  BANK28  BANK29  BANK30  BANK31
  8861 ;;      Params:         0       0       0       0       0       0       0       0       0       0       0       0       
      +0       0       0       0       0       0       0       0       0       0       0       0       0       0       0       
      +0       0       0       0       0       0
  8862 ;;      Locals:         0       0       0       0       0       0       0       0       0       0       0       0       
      +0       0       0       0       0       0       0       0       0       0       0       0       0       0       0       
      +0       0       0       0       0       0
  8863 ;;      Temps:          0       0       0       0       0       0       0       0       0       0       0       0       
      +0       0       0       0       0       0       0       0       0       0       0       0       0       0       0       
      +0       0       0       0       0       0
  8864 ;;      Totals:         0       0       0       0       0       0       0       0       0       0       0       0       
      +0       0       0       0       0       0       0       0       0       0       0       0       0       0       0       
      +0       0       0       0       0       0
  8865 ;;Total ram usage:        0 bytes
  8866 ;; Hardware stack levels used:    1
  8867 ;; Hardware stack levels required when called:    5
  8868 ;; This function calls:
  8869 ;;		Nothing
  8870 ;; This function is called by:
  8871 ;;		_armBeep
  8872 ;;		_disarmBeep
  8873 ;; This function uses a non-reentrant model
  8874 ;;
  8875                           
  8876                           	psect	text40
  8877  0130C4                     __ptext40:
  8878                           	opt stack 0
  8879  0130C4                     _veryLowBeep:
  8880                           	opt stack 24
  8881                           
  8882                           ;beeper.c: 130: T2PR = 0xFF;
  8883                           
  8884                           ;incstack = 0
  8885  0130C4  013F               	movlb	63	; () banked
  8886  0130C6  69AB               	setf	171,b	;volatile
  8887                           
  8888                           ; BSR set to: 63
  8889                           ;beeper.c: 131: TMR1H = 0xCE;
  8890  0130C8  0ECE               	movlw	206
  8891  0130CA  6FB1               	movwf	177,b	;volatile
  8892                           
  8893                           ;beeper.c: 132: TMR1L = 0x57;
  8894  0130CC  0E57               	movlw	87
  8895  0130CE  6FB0               	movwf	176,b	;volatile
  8896                           
  8897                           ; BSR set to: 63
  8898                           ;beeper.c: 133: PWM5CONbits.EN = 1;
  8899  0130D0  8F6E               	bsf	110,7,b	;volatile
  8900                           
  8901                           ; BSR set to: 63
  8902                           ;beeper.c: 134: LATAbits.LATA0 = 1;
  8903  0130D2  81BA               	bsf	186,0,b	;volatile
  8904                           
  8905                           ; BSR set to: 63
  8906                           ;beeper.c: 135: T1CONbits.ON = 1;
  8907  0130D4  81B2               	bsf	178,0,b	;volatile
  8908                           
  8909                           ; BSR set to: 63
  8910  0130D6  0012               	return		;funcret
  8911  0130D8                     __end_of_veryLowBeep:
  8912                           	opt stack 0
  8913                           
  8914 ;; *************** function _LCD_printInitialCountdown *****************
  8915 ;; Defined at:
  8916 ;;		line 162 in file "lcd.c"
  8917 ;; Parameters:    Size  Location     Type
  8918 ;;		None
  8919 ;; Auto vars:     Size  Location     Type
  8920 ;;  i               2   18[COMRAM] int 
  8921 ;; Return value:  Size  Location     Type
  8922 ;;                  1    wreg      void 
  8923 ;; Registers used:
  8924 ;;		wreg, fsr2l, fsr2h, status,2, status,0, cstack
  8925 ;; Tracked objects:
  8926 ;;		On entry : 0/0
  8927 ;;		On exit  : 0/0
  8928 ;;		Unchanged: 0/0
  8929 ;; Data sizes:     COMRAM   BANK0   BANK1   BANK2   BANK3   BANK4   BANK5   BANK6   BANK7   BANK8   BANK9  BANK10  BANK1
      +1  BANK12  BANK13  BANK14  BANK15  BANK16  BANK17  BANK18  BANK19  BANK20  BANK21  BANK22  BANK23  BANK24  BANK25  BANK2
      +6  BANK27  BANK28  BANK29  BANK30  BANK31
  8930 ;;      Params:         0       0       0       0       0       0       0       0       0       0       0       0       
      +0       0       0       0       0       0       0       0       0       0       0       0       0       0       0       
      +0       0       0       0       0       0
  8931 ;;      Locals:         2       0       0       0       0       0       0       0       0       0       0       0       
      +0       0       0       0       0       0       0       0       0       0       0       0       0       0       0       
      +0       0       0       0       0       0
  8932 ;;      Temps:          0       0       0       0       0       0       0       0       0       0       0       0       
      +0       0       0       0       0       0       0       0       0       0       0       0       0       0       0       
      +0       0       0       0       0       0
  8933 ;;      Totals:         2       0       0       0       0       0       0       0       0       0       0       0       
      +0       0       0       0       0       0       0       0       0       0       0       0       0       0       0       
      +0       0       0       0       0       0
  8934 ;;Total ram usage:        2 bytes
  8935 ;; Hardware stack levels used:    1
  8936 ;; Hardware stack levels required when called:    7
  8937 ;; This function calls:
  8938 ;;		_LCD_Set_Cursor
  8939 ;;		_LCD_Write_Char
  8940 ;; This function is called by:
  8941 ;;		_main
  8942 ;; This function uses a non-reentrant model
  8943 ;;
  8944                           
  8945                           	psect	text41
  8946  012B50                     __ptext41:
  8947                           	opt stack 0
  8948  012B50                     _LCD_printInitialCountdown:
  8949                           	opt stack 23
  8950                           
  8951                           ;lcd.c: 164: for(int i=0;i<=7;i++)
  8952                           
  8953                           ; BSR set to: 63
  8954                           ;incstack = 0
  8955  012B50  0E00               	movlw	0
  8956  012B52  6E4F               	movwf	LCD_printInitialCountdown@i+1,c
  8957  012B54  0E00               	movlw	0
  8958  012B56  6E4E               	movwf	LCD_printInitialCountdown@i,c
  8959  012B58                     l6376:
  8960  012B58  BE4F               	btfsc	LCD_printInitialCountdown@i+1,7,c
  8961  012B5A  D006               	goto	l591
  8962  012B5C  504F               	movf	LCD_printInitialCountdown@i+1,w,c
  8963  012B5E  E11C               	bnz	l593
  8964  012B60  0E08               	movlw	8
  8965  012B62  5C4E               	subwf	LCD_printInitialCountdown@i,w,c
  8966  012B64  B0D8               	btfsc	16344,0,c
  8967  012B66  0012               	return	
  8968  012B68                     l591:
  8969                           
  8970                           ;lcd.c: 165: {;lcd.c: 166: LCD_Set_Cursor(1,9+i);
  8971  012B68  0E00               	movlw	0
  8972  012B6A  6E4A               	movwf	LCD_Set_Cursor@c+1,c
  8973  012B6C  0E01               	movlw	1
  8974  012B6E  6E49               	movwf	LCD_Set_Cursor@c,c
  8975  012B70  0E09               	movlw	9
  8976  012B72  244E               	addwf	LCD_printInitialCountdown@i,w,c
  8977  012B74  6E4B               	movwf	LCD_Set_Cursor@d,c
  8978  012B76  0E00               	movlw	0
  8979  012B78  204F               	addwfc	LCD_printInitialCountdown@i+1,w,c
  8980  012B7A  6E4C               	movwf	LCD_Set_Cursor@d+1,c
  8981  012B7C  EC3A  F097         	call	_LCD_Set_Cursor	;wreg free
  8982                           
  8983                           ;lcd.c: 167: LCD_Write_Char(strCountdownInitialTime[i]);
  8984  012B80  0E60               	movlw	low _strCountdownInitialTime
  8985  012B82  244E               	addwf	LCD_printInitialCountdown@i,w,c
  8986  012B84  6ED9               	movwf	16345,c
  8987  012B86  0E00               	movlw	high _strCountdownInitialTime
  8988  012B88  204F               	addwfc	LCD_printInitialCountdown@i+1,w,c
  8989  012B8A  6EDA               	movwf	16346,c
  8990  012B8C  50DF               	movf	16351,w,c
  8991  012B8E  ECB3  F097         	call	_LCD_Write_Char
  8992  012B92  4A4E               	infsnz	LCD_printInitialCountdown@i,f,c
  8993  012B94  2A4F               	incf	LCD_printInitialCountdown@i+1,f,c
  8994  012B96  D7E0               	goto	l6376
  8995  012B98                     l593:
  8996  012B98  0012               	return		;funcret
  8997  012B9A                     __end_of_LCD_printInitialCountdown:
  8998                           	opt stack 0
  8999                           
  9000 ;; *************** function _LCD_printDeclined *****************
  9001 ;; Defined at:
  9002 ;;		line 135 in file "lcd.c"
  9003 ;; Parameters:    Size  Location     Type
  9004 ;;		None
  9005 ;; Auto vars:     Size  Location     Type
  9006 ;;  i               2   21[COMRAM] int 
  9007 ;; Return value:  Size  Location     Type
  9008 ;;                  1    wreg      void 
  9009 ;; Registers used:
  9010 ;;		wreg, status,2, status,0, tblptrl, tblptrh, tblptru, cstack
  9011 ;; Tracked objects:
  9012 ;;		On entry : 0/0
  9013 ;;		On exit  : 0/0
  9014 ;;		Unchanged: 0/0
  9015 ;; Data sizes:     COMRAM   BANK0   BANK1   BANK2   BANK3   BANK4   BANK5   BANK6   BANK7   BANK8   BANK9  BANK10  BANK1
      +1  BANK12  BANK13  BANK14  BANK15  BANK16  BANK17  BANK18  BANK19  BANK20  BANK21  BANK22  BANK23  BANK24  BANK25  BANK2
      +6  BANK27  BANK28  BANK29  BANK30  BANK31
  9016 ;;      Params:         0       0       0       0       0       0       0       0       0       0       0       0       
      +0       0       0       0       0       0       0       0       0       0       0       0       0       0       0       
      +0       0       0       0       0       0
  9017 ;;      Locals:         2       0       0       0       0       0       0       0       0       0       0       0       
      +0       0       0       0       0       0       0       0       0       0       0       0       0       0       0       
      +0       0       0       0       0       0
  9018 ;;      Temps:          2       0       0       0       0       0       0       0       0       0       0       0       
      +0       0       0       0       0       0       0       0       0       0       0       0       0       0       0       
      +0       0       0       0       0       0
  9019 ;;      Totals:         4       0       0       0       0       0       0       0       0       0       0       0       
      +0       0       0       0       0       0       0       0       0       0       0       0       0       0       0       
      +0       0       0       0       0       0
  9020 ;;Total ram usage:        4 bytes
  9021 ;; Hardware stack levels used:    1
  9022 ;; Hardware stack levels required when called:    7
  9023 ;; This function calls:
  9024 ;;		_LCD_Cursor_Blink_Off
  9025 ;;		_LCD_Set_Cursor
  9026 ;;		_LCD_Write_String
  9027 ;;		_longLowBeep
  9028 ;; This function is called by:
  9029 ;;		_main
  9030 ;; This function uses a non-reentrant model
  9031 ;;
  9032                           
  9033                           	psect	text42
  9034  012688                     __ptext42:
  9035                           	opt stack 0
  9036  012688                     _LCD_printDeclined:
  9037                           	opt stack 23
  9038                           
  9039                           ;lcd.c: 137: LCD_Cursor_Blink_Off();
  9040                           
  9041                           ;incstack = 0
  9042  012688  ECAD  F098         	call	_LCD_Cursor_Blink_Off	;wreg free
  9043                           
  9044                           ;lcd.c: 138: LCD_Set_Cursor(2,1);
  9045  01268C  0E00               	movlw	0
  9046  01268E  6E4A               	movwf	LCD_Set_Cursor@c+1,c
  9047  012690  0E02               	movlw	2
  9048  012692  6E49               	movwf	LCD_Set_Cursor@c,c
  9049  012694  0E00               	movlw	0
  9050  012696  6E4C               	movwf	LCD_Set_Cursor@d+1,c
  9051  012698  0E01               	movlw	1
  9052  01269A  6E4B               	movwf	LCD_Set_Cursor@d,c
  9053  01269C  EC3A  F097         	call	_LCD_Set_Cursor	;wreg free
  9054                           
  9055                           ;lcd.c: 139: LCD_Write_String("                ");
  9056  0126A0  0E8C               	movlw	low STR_3
  9057  0126A2  6E49               	movwf	LCD_Write_String@f,c
  9058  0126A4  0EFF               	movlw	high STR_3
  9059  0126A6  6E4A               	movwf	LCD_Write_String@f+1,c
  9060  0126A8  EC31  F095         	call	_LCD_Write_String	;wreg free
  9061                           
  9062                           ;lcd.c: 141: for (int i=0;i<=5;i++)
  9063  0126AC  0E00               	movlw	0
  9064  0126AE  6E52               	movwf	LCD_printDeclined@i+1,c
  9065  0126B0  0E00               	movlw	0
  9066  0126B2  6E51               	movwf	LCD_printDeclined@i,c
  9067  0126B4                     l6352:
  9068  0126B4  BE52               	btfsc	LCD_printDeclined@i+1,7,c
  9069  0126B6  D006               	goto	l581
  9070  0126B8  5052               	movf	LCD_printDeclined@i+1,w,c
  9071  0126BA  E141               	bnz	l583
  9072  0126BC  0E06               	movlw	6
  9073  0126BE  5C51               	subwf	LCD_printDeclined@i,w,c
  9074  0126C0  B0D8               	btfsc	16344,0,c
  9075  0126C2  0012               	return	
  9076  0126C4                     l581:
  9077                           
  9078                           ;lcd.c: 142: {;lcd.c: 143: LCD_Set_Cursor(2,5);
  9079  0126C4  0E00               	movlw	0
  9080  0126C6  6E4A               	movwf	LCD_Set_Cursor@c+1,c
  9081  0126C8  0E02               	movlw	2
  9082  0126CA  6E49               	movwf	LCD_Set_Cursor@c,c
  9083  0126CC  0E00               	movlw	0
  9084  0126CE  6E4C               	movwf	LCD_Set_Cursor@d+1,c
  9085  0126D0  0E05               	movlw	5
  9086  0126D2  6E4B               	movwf	LCD_Set_Cursor@d,c
  9087  0126D4  EC3A  F097         	call	_LCD_Set_Cursor	;wreg free
  9088                           
  9089                           ;lcd.c: 144: LCD_Write_String("DECLINED");
  9090  0126D8  0EDE               	movlw	low STR_7
  9091  0126DA  6E49               	movwf	LCD_Write_String@f,c
  9092  0126DC  0EFF               	movlw	high STR_7
  9093  0126DE  6E4A               	movwf	LCD_Write_String@f+1,c
  9094  0126E0  EC31  F095         	call	_LCD_Write_String	;wreg free
  9095                           
  9096                           ;lcd.c: 145: longLowBeep();
  9097  0126E4  EC57  F098         	call	_longLowBeep	;wreg free
  9098                           
  9099                           ;lcd.c: 146: _delay((unsigned long)((150)*(8000000/4000.0)));
  9100  0126E8  0E02               	movlw	2
  9101  0126EA  6E50               	movwf	(??_LCD_printDeclined+1)& (0+255),c
  9102  0126EC  0E86               	movlw	134
  9103  0126EE  6E4F               	movwf	??_LCD_printDeclined& (0+255),c
  9104  0126F0  0E99               	movlw	153
  9105  0126F2                     u9217:
  9106  0126F2  2EE8               	decfsz	16360,f,c
  9107  0126F4  D7FE               	bra	u9217
  9108  0126F6  2E4F               	decfsz	??_LCD_printDeclined& (0+255),f,c
  9109  0126F8  D7FC               	bra	u9217
  9110  0126FA  2E50               	decfsz	(??_LCD_printDeclined+1)& (0+255),f,c
  9111  0126FC  D7FA               	bra	u9217
  9112  0126FE  F000               	nop	
  9113                           
  9114                           ;lcd.c: 147: LCD_Set_Cursor(2,5);
  9115  012700  0E00               	movlw	0
  9116  012702  6E4A               	movwf	LCD_Set_Cursor@c+1,c
  9117  012704  0E02               	movlw	2
  9118  012706  6E49               	movwf	LCD_Set_Cursor@c,c
  9119  012708  0E00               	movlw	0
  9120  01270A  6E4C               	movwf	LCD_Set_Cursor@d+1,c
  9121  01270C  0E05               	movlw	5
  9122  01270E  6E4B               	movwf	LCD_Set_Cursor@d,c
  9123  012710  EC3A  F097         	call	_LCD_Set_Cursor	;wreg free
  9124                           
  9125                           ;lcd.c: 148: LCD_Write_String("        ");
  9126  012714  0E94               	movlw	low (STR_3+8)
  9127  012716  6E49               	movwf	LCD_Write_String@f,c
  9128  012718  0EFF               	movlw	high (STR_3+8)
  9129  01271A  6E4A               	movwf	LCD_Write_String@f+1,c
  9130  01271C  EC31  F095         	call	_LCD_Write_String	;wreg free
  9131                           
  9132                           ;lcd.c: 149: _delay((unsigned long)((150)*(8000000/4000.0)));
  9133  012720  0E02               	movlw	2
  9134  012722  6E50               	movwf	(??_LCD_printDeclined+1)& (0+255),c
  9135  012724  0E86               	movlw	134
  9136  012726  6E4F               	movwf	??_LCD_printDeclined& (0+255),c
  9137  012728  0E99               	movlw	153
  9138  01272A                     u9227:
  9139  01272A  2EE8               	decfsz	16360,f,c
  9140  01272C  D7FE               	bra	u9227
  9141  01272E  2E4F               	decfsz	??_LCD_printDeclined& (0+255),f,c
  9142  012730  D7FC               	bra	u9227
  9143  012732  2E50               	decfsz	(??_LCD_printDeclined+1)& (0+255),f,c
  9144  012734  D7FA               	bra	u9227
  9145  012736  F000               	nop	
  9146  012738  4A51               	infsnz	LCD_printDeclined@i,f,c
  9147  01273A  2A52               	incf	LCD_printDeclined@i+1,f,c
  9148  01273C  D7BB               	goto	l6352
  9149  01273E                     l583:
  9150  01273E  0012               	return		;funcret
  9151  012740                     __end_of_LCD_printDeclined:
  9152                           	opt stack 0
  9153                           
  9154 ;; *************** function _LCD_printAccepted *****************
  9155 ;; Defined at:
  9156 ;;		line 117 in file "lcd.c"
  9157 ;; Parameters:    Size  Location     Type
  9158 ;;		None
  9159 ;; Auto vars:     Size  Location     Type
  9160 ;;  i               2   21[COMRAM] int 
  9161 ;; Return value:  Size  Location     Type
  9162 ;;                  1    wreg      void 
  9163 ;; Registers used:
  9164 ;;		wreg, status,2, status,0, tblptrl, tblptrh, tblptru, cstack
  9165 ;; Tracked objects:
  9166 ;;		On entry : 0/0
  9167 ;;		On exit  : 0/0
  9168 ;;		Unchanged: 0/0
  9169 ;; Data sizes:     COMRAM   BANK0   BANK1   BANK2   BANK3   BANK4   BANK5   BANK6   BANK7   BANK8   BANK9  BANK10  BANK1
      +1  BANK12  BANK13  BANK14  BANK15  BANK16  BANK17  BANK18  BANK19  BANK20  BANK21  BANK22  BANK23  BANK24  BANK25  BANK2
      +6  BANK27  BANK28  BANK29  BANK30  BANK31
  9170 ;;      Params:         0       0       0       0       0       0       0       0       0       0       0       0       
      +0       0       0       0       0       0       0       0       0       0       0       0       0       0       0       
      +0       0       0       0       0       0
  9171 ;;      Locals:         2       0       0       0       0       0       0       0       0       0       0       0       
      +0       0       0       0       0       0       0       0       0       0       0       0       0       0       0       
      +0       0       0       0       0       0
  9172 ;;      Temps:          2       0       0       0       0       0       0       0       0       0       0       0       
      +0       0       0       0       0       0       0       0       0       0       0       0       0       0       0       
      +0       0       0       0       0       0
  9173 ;;      Totals:         4       0       0       0       0       0       0       0       0       0       0       0       
      +0       0       0       0       0       0       0       0       0       0       0       0       0       0       0       
      +0       0       0       0       0       0
  9174 ;;Total ram usage:        4 bytes
  9175 ;; Hardware stack levels used:    1
  9176 ;; Hardware stack levels required when called:    7
  9177 ;; This function calls:
  9178 ;;		_LCD_Cursor_Blink_Off
  9179 ;;		_LCD_Set_Cursor
  9180 ;;		_LCD_Write_String
  9181 ;;		_longLowBeep
  9182 ;; This function is called by:
  9183 ;;		_main
  9184 ;; This function uses a non-reentrant model
  9185 ;;
  9186                           
  9187                           	psect	text43
  9188  012740                     __ptext43:
  9189                           	opt stack 0
  9190  012740                     _LCD_printAccepted:
  9191                           	opt stack 23
  9192                           
  9193                           ;lcd.c: 119: LCD_Cursor_Blink_Off();
  9194                           
  9195                           ;incstack = 0
  9196  012740  ECAD  F098         	call	_LCD_Cursor_Blink_Off	;wreg free
  9197                           
  9198                           ;lcd.c: 120: LCD_Set_Cursor(2,1);
  9199  012744  0E00               	movlw	0
  9200  012746  6E4A               	movwf	LCD_Set_Cursor@c+1,c
  9201  012748  0E02               	movlw	2
  9202  01274A  6E49               	movwf	LCD_Set_Cursor@c,c
  9203  01274C  0E00               	movlw	0
  9204  01274E  6E4C               	movwf	LCD_Set_Cursor@d+1,c
  9205  012750  0E01               	movlw	1
  9206  012752  6E4B               	movwf	LCD_Set_Cursor@d,c
  9207  012754  EC3A  F097         	call	_LCD_Set_Cursor	;wreg free
  9208                           
  9209                           ;lcd.c: 121: LCD_Write_String("                ");
  9210  012758  0E8C               	movlw	low STR_3
  9211  01275A  6E49               	movwf	LCD_Write_String@f,c
  9212  01275C  0EFF               	movlw	high STR_3
  9213  01275E  6E4A               	movwf	LCD_Write_String@f+1,c
  9214  012760  EC31  F095         	call	_LCD_Write_String	;wreg free
  9215                           
  9216                           ;lcd.c: 123: for (int i=0;i<=5;i++)
  9217  012764  0E00               	movlw	0
  9218  012766  6E52               	movwf	LCD_printAccepted@i+1,c
  9219  012768  0E00               	movlw	0
  9220  01276A  6E51               	movwf	LCD_printAccepted@i,c
  9221  01276C                     l6322:
  9222  01276C  BE52               	btfsc	LCD_printAccepted@i+1,7,c
  9223  01276E  D006               	goto	l576
  9224  012770  5052               	movf	LCD_printAccepted@i+1,w,c
  9225  012772  E141               	bnz	l578
  9226  012774  0E06               	movlw	6
  9227  012776  5C51               	subwf	LCD_printAccepted@i,w,c
  9228  012778  B0D8               	btfsc	16344,0,c
  9229  01277A  0012               	return	
  9230  01277C                     l576:
  9231                           
  9232                           ;lcd.c: 124: {;lcd.c: 125: LCD_Set_Cursor(2,5);
  9233  01277C  0E00               	movlw	0
  9234  01277E  6E4A               	movwf	LCD_Set_Cursor@c+1,c
  9235  012780  0E02               	movlw	2
  9236  012782  6E49               	movwf	LCD_Set_Cursor@c,c
  9237  012784  0E00               	movlw	0
  9238  012786  6E4C               	movwf	LCD_Set_Cursor@d+1,c
  9239  012788  0E05               	movlw	5
  9240  01278A  6E4B               	movwf	LCD_Set_Cursor@d,c
  9241  01278C  EC3A  F097         	call	_LCD_Set_Cursor	;wreg free
  9242                           
  9243                           ;lcd.c: 126: LCD_Write_String("ACCEPTED");
  9244  012790  0EE7               	movlw	low STR_4
  9245  012792  6E49               	movwf	LCD_Write_String@f,c
  9246  012794  0EFF               	movlw	high STR_4
  9247  012796  6E4A               	movwf	LCD_Write_String@f+1,c
  9248  012798  EC31  F095         	call	_LCD_Write_String	;wreg free
  9249                           
  9250                           ;lcd.c: 127: longLowBeep();
  9251  01279C  EC57  F098         	call	_longLowBeep	;wreg free
  9252                           
  9253                           ;lcd.c: 128: _delay((unsigned long)((150)*(8000000/4000.0)));
  9254  0127A0  0E02               	movlw	2
  9255  0127A2  6E50               	movwf	(??_LCD_printAccepted+1)& (0+255),c
  9256  0127A4  0E86               	movlw	134
  9257  0127A6  6E4F               	movwf	??_LCD_printAccepted& (0+255),c
  9258  0127A8  0E99               	movlw	153
  9259  0127AA                     u9237:
  9260  0127AA  2EE8               	decfsz	16360,f,c
  9261  0127AC  D7FE               	bra	u9237
  9262  0127AE  2E4F               	decfsz	??_LCD_printAccepted& (0+255),f,c
  9263  0127B0  D7FC               	bra	u9237
  9264  0127B2  2E50               	decfsz	(??_LCD_printAccepted+1)& (0+255),f,c
  9265  0127B4  D7FA               	bra	u9237
  9266  0127B6  F000               	nop	
  9267                           
  9268                           ;lcd.c: 129: LCD_Set_Cursor(2,5);
  9269  0127B8  0E00               	movlw	0
  9270  0127BA  6E4A               	movwf	LCD_Set_Cursor@c+1,c
  9271  0127BC  0E02               	movlw	2
  9272  0127BE  6E49               	movwf	LCD_Set_Cursor@c,c
  9273  0127C0  0E00               	movlw	0
  9274  0127C2  6E4C               	movwf	LCD_Set_Cursor@d+1,c
  9275  0127C4  0E05               	movlw	5
  9276  0127C6  6E4B               	movwf	LCD_Set_Cursor@d,c
  9277  0127C8  EC3A  F097         	call	_LCD_Set_Cursor	;wreg free
  9278                           
  9279                           ;lcd.c: 130: LCD_Write_String("        ");
  9280  0127CC  0E94               	movlw	low (STR_3+8)
  9281  0127CE  6E49               	movwf	LCD_Write_String@f,c
  9282  0127D0  0EFF               	movlw	high (STR_3+8)
  9283  0127D2  6E4A               	movwf	LCD_Write_String@f+1,c
  9284  0127D4  EC31  F095         	call	_LCD_Write_String	;wreg free
  9285                           
  9286                           ;lcd.c: 131: _delay((unsigned long)((150)*(8000000/4000.0)));
  9287  0127D8  0E02               	movlw	2
  9288  0127DA  6E50               	movwf	(??_LCD_printAccepted+1)& (0+255),c
  9289  0127DC  0E86               	movlw	134
  9290  0127DE  6E4F               	movwf	??_LCD_printAccepted& (0+255),c
  9291  0127E0  0E99               	movlw	153
  9292  0127E2                     u9247:
  9293  0127E2  2EE8               	decfsz	16360,f,c
  9294  0127E4  D7FE               	bra	u9247
  9295  0127E6  2E4F               	decfsz	??_LCD_printAccepted& (0+255),f,c
  9296  0127E8  D7FC               	bra	u9247
  9297  0127EA  2E50               	decfsz	(??_LCD_printAccepted+1)& (0+255),f,c
  9298  0127EC  D7FA               	bra	u9247
  9299  0127EE  F000               	nop	
  9300  0127F0  4A51               	infsnz	LCD_printAccepted@i,f,c
  9301  0127F2  2A52               	incf	LCD_printAccepted@i+1,f,c
  9302  0127F4  D7BB               	goto	l6322
  9303  0127F6                     l578:
  9304  0127F6  0012               	return		;funcret
  9305  0127F8                     __end_of_LCD_printAccepted:
  9306                           	opt stack 0
  9307                           
  9308 ;; *************** function _longLowBeep *****************
  9309 ;; Defined at:
  9310 ;;		line 154 in file "beeper.c"
  9311 ;; Parameters:    Size  Location     Type
  9312 ;;		None
  9313 ;; Auto vars:     Size  Location     Type
  9314 ;;		None
  9315 ;; Return value:  Size  Location     Type
  9316 ;;                  1    wreg      void 
  9317 ;; Registers used:
  9318 ;;		wreg, status,2
  9319 ;; Tracked objects:
  9320 ;;		On entry : 0/0
  9321 ;;		On exit  : 0/0
  9322 ;;		Unchanged: 0/0
  9323 ;; Data sizes:     COMRAM   BANK0   BANK1   BANK2   BANK3   BANK4   BANK5   BANK6   BANK7   BANK8   BANK9  BANK10  BANK1
      +1  BANK12  BANK13  BANK14  BANK15  BANK16  BANK17  BANK18  BANK19  BANK20  BANK21  BANK22  BANK23  BANK24  BANK25  BANK2
      +6  BANK27  BANK28  BANK29  BANK30  BANK31
  9324 ;;      Params:         0       0       0       0       0       0       0       0       0       0       0       0       
      +0       0       0       0       0       0       0       0       0       0       0       0       0       0       0       
      +0       0       0       0       0       0
  9325 ;;      Locals:         0       0       0       0       0       0       0       0       0       0       0       0       
      +0       0       0       0       0       0       0       0       0       0       0       0       0       0       0       
      +0       0       0       0       0       0
  9326 ;;      Temps:          0       0       0       0       0       0       0       0       0       0       0       0       
      +0       0       0       0       0       0       0       0       0       0       0       0       0       0       0       
      +0       0       0       0       0       0
  9327 ;;      Totals:         0       0       0       0       0       0       0       0       0       0       0       0       
      +0       0       0       0       0       0       0       0       0       0       0       0       0       0       0       
      +0       0       0       0       0       0
  9328 ;;Total ram usage:        0 bytes
  9329 ;; Hardware stack levels used:    1
  9330 ;; Hardware stack levels required when called:    5
  9331 ;; This function calls:
  9332 ;;		Nothing
  9333 ;; This function is called by:
  9334 ;;		_LCD_printAccepted
  9335 ;;		_LCD_printDeclined
  9336 ;; This function uses a non-reentrant model
  9337 ;;
  9338                           
  9339                           	psect	text44
  9340  0130AE                     __ptext44:
  9341                           	opt stack 0
  9342  0130AE                     _longLowBeep:
  9343                           	opt stack 24
  9344                           
  9345                           ;beeper.c: 156: T2PR = 0xF2;
  9346                           
  9347                           ;incstack = 0
  9348  0130AE  0EF2               	movlw	242
  9349  0130B0  013F               	movlb	63	; () banked
  9350  0130B2  6FAB               	movwf	171,b	;volatile
  9351                           
  9352                           ;beeper.c: 157: TMR1H = 0x54;
  9353  0130B4  0E54               	movlw	84
  9354  0130B6  6FB1               	movwf	177,b	;volatile
  9355                           
  9356                           ;beeper.c: 158: TMR1L = 0x1F;
  9357  0130B8  0E1F               	movlw	31
  9358  0130BA  6FB0               	movwf	176,b	;volatile
  9359                           
  9360                           ; BSR set to: 63
  9361                           ;beeper.c: 159: PWM5CONbits.EN = 1;
  9362  0130BC  8F6E               	bsf	110,7,b	;volatile
  9363                           
  9364                           ; BSR set to: 63
  9365                           ;beeper.c: 160: LATAbits.LATA0 = 1;
  9366  0130BE  81BA               	bsf	186,0,b	;volatile
  9367                           
  9368                           ; BSR set to: 63
  9369                           ;beeper.c: 161: T1CONbits.ON = 1;
  9370  0130C0  81B2               	bsf	178,0,b	;volatile
  9371                           
  9372                           ; BSR set to: 63
  9373  0130C2  0012               	return		;funcret
  9374  0130C4                     __end_of_longLowBeep:
  9375                           	opt stack 0
  9376                           
  9377 ;; *************** function _LCD_Write_String *****************
  9378 ;; Defined at:
  9379 ;;		line 89 in file "lcd.c"
  9380 ;; Parameters:    Size  Location     Type
  9381 ;;  f               2   13[COMRAM] PTR unsigned char 
  9382 ;;		 -> STR_35(17), STR_34(17), STR_33(17), STR_32(17), 
  9383 ;;		 -> STR_31(17), STR_30(17), STR_29(17), STR_28(17), 
  9384 ;;		 -> STR_27(17), STR_26(17), STR_25(17), STR_24(17), 
  9385 ;;		 -> STR_23(17), STR_22(17), STR_21(17), STR_20(17), 
  9386 ;;		 -> STR_19(17), STR_18(17), STR_17(17), STR_16(13), 
  9387 ;;		 -> STR_15(17), STR_14(17), STR_13(7), STR_12(9), 
  9388 ;;		 -> STR_11(7), STR_10(9), STR_9(17), STR_8(9), 
  9389 ;;		 -> STR_7(9), STR_6(17), STR_5(9), STR_4(9), 
  9390 ;;		 -> STR_3(17), STR_2(17), STR_1(7), 
  9391 ;; Auto vars:     Size  Location     Type
  9392 ;;  i               2   17[COMRAM] int 
  9393 ;; Return value:  Size  Location     Type
  9394 ;;                  1    wreg      void 
  9395 ;; Registers used:
  9396 ;;		wreg, status,2, status,0, tblptrl, tblptrh, tblptru, cstack
  9397 ;; Tracked objects:
  9398 ;;		On entry : 0/0
  9399 ;;		On exit  : 0/0
  9400 ;;		Unchanged: 0/0
  9401 ;; Data sizes:     COMRAM   BANK0   BANK1   BANK2   BANK3   BANK4   BANK5   BANK6   BANK7   BANK8   BANK9  BANK10  BANK1
      +1  BANK12  BANK13  BANK14  BANK15  BANK16  BANK17  BANK18  BANK19  BANK20  BANK21  BANK22  BANK23  BANK24  BANK25  BANK2
      +6  BANK27  BANK28  BANK29  BANK30  BANK31
  9402 ;;      Params:         2       0       0       0       0       0       0       0       0       0       0       0       
      +0       0       0       0       0       0       0       0       0       0       0       0       0       0       0       
      +0       0       0       0       0       0
  9403 ;;      Locals:         2       0       0       0       0       0       0       0       0       0       0       0       
      +0       0       0       0       0       0       0       0       0       0       0       0       0       0       0       
      +0       0       0       0       0       0
  9404 ;;      Temps:          2       0       0       0       0       0       0       0       0       0       0       0       
      +0       0       0       0       0       0       0       0       0       0       0       0       0       0       0       
      +0       0       0       0       0       0
  9405 ;;      Totals:         6       0       0       0       0       0       0       0       0       0       0       0       
      +0       0       0       0       0       0       0       0       0       0       0       0       0       0       0       
      +0       0       0       0       0       0
  9406 ;;Total ram usage:        6 bytes
  9407 ;; Hardware stack levels used:    1
  9408 ;; Hardware stack levels required when called:    6
  9409 ;; This function calls:
  9410 ;;		_LCD_Write_Char
  9411 ;; This function is called by:
  9412 ;;		_LCD_printAccepted
  9413 ;;		_LCD_printDeclined
  9414 ;;		_LCD_resetPasswordEntry
  9415 ;;		_stanbyPageReset
  9416 ;;		_armedPageReset
  9417 ;;		_disarmedPageReset
  9418 ;;		_main
  9419 ;; This function uses a non-reentrant model
  9420 ;;
  9421                           
  9422                           	psect	text45
  9423  012A62                     __ptext45:
  9424                           	opt stack 0
  9425  012A62                     _LCD_Write_String:
  9426                           	opt stack 22
  9427                           
  9428                           ;lcd.c: 91: int i;;lcd.c: 92: for(i=0;f[i]!='\0';i++)
  9429                           
  9430                           ; BSR set to: 63
  9431                           ;incstack = 0
  9432  012A62  0E00               	movlw	0
  9433  012A64  6E4E               	movwf	LCD_Write_String@i+1,c
  9434  012A66  0E00               	movlw	0
  9435  012A68  6E4D               	movwf	LCD_Write_String@i,c
  9436  012A6A  D012               	goto	l558
  9437  012A6C                     
  9438                           ;lcd.c: 93: LCD_Write_Char(f[i]);
  9439  012A6C  504D               	movf	LCD_Write_String@i,w,c
  9440  012A6E  2449               	addwf	LCD_Write_String@f,w,c
  9441  012A70  6E4B               	movwf	??_LCD_Write_String& (0+255),c
  9442  012A72  504E               	movf	LCD_Write_String@i+1,w,c
  9443  012A74  204A               	addwfc	LCD_Write_String@f+1,w,c
  9444  012A76  6E4C               	movwf	(??_LCD_Write_String+1)& (0+255),c
  9445  012A78  0060  F12F  FFF6   	movff	??_LCD_Write_String,16374
  9446  012A7E  0060  F133  FFF7   	movff	??_LCD_Write_String+1,16375
  9447  012A84                     	if	0	;tblptru may be non-zero
  9448  012A84                     	endif
  9449  012A84                     	if	0	;tblptru may be non-zero
  9450  012A84                     	endif
  9451  012A84  0008               	tblrd		*
  9452  012A86  50F5               	movf	16373,w,c
  9453  012A88  ECB3  F097         	call	_LCD_Write_Char
  9454  012A8C  4A4D               	infsnz	LCD_Write_String@i,f,c
  9455  012A8E  2A4E               	incf	LCD_Write_String@i+1,f,c
  9456  012A90                     l558:
  9457  012A90  504D               	movf	LCD_Write_String@i,w,c
  9458  012A92  2449               	addwf	LCD_Write_String@f,w,c
  9459  012A94  6E4B               	movwf	??_LCD_Write_String& (0+255),c
  9460  012A96  504E               	movf	LCD_Write_String@i+1,w,c
  9461  012A98  204A               	addwfc	LCD_Write_String@f+1,w,c
  9462  012A9A  6E4C               	movwf	(??_LCD_Write_String+1)& (0+255),c
  9463  012A9C  0060  F12F  FFF6   	movff	??_LCD_Write_String,16374
  9464  012AA2  0060  F133  FFF7   	movff	??_LCD_Write_String+1,16375
  9465  012AA8                     	if	0	;tblptru may be non-zero
  9466  012AA8                     	endif
  9467  012AA8                     	if	0	;tblptru may be non-zero
  9468  012AA8                     	endif
  9469  012AA8  0008               	tblrd		*
  9470  012AAA  50F5               	movf	16373,w,c
  9471  012AAC  0900               	iorlw	0
  9472  012AAE  B4D8               	btfsc	16344,2,c
  9473  012AB0  0012               	return	
  9474  012AB2  D7DC               	goto	l559
  9475  012AB4                     __end_of_LCD_Write_String:
  9476                           	opt stack 0
  9477                           
  9478 ;; *************** function _LCD_Write_Char *****************
  9479 ;; Defined at:
  9480 ;;		line 77 in file "lcd.c"
  9481 ;; Parameters:    Size  Location     Type
  9482 ;;  e               1    wreg     unsigned char 
  9483 ;; Auto vars:     Size  Location     Type
  9484 ;;  e               1   12[COMRAM] unsigned char 
  9485 ;; Return value:  Size  Location     Type
  9486 ;;                  1    wreg      void 
  9487 ;; Registers used:
  9488 ;;		wreg, status,2, status,0, cstack
  9489 ;; Tracked objects:
  9490 ;;		On entry : 0/0
  9491 ;;		On exit  : 0/0
  9492 ;;		Unchanged: 0/0
  9493 ;; Data sizes:     COMRAM   BANK0   BANK1   BANK2   BANK3   BANK4   BANK5   BANK6   BANK7   BANK8   BANK9  BANK10  BANK1
      +1  BANK12  BANK13  BANK14  BANK15  BANK16  BANK17  BANK18  BANK19  BANK20  BANK21  BANK22  BANK23  BANK24  BANK25  BANK2
      +6  BANK27  BANK28  BANK29  BANK30  BANK31
  9494 ;;      Params:         0       0       0       0       0       0       0       0       0       0       0       0       
      +0       0       0       0       0       0       0       0       0       0       0       0       0       0       0       
      +0       0       0       0       0       0
  9495 ;;      Locals:         1       0       0       0       0       0       0       0       0       0       0       0       
      +0       0       0       0       0       0       0       0       0       0       0       0       0       0       0       
      +0       0       0       0       0       0
  9496 ;;      Temps:          0       0       0       0       0       0       0       0       0       0       0       0       
      +0       0       0       0       0       0       0       0       0       0       0       0       0       0       0       
      +0       0       0       0       0       0
  9497 ;;      Totals:         1       0       0       0       0       0       0       0       0       0       0       0       
      +0       0       0       0       0       0       0       0       0       0       0       0       0       0       0       
      +0       0       0       0       0       0
  9498 ;;Total ram usage:        1 bytes
  9499 ;; Hardware stack levels used:    1
  9500 ;; Hardware stack levels required when called:    5
  9501 ;; This function calls:
  9502 ;;		Nothing
  9503 ;; This function is called by:
  9504 ;;		_LCD_Write_String
  9505 ;;		_LCD_printNowCountdown
  9506 ;;		_LCD_printInitialCountdown
  9507 ;;		_main
  9508 ;; This function uses a non-reentrant model
  9509 ;;
  9510                           
  9511                           	psect	text46
  9512  012F66                     __ptext46:
  9513                           	opt stack 0
  9514  012F66                     _LCD_Write_Char:
  9515                           	opt stack 22
  9516                           
  9517                           ;incstack = 0
  9518                           ;LCD_Write_Char@e stored from wreg
  9519  012F66  6E48               	movwf	LCD_Write_Char@e,c
  9520                           
  9521                           ;lcd.c: 79: LATCbits.LATC6 = 1;
  9522  012F68  013F               	movlb	63	; () banked
  9523  012F6A  8DBC               	bsf	188,6,b	;volatile
  9524                           
  9525                           ; BSR set to: 63
  9526                           ;lcd.c: 80: LATD = 0;
  9527  012F6C  0E00               	movlw	0
  9528  012F6E  6FBD               	movwf	189,b	;volatile
  9529                           
  9530                           ; BSR set to: 63
  9531                           ;lcd.c: 81: LATD |= e;
  9532  012F70  5048               	movf	LCD_Write_Char@e,w,c
  9533  012F72  13BD               	iorwf	189,f,b	;volatile
  9534                           
  9535                           ; BSR set to: 63
  9536                           ;lcd.c: 82: LATCbits.LATC7 = 1;
  9537  012F74  8FBC               	bsf	188,7,b	;volatile
  9538                           
  9539                           ; BSR set to: 63
  9540                           ;lcd.c: 83: _delay((unsigned long)((40)*(8000000/4000000.0)));
  9541  012F76  0E1A               	movlw	26
  9542  012F78                     u9257:
  9543  012F78  2EE8               	decfsz	16360,f,c
  9544  012F7A  D7FE               	bra	u9257
  9545  012F7C  D000               	nop2	
  9546                           
  9547                           ;lcd.c: 84: LATCbits.LATC7 = 0;
  9548  012F7E  013F               	movlb	63	; () banked
  9549  012F80  9FBC               	bcf	188,7,b	;volatile
  9550                           
  9551                           ; BSR set to: 63
  9552                           ;lcd.c: 85: LATD = 0;
  9553  012F82  0E00               	movlw	0
  9554  012F84  6FBD               	movwf	189,b	;volatile
  9555                           
  9556                           ; BSR set to: 63
  9557  012F86  0012               	return		;funcret
  9558  012F88                     __end_of_LCD_Write_Char:
  9559                           	opt stack 0
  9560                           
  9561 ;; *************** function _LCD_Set_Cursor *****************
  9562 ;; Defined at:
  9563 ;;		line 62 in file "lcd.c"
  9564 ;; Parameters:    Size  Location     Type
  9565 ;;  c               2   13[COMRAM] int 
  9566 ;;  d               2   15[COMRAM] int 
  9567 ;; Auto vars:     Size  Location     Type
  9568 ;;  temp            1   17[COMRAM] unsigned char 
  9569 ;; Return value:  Size  Location     Type
  9570 ;;                  1    wreg      void 
  9571 ;; Registers used:
  9572 ;;		wreg, status,2, status,0, cstack
  9573 ;; Tracked objects:
  9574 ;;		On entry : 0/0
  9575 ;;		On exit  : 0/0
  9576 ;;		Unchanged: 0/0
  9577 ;; Data sizes:     COMRAM   BANK0   BANK1   BANK2   BANK3   BANK4   BANK5   BANK6   BANK7   BANK8   BANK9  BANK10  BANK1
      +1  BANK12  BANK13  BANK14  BANK15  BANK16  BANK17  BANK18  BANK19  BANK20  BANK21  BANK22  BANK23  BANK24  BANK25  BANK2
      +6  BANK27  BANK28  BANK29  BANK30  BANK31
  9578 ;;      Params:         4       0       0       0       0       0       0       0       0       0       0       0       
      +0       0       0       0       0       0       0       0       0       0       0       0       0       0       0       
      +0       0       0       0       0       0
  9579 ;;      Locals:         1       0       0       0       0       0       0       0       0       0       0       0       
      +0       0       0       0       0       0       0       0       0       0       0       0       0       0       0       
      +0       0       0       0       0       0
  9580 ;;      Temps:          0       0       0       0       0       0       0       0       0       0       0       0       
      +0       0       0       0       0       0       0       0       0       0       0       0       0       0       0       
      +0       0       0       0       0       0
  9581 ;;      Totals:         5       0       0       0       0       0       0       0       0       0       0       0       
      +0       0       0       0       0       0       0       0       0       0       0       0       0       0       0       
      +0       0       0       0       0       0
  9582 ;;Total ram usage:        5 bytes
  9583 ;; Hardware stack levels used:    1
  9584 ;; Hardware stack levels required when called:    6
  9585 ;; This function calls:
  9586 ;;		_LCD_Cmd
  9587 ;; This function is called by:
  9588 ;;		_LCD_printAccepted
  9589 ;;		_LCD_printDeclined
  9590 ;;		_LCD_printNowCountdown
  9591 ;;		_LCD_printInitialCountdown
  9592 ;;		_LCD_resetPasswordEntry
  9593 ;;		_stanbyPageReset
  9594 ;;		_armedPageReset
  9595 ;;		_disarmedPageReset
  9596 ;;		_main
  9597 ;; This function uses a non-reentrant model
  9598 ;;
  9599                           
  9600                           	psect	text47
  9601  012E74                     __ptext47:
  9602                           	opt stack 0
  9603  012E74                     _LCD_Set_Cursor:
  9604                           	opt stack 22
  9605                           
  9606                           ;lcd.c: 64: char temp;;lcd.c: 65: if(c == 1)
  9607                           
  9608                           ; BSR set to: 63
  9609                           ;incstack = 0
  9610  012E74  0449               	decf	LCD_Set_Cursor@c,w,c
  9611  012E76  104A               	iorwf	LCD_Set_Cursor@c+1,w,c
  9612  012E78  A4D8               	btfss	16344,2,c
  9613  012E7A  D007               	goto	l549
  9614                           
  9615                           ;lcd.c: 66: {;lcd.c: 67: temp = 0x80 + d - 1;
  9616  012E7C  504B               	movf	LCD_Set_Cursor@d,w,c
  9617  012E7E  0F7F               	addlw	127
  9618  012E80  6E4D               	movwf	LCD_Set_Cursor@temp,c
  9619                           
  9620                           ;lcd.c: 68: LCD_Cmd(temp);
  9621  012E82  504D               	movf	LCD_Set_Cursor@temp,w,c
  9622  012E84  EC22  F098         	call	_LCD_Cmd
  9623                           
  9624                           ;lcd.c: 69: }
  9625  012E88  0012               	return	
  9626  012E8A                     l549:
  9627                           
  9628                           ;lcd.c: 70: else if(c == 2)
  9629  012E8A  0E02               	movlw	2
  9630  012E8C  1849               	xorwf	LCD_Set_Cursor@c,w,c
  9631  012E8E  104A               	iorwf	LCD_Set_Cursor@c+1,w,c
  9632  012E90  A4D8               	btfss	16344,2,c
  9633  012E92  0012               	return	
  9634                           
  9635                           ;lcd.c: 71: {;lcd.c: 72: temp = 0xC0 + d - 1;
  9636  012E94  504B               	movf	LCD_Set_Cursor@d,w,c
  9637  012E96  0FBF               	addlw	191
  9638  012E98  6E4D               	movwf	LCD_Set_Cursor@temp,c
  9639                           
  9640                           ;lcd.c: 73: LCD_Cmd(temp);
  9641  012E9A  504D               	movf	LCD_Set_Cursor@temp,w,c
  9642  012E9C  EC22  F098         	call	_LCD_Cmd
  9643  012EA0  0012               	return	
  9644  012EA2                     __end_of_LCD_Set_Cursor:
  9645                           	opt stack 0
  9646                           
  9647 ;; *************** function _LCD_Cursor_Blink_Off *****************
  9648 ;; Defined at:
  9649 ;;		line 101 in file "lcd.c"
  9650 ;; Parameters:    Size  Location     Type
  9651 ;;		None
  9652 ;; Auto vars:     Size  Location     Type
  9653 ;;		None
  9654 ;; Return value:  Size  Location     Type
  9655 ;;                  1    wreg      void 
  9656 ;; Registers used:
  9657 ;;		wreg, status,2, cstack
  9658 ;; Tracked objects:
  9659 ;;		On entry : 0/0
  9660 ;;		On exit  : 0/0
  9661 ;;		Unchanged: 0/0
  9662 ;; Data sizes:     COMRAM   BANK0   BANK1   BANK2   BANK3   BANK4   BANK5   BANK6   BANK7   BANK8   BANK9  BANK10  BANK1
      +1  BANK12  BANK13  BANK14  BANK15  BANK16  BANK17  BANK18  BANK19  BANK20  BANK21  BANK22  BANK23  BANK24  BANK25  BANK2
      +6  BANK27  BANK28  BANK29  BANK30  BANK31
  9663 ;;      Params:         0       0       0       0       0       0       0       0       0       0       0       0       
      +0       0       0       0       0       0       0       0       0       0       0       0       0       0       0       
      +0       0       0       0       0       0
  9664 ;;      Locals:         0       0       0       0       0       0       0       0       0       0       0       0       
      +0       0       0       0       0       0       0       0       0       0       0       0       0       0       0       
      +0       0       0       0       0       0
  9665 ;;      Temps:          0       0       0       0       0       0       0       0       0       0       0       0       
      +0       0       0       0       0       0       0       0       0       0       0       0       0       0       0       
      +0       0       0       0       0       0
  9666 ;;      Totals:         0       0       0       0       0       0       0       0       0       0       0       0       
      +0       0       0       0       0       0       0       0       0       0       0       0       0       0       0       
      +0       0       0       0       0       0
  9667 ;;Total ram usage:        0 bytes
  9668 ;; Hardware stack levels used:    1
  9669 ;; Hardware stack levels required when called:    6
  9670 ;; This function calls:
  9671 ;;		_LCD_Cmd
  9672 ;; This function is called by:
  9673 ;;		_LCD_printAccepted
  9674 ;;		_LCD_printDeclined
  9675 ;;		_verifyInterfaceOptions
  9676 ;;		_main
  9677 ;; This function uses a non-reentrant model
  9678 ;;
  9679                           
  9680                           	psect	text48
  9681  01315A                     __ptext48:
  9682                           	opt stack 0
  9683  01315A                     _LCD_Cursor_Blink_Off:
  9684                           	opt stack 23
  9685                           
  9686                           ;lcd.c: 103: LCD_Cmd(0x0C);
  9687                           
  9688                           ;incstack = 0
  9689  01315A  0E0C               	movlw	12
  9690  01315C  EC22  F098         	call	_LCD_Cmd
  9691  013160  0012               	return		;funcret
  9692  013162                     __end_of_LCD_Cursor_Blink_Off:
  9693                           	opt stack 0
  9694                           
  9695 ;; *************** function _LCD_Cursor_Right *****************
  9696 ;; Defined at:
  9697 ;;		line 106 in file "lcd.c"
  9698 ;; Parameters:    Size  Location     Type
  9699 ;;		None
  9700 ;; Auto vars:     Size  Location     Type
  9701 ;;		None
  9702 ;; Return value:  Size  Location     Type
  9703 ;;                  1    wreg      void 
  9704 ;; Registers used:
  9705 ;;		wreg, status,2, cstack
  9706 ;; Tracked objects:
  9707 ;;		On entry : 0/0
  9708 ;;		On exit  : 0/0
  9709 ;;		Unchanged: 0/0
  9710 ;; Data sizes:     COMRAM   BANK0   BANK1   BANK2   BANK3   BANK4   BANK5   BANK6   BANK7   BANK8   BANK9  BANK10  BANK1
      +1  BANK12  BANK13  BANK14  BANK15  BANK16  BANK17  BANK18  BANK19  BANK20  BANK21  BANK22  BANK23  BANK24  BANK25  BANK2
      +6  BANK27  BANK28  BANK29  BANK30  BANK31
  9711 ;;      Params:         0       0       0       0       0       0       0       0       0       0       0       0       
      +0       0       0       0       0       0       0       0       0       0       0       0       0       0       0       
      +0       0       0       0       0       0
  9712 ;;      Locals:         0       0       0       0       0       0       0       0       0       0       0       0       
      +0       0       0       0       0       0       0       0       0       0       0       0       0       0       0       
      +0       0       0       0       0       0
  9713 ;;      Temps:          0       0       0       0       0       0       0       0       0       0       0       0       
      +0       0       0       0       0       0       0       0       0       0       0       0       0       0       0       
      +0       0       0       0       0       0
  9714 ;;      Totals:         0       0       0       0       0       0       0       0       0       0       0       0       
      +0       0       0       0       0       0       0       0       0       0       0       0       0       0       0       
      +0       0       0       0       0       0
  9715 ;;Total ram usage:        0 bytes
  9716 ;; Hardware stack levels used:    1
  9717 ;; Hardware stack levels required when called:    6
  9718 ;; This function calls:
  9719 ;;		_LCD_Cmd
  9720 ;; This function is called by:
  9721 ;;		_main
  9722 ;; This function uses a non-reentrant model
  9723 ;;
  9724                           
  9725                           	psect	text49
  9726  013162                     __ptext49:
  9727                           	opt stack 0
  9728  013162                     _LCD_Cursor_Right:
  9729                           	opt stack 24
  9730                           
  9731                           ;lcd.c: 108: LCD_Cmd(0x14);
  9732                           
  9733                           ;incstack = 0
  9734  013162  0E14               	movlw	20
  9735  013164  EC22  F098         	call	_LCD_Cmd
  9736  013168  0012               	return		;funcret
  9737  01316A                     __end_of_LCD_Cursor_Right:
  9738                           	opt stack 0
  9739                           
  9740 ;; *************** function _LCD_Cursor_Left *****************
  9741 ;; Defined at:
  9742 ;;		line 111 in file "lcd.c"
  9743 ;; Parameters:    Size  Location     Type
  9744 ;;		None
  9745 ;; Auto vars:     Size  Location     Type
  9746 ;;		None
  9747 ;; Return value:  Size  Location     Type
  9748 ;;                  1    wreg      void 
  9749 ;; Registers used:
  9750 ;;		wreg, status,2, cstack
  9751 ;; Tracked objects:
  9752 ;;		On entry : 0/0
  9753 ;;		On exit  : 0/0
  9754 ;;		Unchanged: 0/0
  9755 ;; Data sizes:     COMRAM   BANK0   BANK1   BANK2   BANK3   BANK4   BANK5   BANK6   BANK7   BANK8   BANK9  BANK10  BANK1
      +1  BANK12  BANK13  BANK14  BANK15  BANK16  BANK17  BANK18  BANK19  BANK20  BANK21  BANK22  BANK23  BANK24  BANK25  BANK2
      +6  BANK27  BANK28  BANK29  BANK30  BANK31
  9756 ;;      Params:         0       0       0       0       0       0       0       0       0       0       0       0       
      +0       0       0       0       0       0       0       0       0       0       0       0       0       0       0       
      +0       0       0       0       0       0
  9757 ;;      Locals:         0       0       0       0       0       0       0       0       0       0       0       0       
      +0       0       0       0       0       0       0       0       0       0       0       0       0       0       0       
      +0       0       0       0       0       0
  9758 ;;      Temps:          0       0       0       0       0       0       0       0       0       0       0       0       
      +0       0       0       0       0       0       0       0       0       0       0       0       0       0       0       
      +0       0       0       0       0       0
  9759 ;;      Totals:         0       0       0       0       0       0       0       0       0       0       0       0       
      +0       0       0       0       0       0       0       0       0       0       0       0       0       0       0       
      +0       0       0       0       0       0
  9760 ;;Total ram usage:        0 bytes
  9761 ;; Hardware stack levels used:    1
  9762 ;; Hardware stack levels required when called:    6
  9763 ;; This function calls:
  9764 ;;		_LCD_Cmd
  9765 ;; This function is called by:
  9766 ;;		_main
  9767 ;; This function uses a non-reentrant model
  9768 ;;
  9769                           
  9770                           	psect	text50
  9771  01316A                     __ptext50:
  9772                           	opt stack 0
  9773  01316A                     _LCD_Cursor_Left:
  9774                           	opt stack 24
  9775                           
  9776                           ;lcd.c: 113: LCD_Cmd(0x10);
  9777                           
  9778                           ;incstack = 0
  9779  01316A  0E10               	movlw	16
  9780  01316C  EC22  F098         	call	_LCD_Cmd
  9781  013170  0012               	return		;funcret
  9782  013172                     __end_of_LCD_Cursor_Left:
  9783                           	opt stack 0
  9784                           
  9785 ;; *************** function _LCD_Cmd *****************
  9786 ;; Defined at:
  9787 ;;		line 43 in file "lcd.c"
  9788 ;; Parameters:    Size  Location     Type
  9789 ;;  b               1    wreg     unsigned char 
  9790 ;; Auto vars:     Size  Location     Type
  9791 ;;  b               1   12[COMRAM] unsigned char 
  9792 ;; Return value:  Size  Location     Type
  9793 ;;                  1    wreg      void 
  9794 ;; Registers used:
  9795 ;;		wreg, status,2, cstack
  9796 ;; Tracked objects:
  9797 ;;		On entry : 0/0
  9798 ;;		On exit  : 0/0
  9799 ;;		Unchanged: 0/0
  9800 ;; Data sizes:     COMRAM   BANK0   BANK1   BANK2   BANK3   BANK4   BANK5   BANK6   BANK7   BANK8   BANK9  BANK10  BANK1
      +1  BANK12  BANK13  BANK14  BANK15  BANK16  BANK17  BANK18  BANK19  BANK20  BANK21  BANK22  BANK23  BANK24  BANK25  BANK2
      +6  BANK27  BANK28  BANK29  BANK30  BANK31
  9801 ;;      Params:         0       0       0       0       0       0       0       0       0       0       0       0       
      +0       0       0       0       0       0       0       0       0       0       0       0       0       0       0       
      +0       0       0       0       0       0
  9802 ;;      Locals:         1       0       0       0       0       0       0       0       0       0       0       0       
      +0       0       0       0       0       0       0       0       0       0       0       0       0       0       0       
      +0       0       0       0       0       0
  9803 ;;      Temps:          0       0       0       0       0       0       0       0       0       0       0       0       
      +0       0       0       0       0       0       0       0       0       0       0       0       0       0       0       
      +0       0       0       0       0       0
  9804 ;;      Totals:         1       0       0       0       0       0       0       0       0       0       0       0       
      +0       0       0       0       0       0       0       0       0       0       0       0       0       0       0       
      +0       0       0       0       0       0
  9805 ;;Total ram usage:        1 bytes
  9806 ;; Hardware stack levels used:    1
  9807 ;; Hardware stack levels required when called:    5
  9808 ;; This function calls:
  9809 ;;		Nothing
  9810 ;; This function is called by:
  9811 ;;		_LCD_Initialize
  9812 ;;		_LCD_Set_Cursor
  9813 ;;		_LCD_Cursor_Blink_On
  9814 ;;		_LCD_Cursor_Blink_Off
  9815 ;;		_LCD_Cursor_Right
  9816 ;;		_LCD_Cursor_Left
  9817 ;; This function uses a non-reentrant model
  9818 ;;
  9819                           
  9820                           	psect	text51
  9821  013044                     __ptext51:
  9822                           	opt stack 0
  9823  013044                     _LCD_Cmd:
  9824                           	opt stack 23
  9825                           
  9826                           ;incstack = 0
  9827                           ;LCD_Cmd@b stored from wreg
  9828  013044  6E48               	movwf	LCD_Cmd@b,c
  9829                           
  9830                           ;lcd.c: 45: LATCbits.LATC6 = 0;
  9831  013046  013F               	movlb	63	; () banked
  9832  013048  9DBC               	bcf	188,6,b	;volatile
  9833                           
  9834                           ; BSR set to: 63
  9835                           ;lcd.c: 46: LATD = b;
  9836  01304A  0060  F123  FFBD   	movff	LCD_Cmd@b,16317	;volatile
  9837                           
  9838                           ; BSR set to: 63
  9839                           ;lcd.c: 47: LATCbits.LATC7 = 1;
  9840  013050  8FBC               	bsf	188,7,b	;volatile
  9841                           
  9842                           ; BSR set to: 63
  9843                           ;lcd.c: 48: _delay((unsigned long)((50)*(8000000/4000000.0)));
  9844  013052  0E21               	movlw	33
  9845  013054                     u9267:
  9846  013054  2EE8               	decfsz	16360,f,c
  9847  013056  D7FE               	bra	u9267
  9848  013058  F000               	nop	
  9849                           
  9850                           ;lcd.c: 49: LATCbits.LATC7 = 0;
  9851  01305A  013F               	movlb	63	; () banked
  9852  01305C  9FBC               	bcf	188,7,b	;volatile
  9853                           
  9854                           ; BSR set to: 63
  9855  01305E  0012               	return		;funcret
  9856  013060                     __end_of_LCD_Cmd:
  9857                           	opt stack 0
  9858                           
  9859 ;; *************** function _ISR *****************
  9860 ;; Defined at:
  9861 ;;		line 45 in file "beeper.c"
  9862 ;; Parameters:    Size  Location     Type
  9863 ;;		None
  9864 ;; Auto vars:     Size  Location     Type
  9865 ;;		None
  9866 ;; Return value:  Size  Location     Type
  9867 ;;                  1    wreg      void 
  9868 ;; Registers used:
  9869 ;;		wreg, fsr2l, fsr2h, status,2, status,0, tblptrl, tblptrh, tblptru, cstack
  9870 ;; Tracked objects:
  9871 ;;		On entry : 0/0
  9872 ;;		On exit  : 0/0
  9873 ;;		Unchanged: 0/0
  9874 ;; Data sizes:     COMRAM   BANK0   BANK1   BANK2   BANK3   BANK4   BANK5   BANK6   BANK7   BANK8   BANK9  BANK10  BANK1
      +1  BANK12  BANK13  BANK14  BANK15  BANK16  BANK17  BANK18  BANK19  BANK20  BANK21  BANK22  BANK23  BANK24  BANK25  BANK2
      +6  BANK27  BANK28  BANK29  BANK30  BANK31
  9875 ;;      Params:         0       0       0       0       0       0       0       0       0       0       0       0       
      +0       0       0       0       0       0       0       0       0       0       0       0       0       0       0       
      +0       0       0       0       0       0
  9876 ;;      Locals:         0       0       0       0       0       0       0       0       0       0       0       0       
      +0       0       0       0       0       0       0       0       0       0       0       0       0       0       0       
      +0       0       0       0       0       0
  9877 ;;      Temps:          4       0       0       0       0       0       0       0       0       0       0       0       
      +0       0       0       0       0       0       0       0       0       0       0       0       0       0       0       
      +0       0       0       0       0       0
  9878 ;;      Totals:         4       0       0       0       0       0       0       0       0       0       0       0       
      +0       0       0       0       0       0       0       0       0       0       0       0       0       0       0       
      +0       0       0       0       0       0
  9879 ;;Total ram usage:        4 bytes
  9880 ;; Hardware stack levels used:    1
  9881 ;; Hardware stack levels required when called:    4
  9882 ;; This function calls:
  9883 ;;		_countdown_drop_timer
  9884 ;;		i2_LCD_Set_Cursor
  9885 ;;		i2_LCD_Write_String
  9886 ;; This function is called by:
  9887 ;;		Interrupt level 2
  9888 ;; This function uses a non-reentrant model
  9889 ;;
  9890                           
  9891                           	psect	text52
  9892  0125C2                     __ptext52:
  9893                           	opt stack 0
  9894  0125C2                     _ISR:
  9895                           	opt stack 22
  9896                           
  9897                           ; BSR set to: 63
  9898                           ;incstack = 0
  9899  0125C2  006F FFD8  F044    	movff	16374,??_ISR
  9900  0125C8  006F FFDC  F045    	movff	16375,??_ISR+1
  9901  0125CE  006F FFE0  F046    	movff	16376,??_ISR+2
  9902  0125D4  006F FFD4  F047    	movff	16373,??_ISR+3
  9903                           
  9904                           ;beeper.c: 48: if (PIR4bits.TMR1IF == 1)
  9905  0125DA  0139               	movlb	57	; () banked
  9906  0125DC  A1A4               	btfss	164,0,b	;volatile
  9907  0125DE  D009               	goto	i2l112
  9908                           
  9909                           ; BSR set to: 57
  9910                           ;beeper.c: 49: {;beeper.c: 50: PWM5CONbits.EN = 0;
  9911  0125E0  013F               	movlb	63	; () banked
  9912  0125E2  9F6E               	bcf	110,7,b	;volatile
  9913                           
  9914                           ;beeper.c: 51: LATAbits.LATA0 = 0;
  9915  0125E4  91BA               	bcf	186,0,b	;volatile
  9916                           
  9917                           ;beeper.c: 52: T1CONbits.ON = 0;
  9918  0125E6  91B2               	bcf	178,0,b	;volatile
  9919                           
  9920                           ;beeper.c: 53: PIR4bits.TMR1IF = 0;
  9921  0125E8  0139               	movlb	57	; () banked
  9922  0125EA  91A4               	bcf	164,0,b	;volatile
  9923                           
  9924                           ; BSR set to: 57
  9925                           ;beeper.c: 54: T2PR = 0x72;
  9926  0125EC  0E72               	movlw	114
  9927  0125EE  013F               	movlb	63	; () banked
  9928  0125F0  6FAB               	movwf	171,b	;volatile
  9929  0125F2                     i2l112:
  9930                           
  9931                           ;beeper.c: 55: };beeper.c: 58: if (PIR3bits.TMR0IF == 1)
  9932                           
  9933                           ; BSR set to: 63
  9934  0125F2  0139               	movlb	57	; () banked
  9935  0125F4  AFA3               	btfss	163,7,b	;volatile
  9936  0125F6  D03B               	goto	i2l116
  9937                           
  9938                           ; BSR set to: 57
  9939                           ;beeper.c: 59: {;beeper.c: 60: PIR3bits.TMR0IF = 0;
  9940  0125F8  9FA3               	bcf	163,7,b	;volatile
  9941                           
  9942                           ;beeper.c: 61: T0CON0bits.EN = 0;
  9943  0125FA  013F               	movlb	63	; () banked
  9944  0125FC  9FB8               	bcf	184,7,b	;volatile
  9945                           
  9946                           ; BSR set to: 63
  9947                           ;beeper.c: 63: countdown_drop_timer();
  9948  0125FE  EC56  F092         	call	_countdown_drop_timer	;wreg free
  9949                           
  9950                           ;beeper.c: 65: if (status == armed)
  9951  012602  5021               	movf	_armed,w,c
  9952  012604  1832               	xorwf	_status,w,c
  9953  012606  E10B               	bnz	i2l4840
  9954  012608  5022               	movf	_armed+1,w,c
  9955  01260A  1833               	xorwf	_status+1,w,c
  9956  01260C  A4D8               	btfss	16344,2,c
  9957  01260E  D007               	goto	i2l114
  9958                           
  9959                           ;beeper.c: 66: {;beeper.c: 67: TMR0H = 0x63;
  9960  012610  0E63               	movlw	99
  9961  012612  013F               	movlb	63	; () banked
  9962  012614  6FB7               	movwf	183,b	;volatile
  9963                           
  9964                           ;beeper.c: 68: TMR0L = 0xBF;
  9965  012616  0EBF               	movlw	191
  9966  012618  6FB6               	movwf	182,b	;volatile
  9967                           
  9968                           ; BSR set to: 63
  9969                           ;beeper.c: 69: T0CON0bits.EN = 1;
  9970  01261A  8FB8               	bsf	184,7,b	;volatile
  9971                           
  9972                           ;beeper.c: 70: }
  9973  01261C  D028               	goto	i2l116
  9974  01261E                     i2l114:
  9975  01261E                     i2l4840:
  9976                           
  9977                           ;beeper.c: 72: else if (status == exploded)
  9978  01261E  0100               	movlb	0	; () banked
  9979  012620  5170               	movf	_exploded& (0+255),w,b
  9980  012622  1832               	xorwf	_status,w,c
  9981  012624  E124               	bnz	i2l117
  9982  012626  5171               	movf	(_exploded+1)& (0+255),w,b
  9983  012628  1833               	xorwf	_status+1,w,c
  9984  01262A  A4D8               	btfss	16344,2,c
  9985  01262C  D020               	goto	i2l116
  9986                           
  9987                           ; BSR set to: 0
  9988                           ;beeper.c: 73: {;beeper.c: 74: LCD_Set_Cursor(1,1);
  9989  01262E  0E00               	movlw	0
  9990  012630  6E3E               	movwf	i2LCD_Set_Cursor@c+1,c
  9991  012632  0E01               	movlw	1
  9992  012634  6E3D               	movwf	i2LCD_Set_Cursor@c,c
  9993  012636  0E00               	movlw	0
  9994  012638  6E40               	movwf	i2LCD_Set_Cursor@d+1,c
  9995  01263A  0E01               	movlw	1
  9996  01263C  6E3F               	movwf	i2LCD_Set_Cursor@d,c
  9997  01263E  EC51  F097         	call	i2_LCD_Set_Cursor	;wreg free
  9998                           
  9999                           ;beeper.c: 75: LCD_Write_String("DONE  ");
 10000  012642  0EF7               	movlw	low STR_1
 10001  012644  6E3D               	movwf	i2LCD_Write_String@f,c
 10002  012646  0EFF               	movlw	high STR_1
 10003  012648  6E3E               	movwf	i2LCD_Write_String@f+1,c
 10004  01264A  EC5A  F095         	call	i2_LCD_Write_String	;wreg free
 10005                           
 10006                           ;beeper.c: 76: LCD_Set_Cursor(2,1);
 10007  01264E  0E00               	movlw	0
 10008  012650  6E3E               	movwf	i2LCD_Set_Cursor@c+1,c
 10009  012652  0E02               	movlw	2
 10010  012654  6E3D               	movwf	i2LCD_Set_Cursor@c,c
 10011  012656  0E00               	movlw	0
 10012  012658  6E40               	movwf	i2LCD_Set_Cursor@d+1,c
 10013  01265A  0E01               	movlw	1
 10014  01265C  6E3F               	movwf	i2LCD_Set_Cursor@d,c
 10015  01265E  EC51  F097         	call	i2_LCD_Set_Cursor	;wreg free
 10016                           
 10017                           ;beeper.c: 77: LCD_Write_String("    EXPLODED    ");
 10018  012662  0EAE               	movlw	low STR_2
 10019  012664  6E3D               	movwf	i2LCD_Write_String@f,c
 10020  012666  0EFF               	movlw	high STR_2
 10021  012668  6E3E               	movwf	i2LCD_Write_String@f+1,c
 10022  01266A  EC5A  F095         	call	i2_LCD_Write_String	;wreg free
 10023  01266E                     i2l116:
 10024  01266E                     i2l117:
 10025  01266E  0060  F11F  FFF5   	movff	??_ISR+3,16373
 10026  012674  0060  F11B  FFF8   	movff	??_ISR+2,16376
 10027  01267A  0060  F117  FFF7   	movff	??_ISR+1,16375
 10028  012680  0060  F113  FFF6   	movff	??_ISR,16374
 10029  012686  0011               	retfie		f
 10030  012688                     __end_of_ISR:
 10031                           	opt stack 0
 10032                           
 10033 ;; *************** function i2_LCD_Write_String *****************
 10034 ;; Defined at:
 10035 ;;		line 89 in file "lcd.c"
 10036 ;; Parameters:    Size  Location     Type
 10037 ;;  f               2    1[COMRAM] PTR unsigned char 
 10038 ;;		 -> STR_35(17), STR_34(17), STR_33(17), STR_32(17), 
 10039 ;;		 -> STR_31(17), STR_30(17), STR_29(17), STR_28(17), 
 10040 ;;		 -> STR_27(17), STR_26(17), STR_25(17), STR_24(17), 
 10041 ;;		 -> STR_23(17), STR_22(17), STR_21(17), STR_20(17), 
 10042 ;;		 -> STR_19(17), STR_18(17), STR_17(17), STR_16(13), 
 10043 ;;		 -> STR_15(17), STR_14(17), STR_13(7), STR_12(9), 
 10044 ;;		 -> STR_11(7), STR_10(9), STR_9(17), STR_8(9), 
 10045 ;;		 -> STR_7(9), STR_6(17), STR_5(9), STR_4(9), 
 10046 ;;		 -> STR_3(17), STR_2(17), STR_1(7), 
 10047 ;; Auto vars:     Size  Location     Type
 10048 ;;  LCD_Write_St    2    5[COMRAM] int 
 10049 ;; Return value:  Size  Location     Type
 10050 ;;                  1    wreg      void 
 10051 ;; Registers used:
 10052 ;;		wreg, status,2, status,0, tblptrl, tblptrh, tblptru, cstack
 10053 ;; Tracked objects:
 10054 ;;		On entry : 0/0
 10055 ;;		On exit  : 0/0
 10056 ;;		Unchanged: 0/0
 10057 ;; Data sizes:     COMRAM   BANK0   BANK1   BANK2   BANK3   BANK4   BANK5   BANK6   BANK7   BANK8   BANK9  BANK10  BANK1
      +1  BANK12  BANK13  BANK14  BANK15  BANK16  BANK17  BANK18  BANK19  BANK20  BANK21  BANK22  BANK23  BANK24  BANK25  BANK2
      +6  BANK27  BANK28  BANK29  BANK30  BANK31
 10058 ;;      Params:         2       0       0       0       0       0       0       0       0       0       0       0       
      +0       0       0       0       0       0       0       0       0       0       0       0       0       0       0       
      +0       0       0       0       0       0
 10059 ;;      Locals:         2       0       0       0       0       0       0       0       0       0       0       0       
      +0       0       0       0       0       0       0       0       0       0       0       0       0       0       0       
      +0       0       0       0       0       0
 10060 ;;      Temps:          2       0       0       0       0       0       0       0       0       0       0       0       
      +0       0       0       0       0       0       0       0       0       0       0       0       0       0       0       
      +0       0       0       0       0       0
 10061 ;;      Totals:         6       0       0       0       0       0       0       0       0       0       0       0       
      +0       0       0       0       0       0       0       0       0       0       0       0       0       0       0       
      +0       0       0       0       0       0
 10062 ;;Total ram usage:        6 bytes
 10063 ;; Hardware stack levels used:    1
 10064 ;; Hardware stack levels required when called:    1
 10065 ;; This function calls:
 10066 ;;		i2_LCD_Write_Char
 10067 ;; This function is called by:
 10068 ;;		_ISR
 10069 ;; This function uses a non-reentrant model
 10070 ;;
 10071                           
 10072                           	psect	text53
 10073  012AB4                     __ptext53:
 10074                           	opt stack 0
 10075  012AB4                     i2_LCD_Write_String:
 10076                           	opt stack 24
 10077                           
 10078                           ;lcd.c: 91: int i;;lcd.c: 92: for(i=0;f[i]!='\0';i++)
 10079                           
 10080                           ;incstack = 0
 10081  012AB4  0E00               	movlw	0
 10082  012AB6  6E42               	movwf	i2LCD_Write_String@i+1,c
 10083  012AB8  0E00               	movlw	0
 10084  012ABA  6E41               	movwf	i2LCD_Write_String@i,c
 10085  012ABC  D012               	goto	i2l558
 10086  012ABE                     
 10087                           ;lcd.c: 93: LCD_Write_Char(f[i]);
 10088  012ABE  5041               	movf	i2LCD_Write_String@i,w,c
 10089  012AC0  243D               	addwf	i2LCD_Write_String@f,w,c
 10090  012AC2  6E3F               	movwf	??i2_LCD_Write_String& (0+255),c
 10091  012AC4  5042               	movf	i2LCD_Write_String@i+1,w,c
 10092  012AC6  203E               	addwfc	i2LCD_Write_String@f+1,w,c
 10093  012AC8  6E40               	movwf	(??i2_LCD_Write_String+1)& (0+255),c
 10094  012ACA  0060  F0FF  FFF6   	movff	??i2_LCD_Write_String,16374
 10095  012AD0  0060  F103  FFF7   	movff	??i2_LCD_Write_String+1,16375
 10096  012AD6                     	if	0	;tblptru may be non-zero
 10097  012AD6                     	endif
 10098  012AD6                     	if	0	;tblptru may be non-zero
 10099  012AD6                     	endif
 10100  012AD6  0008               	tblrd		*
 10101  012AD8  50F5               	movf	16373,w,c
 10102  012ADA  ECC4  F097         	call	i2_LCD_Write_Char
 10103  012ADE  4A41               	infsnz	i2LCD_Write_String@i,f,c
 10104  012AE0  2A42               	incf	i2LCD_Write_String@i+1,f,c
 10105  012AE2                     i2l558:
 10106  012AE2  5041               	movf	i2LCD_Write_String@i,w,c
 10107  012AE4  243D               	addwf	i2LCD_Write_String@f,w,c
 10108  012AE6  6E3F               	movwf	??i2_LCD_Write_String& (0+255),c
 10109  012AE8  5042               	movf	i2LCD_Write_String@i+1,w,c
 10110  012AEA  203E               	addwfc	i2LCD_Write_String@f+1,w,c
 10111  012AEC  6E40               	movwf	(??i2_LCD_Write_String+1)& (0+255),c
 10112  012AEE  0060  F0FF  FFF6   	movff	??i2_LCD_Write_String,16374
 10113  012AF4  0060  F103  FFF7   	movff	??i2_LCD_Write_String+1,16375
 10114  012AFA                     	if	0	;tblptru may be non-zero
 10115  012AFA                     	endif
 10116  012AFA                     	if	0	;tblptru may be non-zero
 10117  012AFA                     	endif
 10118  012AFA  0008               	tblrd		*
 10119  012AFC  50F5               	movf	16373,w,c
 10120  012AFE  0900               	iorlw	0
 10121  012B00  B4D8               	btfsc	16344,2,c
 10122  012B02  0012               	return	
 10123  012B04  D7DC               	goto	i2l559
 10124  012B06                     __end_ofi2_LCD_Write_String:
 10125                           	opt stack 0
 10126                           
 10127 ;; *************** function _countdown_drop_timer *****************
 10128 ;; Defined at:
 10129 ;;		line 143 in file "countdown.c"
 10130 ;; Parameters:    Size  Location     Type
 10131 ;;		None
 10132 ;; Auto vars:     Size  Location     Type
 10133 ;;		None
 10134 ;; Return value:  Size  Location     Type
 10135 ;;                  1    wreg      void 
 10136 ;; Registers used:
 10137 ;;		wreg, fsr2l, fsr2h, status,2, status,0, cstack
 10138 ;; Tracked objects:
 10139 ;;		On entry : 0/0
 10140 ;;		On exit  : 0/0
 10141 ;;		Unchanged: 0/0
 10142 ;; Data sizes:     COMRAM   BANK0   BANK1   BANK2   BANK3   BANK4   BANK5   BANK6   BANK7   BANK8   BANK9  BANK10  BANK1
      +1  BANK12  BANK13  BANK14  BANK15  BANK16  BANK17  BANK18  BANK19  BANK20  BANK21  BANK22  BANK23  BANK24  BANK25  BANK2
      +6  BANK27  BANK28  BANK29  BANK30  BANK31
 10143 ;;      Params:         0       0       0       0       0       0       0       0       0       0       0       0       
      +0       0       0       0       0       0       0       0       0       0       0       0       0       0       0       
      +0       0       0       0       0       0
 10144 ;;      Locals:         0       0       0       0       0       0       0       0       0       0       0       0       
      +0       0       0       0       0       0       0       0       0       0       0       0       0       0       0       
      +0       0       0       0       0       0
 10145 ;;      Temps:          0       0       0       0       0       0       0       0       0       0       0       0       
      +0       0       0       0       0       0       0       0       0       0       0       0       0       0       0       
      +0       0       0       0       0       0
 10146 ;;      Totals:         0       0       0       0       0       0       0       0       0       0       0       0       
      +0       0       0       0       0       0       0       0       0       0       0       0       0       0       0       
      +0       0       0       0       0       0
 10147 ;;Total ram usage:        0 bytes
 10148 ;; Hardware stack levels used:    1
 10149 ;; Hardware stack levels required when called:    3
 10150 ;; This function calls:
 10151 ;;		_countdown_now_num2str
 10152 ;;		_endBeep
 10153 ;;		i2_LCD_printNowCountdown
 10154 ;;		i2_countdownStop
 10155 ;;		i2_normalBeep
 10156 ;; This function is called by:
 10157 ;;		_ISR
 10158 ;; This function uses a non-reentrant model
 10159 ;;
 10160                           
 10161                           	psect	text54
 10162  0124AC                     __ptext54:
 10163                           	opt stack 0
 10164  0124AC                     _countdown_drop_timer:
 10165                           	opt stack 22
 10166                           
 10167                           ;countdown.c: 145: if(numCountdownNowTime[5]!=0){numCountdownNowTime[5]--;}
 10168                           
 10169                           ;incstack = 0
 10170  0124AC  500B               	movf	_numCountdownNowTime+10,w,c	;volatile
 10171  0124AE  100C               	iorwf	_numCountdownNowTime+11,w,c	;volatile
 10172  0124B0  B4D8               	btfsc	16344,2,c
 10173  0124B2  D004               	goto	i2l333
 10174  0124B4  060B               	decf	_numCountdownNowTime+10,f,c	;volatile
 10175  0124B6  A0D8               	btfss	16344,0,c
 10176  0124B8  060C               	decf	_numCountdownNowTime+11,f,c	;volatile
 10177  0124BA  D07E               	goto	i2l346
 10178  0124BC                     i2l333:
 10179                           
 10180                           ;countdown.c: 146: else;countdown.c: 147: {;countdown.c: 148: if (numCountdownNowTime[4]
      +                          !=0)
 10181  0124BC  5009               	movf	_numCountdownNowTime+8,w,c	;volatile
 10182  0124BE  100A               	iorwf	_numCountdownNowTime+9,w,c	;volatile
 10183  0124C0  B4D8               	btfsc	16344,2,c
 10184  0124C2  D008               	goto	i2l335
 10185                           
 10186                           ;countdown.c: 149: {;countdown.c: 151: numCountdownNowTime[5]=9;
 10187  0124C4  0E00               	movlw	0
 10188  0124C6  6E0C               	movwf	_numCountdownNowTime+11,c	;volatile
 10189  0124C8  0E09               	movlw	9
 10190  0124CA  6E0B               	movwf	_numCountdownNowTime+10,c	;volatile
 10191                           
 10192                           ;countdown.c: 152: numCountdownNowTime[4]--;
 10193  0124CC  0609               	decf	_numCountdownNowTime+8,f,c	;volatile
 10194  0124CE  A0D8               	btfss	16344,0,c
 10195  0124D0  060A               	decf	_numCountdownNowTime+9,f,c	;volatile
 10196                           
 10197                           ;countdown.c: 153: }
 10198  0124D2  D072               	goto	i2l346
 10199  0124D4                     i2l335:
 10200                           
 10201                           ;countdown.c: 154: else;countdown.c: 155: {;countdown.c: 157: if (numCountdownNowTime[3]
      +                          !=0)
 10202  0124D4  5007               	movf	_numCountdownNowTime+6,w,c	;volatile
 10203  0124D6  1008               	iorwf	_numCountdownNowTime+7,w,c	;volatile
 10204  0124D8  B4D8               	btfsc	16344,2,c
 10205  0124DA  D014               	goto	i2l337
 10206                           
 10207                           ;countdown.c: 158: {;countdown.c: 160: if (countdownBeeps == ON){normalBeep();}
 10208  0124DC  501B               	movf	_ON,w,c
 10209  0124DE  181F               	xorwf	_countdownBeeps,w,c
 10210  0124E0  E105               	bnz	i2l4408
 10211  0124E2  501C               	movf	_ON+1,w,c
 10212  0124E4  1820               	xorwf	_countdownBeeps+1,w,c
 10213  0124E6  B4D8               	btfsc	16344,2,c
 10214  0124E8  EC7E  F098         	call	i2_normalBeep	;wreg free
 10215  0124EC                     i2l4408:
 10216                           
 10217                           ;countdown.c: 161: numCountdownNowTime[3]--;
 10218  0124EC  0607               	decf	_numCountdownNowTime+6,f,c	;volatile
 10219  0124EE  A0D8               	btfss	16344,0,c
 10220  0124F0  0608               	decf	_numCountdownNowTime+7,f,c	;volatile
 10221                           
 10222                           ;countdown.c: 162: numCountdownNowTime[5]=9;
 10223  0124F2  0E00               	movlw	0
 10224  0124F4  6E0C               	movwf	_numCountdownNowTime+11,c	;volatile
 10225  0124F6  0E09               	movlw	9
 10226  0124F8  6E0B               	movwf	_numCountdownNowTime+10,c	;volatile
 10227                           
 10228                           ;countdown.c: 163: numCountdownNowTime[4]=9;
 10229  0124FA  0E00               	movlw	0
 10230  0124FC  6E0A               	movwf	_numCountdownNowTime+9,c	;volatile
 10231  0124FE  0E09               	movlw	9
 10232  012500  6E09               	movwf	_numCountdownNowTime+8,c	;volatile
 10233                           
 10234                           ;countdown.c: 164: }
 10235  012502  D05A               	goto	i2l346
 10236  012504                     i2l337:
 10237                           
 10238                           ;countdown.c: 165: else;countdown.c: 166: {;countdown.c: 167: if (countdownBeeps == ON){
      +                          normalBeep();}
 10239  012504  501B               	movf	_ON,w,c
 10240  012506  181F               	xorwf	_countdownBeeps,w,c
 10241  012508  E105               	bnz	i2l4418
 10242  01250A  501C               	movf	_ON+1,w,c
 10243  01250C  1820               	xorwf	_countdownBeeps+1,w,c
 10244  01250E  B4D8               	btfsc	16344,2,c
 10245  012510  EC7E  F098         	call	i2_normalBeep	;wreg free
 10246  012514                     i2l4418:
 10247                           
 10248                           ;countdown.c: 168: if (numCountdownNowTime[2]!=0)
 10249  012514  5005               	movf	_numCountdownNowTime+4,w,c	;volatile
 10250  012516  1006               	iorwf	_numCountdownNowTime+5,w,c	;volatile
 10251  012518  B4D8               	btfsc	16344,2,c
 10252  01251A  D010               	goto	i2l341
 10253                           
 10254                           ;countdown.c: 169: {;countdown.c: 171: numCountdownNowTime[2]--;
 10255  01251C  0605               	decf	_numCountdownNowTime+4,f,c	;volatile
 10256  01251E  A0D8               	btfss	16344,0,c
 10257  012520  0606               	decf	_numCountdownNowTime+5,f,c	;volatile
 10258                           
 10259                           ;countdown.c: 172: numCountdownNowTime[5]=9;
 10260  012522  0E00               	movlw	0
 10261  012524  6E0C               	movwf	_numCountdownNowTime+11,c	;volatile
 10262  012526  0E09               	movlw	9
 10263  012528  6E0B               	movwf	_numCountdownNowTime+10,c	;volatile
 10264                           
 10265                           ;countdown.c: 173: numCountdownNowTime[4]=9;
 10266  01252A  0E00               	movlw	0
 10267  01252C  6E0A               	movwf	_numCountdownNowTime+9,c	;volatile
 10268  01252E  0E09               	movlw	9
 10269  012530  6E09               	movwf	_numCountdownNowTime+8,c	;volatile
 10270                           
 10271                           ;countdown.c: 174: numCountdownNowTime[3]=9;
 10272  012532  0E00               	movlw	0
 10273  012534  6E08               	movwf	_numCountdownNowTime+7,c	;volatile
 10274  012536  0E09               	movlw	9
 10275  012538  6E07               	movwf	_numCountdownNowTime+6,c	;volatile
 10276                           
 10277                           ;countdown.c: 175: }
 10278  01253A  D03E               	goto	i2l346
 10279  01253C                     i2l341:
 10280                           
 10281                           ;countdown.c: 176: else;countdown.c: 177: {;countdown.c: 179: if (numCountdownNowTime[1]
      +                          !=0)
 10282  01253C  5003               	movf	_numCountdownNowTime+2,w,c	;volatile
 10283  01253E  1004               	iorwf	_numCountdownNowTime+3,w,c	;volatile
 10284  012540  B4D8               	btfsc	16344,2,c
 10285  012542  D014               	goto	i2l343
 10286                           
 10287                           ;countdown.c: 180: {;countdown.c: 182: numCountdownNowTime[1]--;
 10288  012544  0603               	decf	_numCountdownNowTime+2,f,c	;volatile
 10289  012546  A0D8               	btfss	16344,0,c
 10290  012548  0604               	decf	_numCountdownNowTime+3,f,c	;volatile
 10291                           
 10292                           ;countdown.c: 183: numCountdownNowTime[5]=9;
 10293  01254A  0E00               	movlw	0
 10294  01254C  6E0C               	movwf	_numCountdownNowTime+11,c	;volatile
 10295  01254E  0E09               	movlw	9
 10296  012550  6E0B               	movwf	_numCountdownNowTime+10,c	;volatile
 10297                           
 10298                           ;countdown.c: 184: numCountdownNowTime[4]=9;
 10299  012552  0E00               	movlw	0
 10300  012554  6E0A               	movwf	_numCountdownNowTime+9,c	;volatile
 10301  012556  0E09               	movlw	9
 10302  012558  6E09               	movwf	_numCountdownNowTime+8,c	;volatile
 10303                           
 10304                           ;countdown.c: 185: numCountdownNowTime[3]=9;
 10305  01255A  0E00               	movlw	0
 10306  01255C  6E08               	movwf	_numCountdownNowTime+7,c	;volatile
 10307  01255E  0E09               	movlw	9
 10308  012560  6E07               	movwf	_numCountdownNowTime+6,c	;volatile
 10309                           
 10310                           ;countdown.c: 186: numCountdownNowTime[2]=5;
 10311  012562  0E00               	movlw	0
 10312  012564  6E06               	movwf	_numCountdownNowTime+5,c	;volatile
 10313  012566  0E05               	movlw	5
 10314  012568  6E05               	movwf	_numCountdownNowTime+4,c	;volatile
 10315                           
 10316                           ;countdown.c: 187: }
 10317  01256A  D026               	goto	i2l346
 10318  01256C                     i2l343:
 10319                           
 10320                           ;countdown.c: 188: else;countdown.c: 189: {;countdown.c: 191: if (numCountdownNowTime[0]
      +                          !=0)
 10321  01256C  5001               	movf	_numCountdownNowTime,w,c	;volatile
 10322  01256E  1002               	iorwf	_numCountdownNowTime+1,w,c	;volatile
 10323  012570  B4D8               	btfsc	16344,2,c
 10324  012572  D018               	goto	i2l345
 10325                           
 10326                           ;countdown.c: 192: {;countdown.c: 193: numCountdownNowTime[0]--;
 10327  012574  0601               	decf	_numCountdownNowTime,f,c	;volatile
 10328  012576  A0D8               	btfss	16344,0,c
 10329  012578  0602               	decf	_numCountdownNowTime+1,f,c	;volatile
 10330                           
 10331                           ;countdown.c: 194: numCountdownNowTime[5]=9;
 10332  01257A  0E00               	movlw	0
 10333  01257C  6E0C               	movwf	_numCountdownNowTime+11,c	;volatile
 10334  01257E  0E09               	movlw	9
 10335  012580  6E0B               	movwf	_numCountdownNowTime+10,c	;volatile
 10336                           
 10337                           ;countdown.c: 195: numCountdownNowTime[4]=9;
 10338  012582  0E00               	movlw	0
 10339  012584  6E0A               	movwf	_numCountdownNowTime+9,c	;volatile
 10340  012586  0E09               	movlw	9
 10341  012588  6E09               	movwf	_numCountdownNowTime+8,c	;volatile
 10342                           
 10343                           ;countdown.c: 196: numCountdownNowTime[3]=9;
 10344  01258A  0E00               	movlw	0
 10345  01258C  6E08               	movwf	_numCountdownNowTime+7,c	;volatile
 10346  01258E  0E09               	movlw	9
 10347  012590  6E07               	movwf	_numCountdownNowTime+6,c	;volatile
 10348                           
 10349                           ;countdown.c: 197: numCountdownNowTime[2]=5;
 10350  012592  0E00               	movlw	0
 10351  012594  6E06               	movwf	_numCountdownNowTime+5,c	;volatile
 10352  012596  0E05               	movlw	5
 10353  012598  6E05               	movwf	_numCountdownNowTime+4,c	;volatile
 10354                           
 10355                           ;countdown.c: 198: numCountdownNowTime[1]=9;
 10356  01259A  0E00               	movlw	0
 10357  01259C  6E04               	movwf	_numCountdownNowTime+3,c	;volatile
 10358  01259E  0E09               	movlw	9
 10359  0125A0  6E03               	movwf	_numCountdownNowTime+2,c	;volatile
 10360                           
 10361                           ;countdown.c: 199: }
 10362  0125A2  D00A               	goto	i2l346
 10363  0125A4                     i2l345:
 10364                           
 10365                           ;countdown.c: 200: else {countdownStop(); status = exploded; endBeep();}
 10366  0125A4  ECBC  F098         	call	i2_countdownStop	;wreg free
 10367  0125A8  0060  F1C0  F032   	movff	_exploded,_status
 10368  0125AE  0060  F1C4  F033   	movff	_exploded+1,_status+1
 10369  0125B4  ECFC  F093         	call	_endBeep	;wreg free
 10370  0125B8                     i2l346:
 10371                           
 10372                           ;countdown.c: 202: };countdown.c: 203: };countdown.c: 204: };countdown.c: 205: };countdo
      +                          wn.c: 206: };countdown.c: 208: countdown_now_num2str();
 10373  0125B8  EC3B  F08D         	call	_countdown_now_num2str	;wreg free
 10374                           
 10375                           ;countdown.c: 209: LCD_printNowCountdown();
 10376  0125BC  ECCD  F095         	call	i2_LCD_printNowCountdown	;wreg free
 10377  0125C0  0012               	return		;funcret
 10378  0125C2                     __end_of_countdown_drop_timer:
 10379                           	opt stack 0
 10380                           
 10381 ;; *************** function i2_normalBeep *****************
 10382 ;; Defined at:
 10383 ;;		line 110 in file "beeper.c"
 10384 ;; Parameters:    Size  Location     Type
 10385 ;;		None
 10386 ;; Auto vars:     Size  Location     Type
 10387 ;;		None
 10388 ;; Return value:  Size  Location     Type
 10389 ;;                  1    wreg      void 
 10390 ;; Registers used:
 10391 ;;		wreg, status,2
 10392 ;; Tracked objects:
 10393 ;;		On entry : 0/0
 10394 ;;		On exit  : 0/0
 10395 ;;		Unchanged: 0/0
 10396 ;; Data sizes:     COMRAM   BANK0   BANK1   BANK2   BANK3   BANK4   BANK5   BANK6   BANK7   BANK8   BANK9  BANK10  BANK1
      +1  BANK12  BANK13  BANK14  BANK15  BANK16  BANK17  BANK18  BANK19  BANK20  BANK21  BANK22  BANK23  BANK24  BANK25  BANK2
      +6  BANK27  BANK28  BANK29  BANK30  BANK31
 10397 ;;      Params:         0       0       0       0       0       0       0       0       0       0       0       0       
      +0       0       0       0       0       0       0       0       0       0       0       0       0       0       0       
      +0       0       0       0       0       0
 10398 ;;      Locals:         0       0       0       0       0       0       0       0       0       0       0       0       
      +0       0       0       0       0       0       0       0       0       0       0       0       0       0       0       
      +0       0       0       0       0       0
 10399 ;;      Temps:          0       0       0       0       0       0       0       0       0       0       0       0       
      +0       0       0       0       0       0       0       0       0       0       0       0       0       0       0       
      +0       0       0       0       0       0
 10400 ;;      Totals:         0       0       0       0       0       0       0       0       0       0       0       0       
      +0       0       0       0       0       0       0       0       0       0       0       0       0       0       0       
      +0       0       0       0       0       0
 10401 ;;Total ram usage:        0 bytes
 10402 ;; Hardware stack levels used:    1
 10403 ;; This function calls:
 10404 ;;		Nothing
 10405 ;; This function is called by:
 10406 ;;		_countdown_drop_timer
 10407 ;; This function uses a non-reentrant model
 10408 ;;
 10409                           
 10410                           	psect	text55
 10411  0130FC                     __ptext55:
 10412                           	opt stack 0
 10413  0130FC                     i2_normalBeep:
 10414                           	opt stack 24
 10415                           
 10416                           ;beeper.c: 112: TMR1H = 0xAE;
 10417                           
 10418                           ;incstack = 0
 10419  0130FC  0EAE               	movlw	174
 10420  0130FE  013F               	movlb	63	; () banked
 10421  013100  6FB1               	movwf	177,b	;volatile
 10422                           
 10423                           ;beeper.c: 113: TMR1L = 0x57;
 10424  013102  0E57               	movlw	87
 10425  013104  6FB0               	movwf	176,b	;volatile
 10426                           
 10427                           ; BSR set to: 63
 10428                           ;beeper.c: 114: PWM5CONbits.EN = 1;
 10429  013106  8F6E               	bsf	110,7,b	;volatile
 10430                           
 10431                           ; BSR set to: 63
 10432                           ;beeper.c: 115: LATAbits.LATA0 = 1;
 10433  013108  81BA               	bsf	186,0,b	;volatile
 10434                           
 10435                           ; BSR set to: 63
 10436                           ;beeper.c: 116: T1CONbits.ON = 1;
 10437  01310A  81B2               	bsf	178,0,b	;volatile
 10438                           
 10439                           ; BSR set to: 63
 10440  01310C  0012               	return		;funcret
 10441  01310E                     __end_ofi2_normalBeep:
 10442                           	opt stack 0
 10443                           
 10444 ;; *************** function i2_countdownStop *****************
 10445 ;; Defined at:
 10446 ;;		line 31 in file "countdown.c"
 10447 ;; Parameters:    Size  Location     Type
 10448 ;;		None
 10449 ;; Auto vars:     Size  Location     Type
 10450 ;;		None
 10451 ;; Return value:  Size  Location     Type
 10452 ;;                  1    wreg      void 
 10453 ;; Registers used:
 10454 ;;		None
 10455 ;; Tracked objects:
 10456 ;;		On entry : 0/0
 10457 ;;		On exit  : 0/0
 10458 ;;		Unchanged: 0/0
 10459 ;; Data sizes:     COMRAM   BANK0   BANK1   BANK2   BANK3   BANK4   BANK5   BANK6   BANK7   BANK8   BANK9  BANK10  BANK1
      +1  BANK12  BANK13  BANK14  BANK15  BANK16  BANK17  BANK18  BANK19  BANK20  BANK21  BANK22  BANK23  BANK24  BANK25  BANK2
      +6  BANK27  BANK28  BANK29  BANK30  BANK31
 10460 ;;      Params:         0       0       0       0       0       0       0       0       0       0       0       0       
      +0       0       0       0       0       0       0       0       0       0       0       0       0       0       0       
      +0       0       0       0       0       0
 10461 ;;      Locals:         0       0       0       0       0       0       0       0       0       0       0       0       
      +0       0       0       0       0       0       0       0       0       0       0       0       0       0       0       
      +0       0       0       0       0       0
 10462 ;;      Temps:          0       0       0       0       0       0       0       0       0       0       0       0       
      +0       0       0       0       0       0       0       0       0       0       0       0       0       0       0       
      +0       0       0       0       0       0
 10463 ;;      Totals:         0       0       0       0       0       0       0       0       0       0       0       0       
      +0       0       0       0       0       0       0       0       0       0       0       0       0       0       0       
      +0       0       0       0       0       0
 10464 ;;Total ram usage:        0 bytes
 10465 ;; Hardware stack levels used:    1
 10466 ;; This function calls:
 10467 ;;		Nothing
 10468 ;; This function is called by:
 10469 ;;		_countdown_drop_timer
 10470 ;; This function uses a non-reentrant model
 10471 ;;
 10472                           
 10473                           	psect	text56
 10474  013178                     __ptext56:
 10475                           	opt stack 0
 10476  013178                     i2_countdownStop:
 10477                           	opt stack 24
 10478                           
 10479                           ;countdown.c: 33: T0CON0bits.EN = 0;
 10480                           
 10481                           ; BSR set to: 63
 10482                           ;incstack = 0
 10483  013178  013F               	movlb	63	; () banked
 10484  01317A  9FB8               	bcf	184,7,b	;volatile
 10485                           
 10486                           ; BSR set to: 63
 10487  01317C  0012               	return		;funcret
 10488  01317E                     __end_ofi2_countdownStop:
 10489                           	opt stack 0
 10490                           
 10491 ;; *************** function i2_LCD_printNowCountdown *****************
 10492 ;; Defined at:
 10493 ;;		line 153 in file "lcd.c"
 10494 ;; Parameters:    Size  Location     Type
 10495 ;;		None
 10496 ;; Auto vars:     Size  Location     Type
 10497 ;;  LCD_printNow    2    6[COMRAM] int 
 10498 ;; Return value:  Size  Location     Type
 10499 ;;                  1    wreg      void 
 10500 ;; Registers used:
 10501 ;;		wreg, fsr2l, fsr2h, status,2, status,0, cstack
 10502 ;; Tracked objects:
 10503 ;;		On entry : 0/0
 10504 ;;		On exit  : 0/0
 10505 ;;		Unchanged: 0/0
 10506 ;; Data sizes:     COMRAM   BANK0   BANK1   BANK2   BANK3   BANK4   BANK5   BANK6   BANK7   BANK8   BANK9  BANK10  BANK1
      +1  BANK12  BANK13  BANK14  BANK15  BANK16  BANK17  BANK18  BANK19  BANK20  BANK21  BANK22  BANK23  BANK24  BANK25  BANK2
      +6  BANK27  BANK28  BANK29  BANK30  BANK31
 10507 ;;      Params:         0       0       0       0       0       0       0       0       0       0       0       0       
      +0       0       0       0       0       0       0       0       0       0       0       0       0       0       0       
      +0       0       0       0       0       0
 10508 ;;      Locals:         2       0       0       0       0       0       0       0       0       0       0       0       
      +0       0       0       0       0       0       0       0       0       0       0       0       0       0       0       
      +0       0       0       0       0       0
 10509 ;;      Temps:          0       0       0       0       0       0       0       0       0       0       0       0       
      +0       0       0       0       0       0       0       0       0       0       0       0       0       0       0       
      +0       0       0       0       0       0
 10510 ;;      Totals:         2       0       0       0       0       0       0       0       0       0       0       0       
      +0       0       0       0       0       0       0       0       0       0       0       0       0       0       0       
      +0       0       0       0       0       0
 10511 ;;Total ram usage:        2 bytes
 10512 ;; Hardware stack levels used:    1
 10513 ;; Hardware stack levels required when called:    2
 10514 ;; This function calls:
 10515 ;;		i2_LCD_Set_Cursor
 10516 ;;		i2_LCD_Write_Char
 10517 ;; This function is called by:
 10518 ;;		_countdown_drop_timer
 10519 ;; This function uses a non-reentrant model
 10520 ;;
 10521                           
 10522                           	psect	text57
 10523  012B9A                     __ptext57:
 10524                           	opt stack 0
 10525  012B9A                     i2_LCD_printNowCountdown:
 10526                           	opt stack 22
 10527                           
 10528                           ;lcd.c: 155: for(int i=0;i<=7;i++)
 10529                           
 10530                           ; BSR set to: 63
 10531                           ;incstack = 0
 10532  012B9A  0E00               	movlw	0
 10533  012B9C  6E43               	movwf	i2LCD_printNowCountdown@i+1,c
 10534  012B9E  0E00               	movlw	0
 10535  012BA0  6E42               	movwf	i2LCD_printNowCountdown@i,c
 10536  012BA2                     i2l4380:
 10537  012BA2  BE43               	btfsc	i2LCD_printNowCountdown@i+1,7,c
 10538  012BA4  D006               	goto	i2l586
 10539  012BA6  5043               	movf	i2LCD_printNowCountdown@i+1,w,c
 10540  012BA8  E11C               	bnz	i2l588
 10541  012BAA  0E08               	movlw	8
 10542  012BAC  5C42               	subwf	i2LCD_printNowCountdown@i,w,c
 10543  012BAE  B0D8               	btfsc	16344,0,c
 10544  012BB0  0012               	return	
 10545  012BB2                     i2l586:
 10546                           
 10547                           ;lcd.c: 156: {;lcd.c: 157: LCD_Set_Cursor(1,9+i);
 10548  012BB2  0E00               	movlw	0
 10549  012BB4  6E3E               	movwf	i2LCD_Set_Cursor@c+1,c
 10550  012BB6  0E01               	movlw	1
 10551  012BB8  6E3D               	movwf	i2LCD_Set_Cursor@c,c
 10552  012BBA  0E09               	movlw	9
 10553  012BBC  2442               	addwf	i2LCD_printNowCountdown@i,w,c
 10554  012BBE  6E3F               	movwf	i2LCD_Set_Cursor@d,c
 10555  012BC0  0E00               	movlw	0
 10556  012BC2  2043               	addwfc	i2LCD_printNowCountdown@i+1,w,c
 10557  012BC4  6E40               	movwf	i2LCD_Set_Cursor@d+1,c
 10558  012BC6  EC51  F097         	call	i2_LCD_Set_Cursor	;wreg free
 10559                           
 10560                           ;lcd.c: 158: LCD_Write_Char(strCountdownNowTime[i]);
 10561  012BCA  0E68               	movlw	low _strCountdownNowTime
 10562  012BCC  2442               	addwf	i2LCD_printNowCountdown@i,w,c
 10563  012BCE  6ED9               	movwf	16345,c
 10564  012BD0  0E00               	movlw	high _strCountdownNowTime
 10565  012BD2  2043               	addwfc	i2LCD_printNowCountdown@i+1,w,c
 10566  012BD4  6EDA               	movwf	16346,c
 10567  012BD6  50DF               	movf	16351,w,c
 10568  012BD8  ECC4  F097         	call	i2_LCD_Write_Char
 10569  012BDC  4A42               	infsnz	i2LCD_printNowCountdown@i,f,c
 10570  012BDE  2A43               	incf	i2LCD_printNowCountdown@i+1,f,c
 10571  012BE0  D7E0               	goto	i2l4380
 10572  012BE2                     i2l588:
 10573  012BE2  0012               	return		;funcret
 10574  012BE4                     __end_ofi2_LCD_printNowCountdown:
 10575                           	opt stack 0
 10576                           
 10577 ;; *************** function i2_LCD_Write_Char *****************
 10578 ;; Defined at:
 10579 ;;		line 77 in file "lcd.c"
 10580 ;; Parameters:    Size  Location     Type
 10581 ;;  e               1    wreg     unsigned char 
 10582 ;; Auto vars:     Size  Location     Type
 10583 ;;  e               1    0[COMRAM] unsigned char 
 10584 ;; Return value:  Size  Location     Type
 10585 ;;                  1    wreg      void 
 10586 ;; Registers used:
 10587 ;;		wreg, status,2, status,0, cstack
 10588 ;; Tracked objects:
 10589 ;;		On entry : 0/0
 10590 ;;		On exit  : 0/0
 10591 ;;		Unchanged: 0/0
 10592 ;; Data sizes:     COMRAM   BANK0   BANK1   BANK2   BANK3   BANK4   BANK5   BANK6   BANK7   BANK8   BANK9  BANK10  BANK1
      +1  BANK12  BANK13  BANK14  BANK15  BANK16  BANK17  BANK18  BANK19  BANK20  BANK21  BANK22  BANK23  BANK24  BANK25  BANK2
      +6  BANK27  BANK28  BANK29  BANK30  BANK31
 10593 ;;      Params:         0       0       0       0       0       0       0       0       0       0       0       0       
      +0       0       0       0       0       0       0       0       0       0       0       0       0       0       0       
      +0       0       0       0       0       0
 10594 ;;      Locals:         1       0       0       0       0       0       0       0       0       0       0       0       
      +0       0       0       0       0       0       0       0       0       0       0       0       0       0       0       
      +0       0       0       0       0       0
 10595 ;;      Temps:          0       0       0       0       0       0       0       0       0       0       0       0       
      +0       0       0       0       0       0       0       0       0       0       0       0       0       0       0       
      +0       0       0       0       0       0
 10596 ;;      Totals:         1       0       0       0       0       0       0       0       0       0       0       0       
      +0       0       0       0       0       0       0       0       0       0       0       0       0       0       0       
      +0       0       0       0       0       0
 10597 ;;Total ram usage:        1 bytes
 10598 ;; Hardware stack levels used:    1
 10599 ;; This function calls:
 10600 ;;		Nothing
 10601 ;; This function is called by:
 10602 ;;		i2_LCD_Write_String
 10603 ;;		i2_LCD_printNowCountdown
 10604 ;; This function uses a non-reentrant model
 10605 ;;
 10606                           
 10607                           	psect	text58
 10608  012F88                     __ptext58:
 10609                           	opt stack 0
 10610  012F88                     i2_LCD_Write_Char:
 10611                           	opt stack 24
 10612                           
 10613                           ;incstack = 0
 10614                           ;i2LCD_Write_Char@e stored from wreg
 10615  012F88  6E3C               	movwf	i2LCD_Write_Char@e,c
 10616                           
 10617                           ;lcd.c: 79: LATCbits.LATC6 = 1;
 10618  012F8A  013F               	movlb	63	; () banked
 10619  012F8C  8DBC               	bsf	188,6,b	;volatile
 10620                           
 10621                           ; BSR set to: 63
 10622                           ;lcd.c: 80: LATD = 0;
 10623  012F8E  0E00               	movlw	0
 10624  012F90  6FBD               	movwf	189,b	;volatile
 10625                           
 10626                           ; BSR set to: 63
 10627                           ;lcd.c: 81: LATD |= e;
 10628  012F92  503C               	movf	i2LCD_Write_Char@e,w,c
 10629  012F94  13BD               	iorwf	189,f,b	;volatile
 10630                           
 10631                           ; BSR set to: 63
 10632                           ;lcd.c: 82: LATCbits.LATC7 = 1;
 10633  012F96  8FBC               	bsf	188,7,b	;volatile
 10634                           
 10635                           ; BSR set to: 63
 10636                           ;lcd.c: 83: _delay((unsigned long)((40)*(8000000/4000000.0)));
 10637  012F98  0E1A               	movlw	26
 10638  012F9A                     i2u927_47:
 10639  012F9A  2EE8               	decfsz	16360,f,c
 10640  012F9C  D7FE               	bra	i2u927_47
 10641  012F9E  D000               	nop2	
 10642                           
 10643                           ;lcd.c: 84: LATCbits.LATC7 = 0;
 10644  012FA0  013F               	movlb	63	; () banked
 10645  012FA2  9FBC               	bcf	188,7,b	;volatile
 10646                           
 10647                           ; BSR set to: 63
 10648                           ;lcd.c: 85: LATD = 0;
 10649  012FA4  0E00               	movlw	0
 10650  012FA6  6FBD               	movwf	189,b	;volatile
 10651                           
 10652                           ; BSR set to: 63
 10653  012FA8  0012               	return		;funcret
 10654  012FAA                     __end_ofi2_LCD_Write_Char:
 10655                           	opt stack 0
 10656                           
 10657 ;; *************** function i2_LCD_Set_Cursor *****************
 10658 ;; Defined at:
 10659 ;;		line 62 in file "lcd.c"
 10660 ;; Parameters:    Size  Location     Type
 10661 ;;  c               2    1[COMRAM] int 
 10662 ;;  d               2    3[COMRAM] int 
 10663 ;; Auto vars:     Size  Location     Type
 10664 ;;  LCD_Set_Curs    1    5[COMRAM] unsigned char 
 10665 ;; Return value:  Size  Location     Type
 10666 ;;                  1    wreg      void 
 10667 ;; Registers used:
 10668 ;;		wreg, status,2, status,0, cstack
 10669 ;; Tracked objects:
 10670 ;;		On entry : 0/0
 10671 ;;		On exit  : 0/0
 10672 ;;		Unchanged: 0/0
 10673 ;; Data sizes:     COMRAM   BANK0   BANK1   BANK2   BANK3   BANK4   BANK5   BANK6   BANK7   BANK8   BANK9  BANK10  BANK1
      +1  BANK12  BANK13  BANK14  BANK15  BANK16  BANK17  BANK18  BANK19  BANK20  BANK21  BANK22  BANK23  BANK24  BANK25  BANK2
      +6  BANK27  BANK28  BANK29  BANK30  BANK31
 10674 ;;      Params:         4       0       0       0       0       0       0       0       0       0       0       0       
      +0       0       0       0       0       0       0       0       0       0       0       0       0       0       0       
      +0       0       0       0       0       0
 10675 ;;      Locals:         1       0       0       0       0       0       0       0       0       0       0       0       
      +0       0       0       0       0       0       0       0       0       0       0       0       0       0       0       
      +0       0       0       0       0       0
 10676 ;;      Temps:          0       0       0       0       0       0       0       0       0       0       0       0       
      +0       0       0       0       0       0       0       0       0       0       0       0       0       0       0       
      +0       0       0       0       0       0
 10677 ;;      Totals:         5       0       0       0       0       0       0       0       0       0       0       0       
      +0       0       0       0       0       0       0       0       0       0       0       0       0       0       0       
      +0       0       0       0       0       0
 10678 ;;Total ram usage:        5 bytes
 10679 ;; Hardware stack levels used:    1
 10680 ;; Hardware stack levels required when called:    1
 10681 ;; This function calls:
 10682 ;;		i2_LCD_Cmd
 10683 ;; This function is called by:
 10684 ;;		_ISR
 10685 ;;		i2_LCD_printNowCountdown
 10686 ;; This function uses a non-reentrant model
 10687 ;;
 10688                           
 10689                           	psect	text59
 10690  012EA2                     __ptext59:
 10691                           	opt stack 0
 10692  012EA2                     i2_LCD_Set_Cursor:
 10693                           	opt stack 24
 10694                           
 10695                           ;lcd.c: 64: char temp;;lcd.c: 65: if(c == 1)
 10696                           
 10697                           ; BSR set to: 63
 10698                           ;incstack = 0
 10699  012EA2  043D               	decf	i2LCD_Set_Cursor@c,w,c
 10700  012EA4  103E               	iorwf	i2LCD_Set_Cursor@c+1,w,c
 10701  012EA6  A4D8               	btfss	16344,2,c
 10702  012EA8  D007               	goto	i2l549
 10703                           
 10704                           ;lcd.c: 66: {;lcd.c: 67: temp = 0x80 + d - 1;
 10705  012EAA  503F               	movf	i2LCD_Set_Cursor@d,w,c
 10706  012EAC  0F7F               	addlw	127
 10707  012EAE  6E41               	movwf	i2LCD_Set_Cursor@temp,c
 10708                           
 10709                           ;lcd.c: 68: LCD_Cmd(temp);
 10710  012EB0  5041               	movf	i2LCD_Set_Cursor@temp,w,c
 10711  012EB2  EC30  F098         	call	i2_LCD_Cmd
 10712                           
 10713                           ;lcd.c: 69: }
 10714  012EB6  0012               	return	
 10715  012EB8                     i2l549:
 10716                           
 10717                           ;lcd.c: 70: else if(c == 2)
 10718  012EB8  0E02               	movlw	2
 10719  012EBA  183D               	xorwf	i2LCD_Set_Cursor@c,w,c
 10720  012EBC  103E               	iorwf	i2LCD_Set_Cursor@c+1,w,c
 10721  012EBE  A4D8               	btfss	16344,2,c
 10722  012EC0  0012               	return	
 10723                           
 10724                           ;lcd.c: 71: {;lcd.c: 72: temp = 0xC0 + d - 1;
 10725  012EC2  503F               	movf	i2LCD_Set_Cursor@d,w,c
 10726  012EC4  0FBF               	addlw	191
 10727  012EC6  6E41               	movwf	i2LCD_Set_Cursor@temp,c
 10728                           
 10729                           ;lcd.c: 73: LCD_Cmd(temp);
 10730  012EC8  5041               	movf	i2LCD_Set_Cursor@temp,w,c
 10731  012ECA  EC30  F098         	call	i2_LCD_Cmd
 10732  012ECE  0012               	return	
 10733  012ED0                     __end_ofi2_LCD_Set_Cursor:
 10734                           	opt stack 0
 10735                           
 10736 ;; *************** function i2_LCD_Cmd *****************
 10737 ;; Defined at:
 10738 ;;		line 43 in file "lcd.c"
 10739 ;; Parameters:    Size  Location     Type
 10740 ;;  b               1    wreg     unsigned char 
 10741 ;; Auto vars:     Size  Location     Type
 10742 ;;  b               1    0[COMRAM] unsigned char 
 10743 ;; Return value:  Size  Location     Type
 10744 ;;                  1    wreg      void 
 10745 ;; Registers used:
 10746 ;;		wreg, status,2, cstack
 10747 ;; Tracked objects:
 10748 ;;		On entry : 0/0
 10749 ;;		On exit  : 0/0
 10750 ;;		Unchanged: 0/0
 10751 ;; Data sizes:     COMRAM   BANK0   BANK1   BANK2   BANK3   BANK4   BANK5   BANK6   BANK7   BANK8   BANK9  BANK10  BANK1
      +1  BANK12  BANK13  BANK14  BANK15  BANK16  BANK17  BANK18  BANK19  BANK20  BANK21  BANK22  BANK23  BANK24  BANK25  BANK2
      +6  BANK27  BANK28  BANK29  BANK30  BANK31
 10752 ;;      Params:         0       0       0       0       0       0       0       0       0       0       0       0       
      +0       0       0       0       0       0       0       0       0       0       0       0       0       0       0       
      +0       0       0       0       0       0
 10753 ;;      Locals:         1       0       0       0       0       0       0       0       0       0       0       0       
      +0       0       0       0       0       0       0       0       0       0       0       0       0       0       0       
      +0       0       0       0       0       0
 10754 ;;      Temps:          0       0       0       0       0       0       0       0       0       0       0       0       
      +0       0       0       0       0       0       0       0       0       0       0       0       0       0       0       
      +0       0       0       0       0       0
 10755 ;;      Totals:         1       0       0       0       0       0       0       0       0       0       0       0       
      +0       0       0       0       0       0       0       0       0       0       0       0       0       0       0       
      +0       0       0       0       0       0
 10756 ;;Total ram usage:        1 bytes
 10757 ;; Hardware stack levels used:    1
 10758 ;; This function calls:
 10759 ;;		Nothing
 10760 ;; This function is called by:
 10761 ;;		i2_LCD_Set_Cursor
 10762 ;; This function uses a non-reentrant model
 10763 ;;
 10764                           
 10765                           	psect	text60
 10766  013060                     __ptext60:
 10767                           	opt stack 0
 10768  013060                     i2_LCD_Cmd:
 10769                           	opt stack 24
 10770                           
 10771                           ;incstack = 0
 10772                           ;i2LCD_Cmd@b stored from wreg
 10773  013060  6E3C               	movwf	i2LCD_Cmd@b,c
 10774                           
 10775                           ;lcd.c: 45: LATCbits.LATC6 = 0;
 10776  013062  013F               	movlb	63	; () banked
 10777  013064  9DBC               	bcf	188,6,b	;volatile
 10778                           
 10779                           ; BSR set to: 63
 10780                           ;lcd.c: 46: LATD = b;
 10781  013066  0060  F0F3  FFBD   	movff	i2LCD_Cmd@b,16317	;volatile
 10782                           
 10783                           ; BSR set to: 63
 10784                           ;lcd.c: 47: LATCbits.LATC7 = 1;
 10785  01306C  8FBC               	bsf	188,7,b	;volatile
 10786                           
 10787                           ; BSR set to: 63
 10788                           ;lcd.c: 48: _delay((unsigned long)((50)*(8000000/4000000.0)));
 10789  01306E  0E21               	movlw	33
 10790  013070                     i2u928_47:
 10791  013070  2EE8               	decfsz	16360,f,c
 10792  013072  D7FE               	bra	i2u928_47
 10793  013074  F000               	nop	
 10794                           
 10795                           ;lcd.c: 49: LATCbits.LATC7 = 0;
 10796  013076  013F               	movlb	63	; () banked
 10797  013078  9FBC               	bcf	188,7,b	;volatile
 10798                           
 10799                           ; BSR set to: 63
 10800  01307A  0012               	return		;funcret
 10801  01307C                     __end_ofi2_LCD_Cmd:
 10802                           	opt stack 0
 10803                           
 10804 ;; *************** function _endBeep *****************
 10805 ;; Defined at:
 10806 ;;		line 165 in file "beeper.c"
 10807 ;; Parameters:    Size  Location     Type
 10808 ;;		None
 10809 ;; Auto vars:     Size  Location     Type
 10810 ;;  i               2    3[COMRAM] int 
 10811 ;;  i               2    1[COMRAM] int 
 10812 ;; Return value:  Size  Location     Type
 10813 ;;                  1    wreg      void 
 10814 ;; Registers used:
 10815 ;;		wreg, status,2, status,0
 10816 ;; Tracked objects:
 10817 ;;		On entry : 0/0
 10818 ;;		On exit  : 0/0
 10819 ;;		Unchanged: 0/0
 10820 ;; Data sizes:     COMRAM   BANK0   BANK1   BANK2   BANK3   BANK4   BANK5   BANK6   BANK7   BANK8   BANK9  BANK10  BANK1
      +1  BANK12  BANK13  BANK14  BANK15  BANK16  BANK17  BANK18  BANK19  BANK20  BANK21  BANK22  BANK23  BANK24  BANK25  BANK2
      +6  BANK27  BANK28  BANK29  BANK30  BANK31
 10821 ;;      Params:         0       0       0       0       0       0       0       0       0       0       0       0       
      +0       0       0       0       0       0       0       0       0       0       0       0       0       0       0       
      +0       0       0       0       0       0
 10822 ;;      Locals:         4       0       0       0       0       0       0       0       0       0       0       0       
      +0       0       0       0       0       0       0       0       0       0       0       0       0       0       0       
      +0       0       0       0       0       0
 10823 ;;      Temps:          1       0       0       0       0       0       0       0       0       0       0       0       
      +0       0       0       0       0       0       0       0       0       0       0       0       0       0       0       
      +0       0       0       0       0       0
 10824 ;;      Totals:         5       0       0       0       0       0       0       0       0       0       0       0       
      +0       0       0       0       0       0       0       0       0       0       0       0       0       0       0       
      +0       0       0       0       0       0
 10825 ;;Total ram usage:        5 bytes
 10826 ;; Hardware stack levels used:    1
 10827 ;; This function calls:
 10828 ;;		Nothing
 10829 ;; This function is called by:
 10830 ;;		_countdown_drop_timer
 10831 ;; This function uses a non-reentrant model
 10832 ;;
 10833                           
 10834                           	psect	text61
 10835  0127F8                     __ptext61:
 10836                           	opt stack 0
 10837  0127F8                     _endBeep:
 10838                           	opt stack 24
 10839                           
 10840                           ;beeper.c: 167: PWM5CONbits.EN = 1;
 10841                           
 10842                           ; BSR set to: 63
 10843                           ;incstack = 0
 10844  0127F8  013F               	movlb	63	; () banked
 10845  0127FA  8F6E               	bsf	110,7,b	;volatile
 10846                           
 10847                           ; BSR set to: 63
 10848                           ;beeper.c: 169: T2PR = 0xB4;
 10849  0127FC  0EB4               	movlw	180
 10850  0127FE  6FAB               	movwf	171,b	;volatile
 10851                           
 10852                           ;beeper.c: 170: for (int i=0;i<32;i++)
 10853  012800  0E00               	movlw	0
 10854  012802  6E3E               	movwf	endBeep@i+1,c
 10855  012804  0E00               	movlw	0
 10856  012806  6E3D               	movwf	endBeep@i,c
 10857  012808                     i2l3998:
 10858                           
 10859                           ; BSR set to: 63
 10860  012808  BE3E               	btfsc	endBeep@i+1,7,c
 10861  01280A  D006               	goto	i2l147
 10862  01280C  503E               	movf	endBeep@i+1,w,c
 10863  01280E  E112               	bnz	i2l4008
 10864  012810  0E20               	movlw	32
 10865  012812  5C3D               	subwf	endBeep@i,w,c
 10866  012814  B0D8               	btfsc	16344,0,c
 10867  012816  D00E               	goto	i2u322_40
 10868  012818                     i2l147:
 10869                           
 10870                           ;beeper.c: 171: {;beeper.c: 172: T2PR = T2PR-1;
 10871                           
 10872                           ; BSR set to: 63
 10873  012818  013F               	movlb	63	; () banked
 10874  01281A  05AB               	decf	171,w,b	;volatile
 10875  01281C  6FAB               	movwf	171,b	;volatile
 10876                           
 10877                           ; BSR set to: 63
 10878                           ;beeper.c: 173: _delay((unsigned long)((32)*(8000000/4000.0)));}
 10879  01281E  0E54               	movlw	84
 10880  012820  6E3C               	movwf	??_endBeep& (0+255),c
 10881  012822  0E1C               	movlw	28
 10882  012824                     i2u929_47:
 10883  012824  2EE8               	decfsz	16360,f,c
 10884  012826  D7FE               	bra	i2u929_47
 10885  012828  2E3C               	decfsz	??_endBeep& (0+255),f,c
 10886  01282A  D7FC               	bra	i2u929_47
 10887  01282C  D000               	nop2	
 10888  01282E  4A3D               	infsnz	endBeep@i,f,c
 10889  012830  2A3E               	incf	endBeep@i+1,f,c
 10890  012832  D7EA               	goto	i2l3998
 10891  012834                     i2u322_40:
 10892  012834                     i2l4008:
 10893                           
 10894                           ;beeper.c: 175: T2PR = 0xF4;
 10895  012834  0EF4               	movlw	244
 10896  012836  013F               	movlb	63	; () banked
 10897  012838  6FAB               	movwf	171,b	;volatile
 10898                           
 10899                           ;beeper.c: 177: for (int i=0;i<12;i++)
 10900  01283A  0E00               	movlw	0
 10901  01283C  6E40               	movwf	endBeep@i_538+1,c
 10902  01283E  0E00               	movlw	0
 10903  012840  6E3F               	movwf	endBeep@i_538,c
 10904                           
 10905                           ; BSR set to: 63
 10906  012842  BE40               	btfsc	endBeep@i_538+1,7,c
 10907  012844  D003               	goto	i2l149
 10908  012846  5040               	movf	endBeep@i_538+1,w,c
 10909  012848  E11E               	bnz	i2l150
 10910  01284A  D019               	goto	L16
 10911  01284C                     i2l149:
 10912                           
 10913                           ;beeper.c: 178: {;beeper.c: 179: PWM5CONbits.EN=0;
 10914  01284C  013F               	movlb	63	; () banked
 10915  01284E  9F6E               	bcf	110,7,b	;volatile
 10916                           
 10917                           ; BSR set to: 63
 10918                           ;beeper.c: 180: _delay((unsigned long)((52)*(8000000/4000.0)));
 10919  012850  0E88               	movlw	136
 10920  012852  6E3C               	movwf	??_endBeep& (0+255),c
 10921  012854  0E0F               	movlw	15
 10922  012856                     i2u930_47:
 10923  012856  2EE8               	decfsz	16360,f,c
 10924  012858  D7FE               	bra	i2u930_47
 10925  01285A  2E3C               	decfsz	??_endBeep& (0+255),f,c
 10926  01285C  D7FC               	bra	i2u930_47
 10927  01285E  F000               	nop	
 10928                           
 10929                           ;beeper.c: 181: PWM5CONbits.EN=1;
 10930  012860  013F               	movlb	63	; () banked
 10931  012862  8F6E               	bsf	110,7,b	;volatile
 10932                           
 10933                           ;beeper.c: 182: _delay((unsigned long)((29)*(8000000/4000.0)));
 10934  012864  0E4C               	movlw	76
 10935  012866  6E3C               	movwf	??_endBeep& (0+255),c
 10936  012868  0E52               	movlw	82
 10937  01286A                     i2u931_47:
 10938  01286A  2EE8               	decfsz	16360,f,c
 10939  01286C  D7FE               	bra	i2u931_47
 10940  01286E  2E3C               	decfsz	??_endBeep& (0+255),f,c
 10941  012870  D7FC               	bra	i2u931_47
 10942  012872  4A3F               	infsnz	endBeep@i_538,f,c
 10943  012874  2A40               	incf	endBeep@i_538+1,f,c
 10944  012876  BE40               	btfsc	endBeep@i_538+1,7,c
 10945  012878  D7E9               	goto	i2l149
 10946  01287A  5040               	movf	endBeep@i_538+1,w,c
 10947  01287C  E104               	bnz	i2u324_40
 10948  01287E                     L16:
 10949  01287E  0E0C               	movlw	12
 10950  012880  5C3F               	subwf	endBeep@i_538,w,c
 10951  012882  A0D8               	btfss	16344,0,c
 10952  012884  D7E3               	goto	i2l149
 10953  012886                     i2u324_40:
 10954  012886                     i2l150:
 10955                           
 10956                           ;beeper.c: 183: };beeper.c: 184: PWM5CONbits.EN = 0;
 10957  012886  013F               	movlb	63	; () banked
 10958  012888  9F6E               	bcf	110,7,b	;volatile
 10959                           
 10960                           ; BSR set to: 63
 10961                           ;beeper.c: 185: T2PR = 0x72;
 10962  01288A  0E72               	movlw	114
 10963  01288C  6FAB               	movwf	171,b	;volatile
 10964                           
 10965                           ; BSR set to: 63
 10966  01288E  0012               	return		;funcret
 10967  012890                     __end_of_endBeep:
 10968                           	opt stack 0
 10969                           
 10970 ;; *************** function _countdown_now_num2str *****************
 10971 ;; Defined at:
 10972 ;;		line 95 in file "countdown.c"
 10973 ;; Parameters:    Size  Location     Type
 10974 ;;		None
 10975 ;; Auto vars:     Size  Location     Type
 10976 ;;  i               2    2[COMRAM] int 
 10977 ;; Return value:  Size  Location     Type
 10978 ;;                  1    wreg      void 
 10979 ;; Registers used:
 10980 ;;		wreg, fsr2l, fsr2h, status,2, status,0
 10981 ;; Tracked objects:
 10982 ;;		On entry : 0/0
 10983 ;;		On exit  : 0/0
 10984 ;;		Unchanged: 0/0
 10985 ;; Data sizes:     COMRAM   BANK0   BANK1   BANK2   BANK3   BANK4   BANK5   BANK6   BANK7   BANK8   BANK9  BANK10  BANK1
      +1  BANK12  BANK13  BANK14  BANK15  BANK16  BANK17  BANK18  BANK19  BANK20  BANK21  BANK22  BANK23  BANK24  BANK25  BANK2
      +6  BANK27  BANK28  BANK29  BANK30  BANK31
 10986 ;;      Params:         0       0       0       0       0       0       0       0       0       0       0       0       
      +0       0       0       0       0       0       0       0       0       0       0       0       0       0       0       
      +0       0       0       0       0       0
 10987 ;;      Locals:         2       0       0       0       0       0       0       0       0       0       0       0       
      +0       0       0       0       0       0       0       0       0       0       0       0       0       0       0       
      +0       0       0       0       0       0
 10988 ;;      Temps:          2       0       0       0       0       0       0       0       0       0       0       0       
      +0       0       0       0       0       0       0       0       0       0       0       0       0       0       0       
      +0       0       0       0       0       0
 10989 ;;      Totals:         4       0       0       0       0       0       0       0       0       0       0       0       
      +0       0       0       0       0       0       0       0       0       0       0       0       0       0       0       
      +0       0       0       0       0       0
 10990 ;;Total ram usage:        4 bytes
 10991 ;; Hardware stack levels used:    1
 10992 ;; This function calls:
 10993 ;;		Nothing
 10994 ;; This function is called by:
 10995 ;;		_countdown_drop_timer
 10996 ;; This function uses a non-reentrant model
 10997 ;;
 10998                           
 10999                           	psect	text62
 11000  011A76                     __ptext62:
 11001                           	opt stack 0
 11002  011A76                     _countdown_now_num2str:
 11003                           	opt stack 24
 11004                           
 11005                           ;countdown.c: 97: for(int i=0;i<=5;i++)
 11006                           
 11007                           ; BSR set to: 63
 11008                           ;incstack = 0
 11009  011A76  0E00               	movlw	0
 11010  011A78  6E3F               	movwf	countdown_now_num2str@i+1,c
 11011  011A7A  0E00               	movlw	0
 11012  011A7C  6E3E               	movwf	countdown_now_num2str@i,c
 11013  011A7E  BE3F               	btfsc	countdown_now_num2str@i+1,7,c
 11014  011A80  D008               	goto	i2l289
 11015  011A82  503F               	movf	countdown_now_num2str@i+1,w,c
 11016  011A84  E105               	bnz	i2u325_40
 11017  011A86  0E06               	movlw	6
 11018  011A88  5C3E               	subwf	countdown_now_num2str@i,w,c
 11019  011A8A  B0D8               	btfsc	16344,0,c
 11020  011A8C  0012               	return	
 11021  011A8E  D001               	goto	i2l289
 11022  011A90                     i2u325_40:
 11023  011A90  0012               	return	
 11024  011A92                     i2l289:
 11025                           
 11026                           ;countdown.c: 98: {;countdown.c: 99: if(i==0||i==1)
 11027  011A92  503E               	movf	countdown_now_num2str@i,w,c
 11028  011A94  103F               	iorwf	countdown_now_num2str@i+1,w,c
 11029  011A96  B4D8               	btfsc	16344,2,c
 11030  011A98  D004               	goto	i2u327_40
 11031  011A9A  043E               	decf	countdown_now_num2str@i,w,c
 11032  011A9C  103F               	iorwf	countdown_now_num2str@i+1,w,c
 11033  011A9E  A4D8               	btfss	16344,2,c
 11034  011AA0  D0DA               	goto	i2l303
 11035  011AA2                     i2u327_40:
 11036                           
 11037                           ;countdown.c: 100: {;countdown.c: 101: if(numCountdownNowTime[i]==0){strCountdownNowTime
      +                          [i] = '0';}
 11038  011AA2  90D8               	bcf	16344,0,c
 11039  011AA4  343E               	rlcf	countdown_now_num2str@i,w,c
 11040  011AA6  6ED9               	movwf	16345,c
 11041  011AA8  343F               	rlcf	countdown_now_num2str@i+1,w,c
 11042  011AAA  6EDA               	movwf	16346,c
 11043  011AAC  0E01               	movlw	low _numCountdownNowTime
 11044  011AAE  26D9               	addwf	16345,f,c
 11045  011AB0  0E00               	movlw	high _numCountdownNowTime
 11046  011AB2  22DA               	addwfc	16346,f,c
 11047  011AB4  50DE               	movf	16350,w,c
 11048  011AB6  10DE               	iorwf	16350,w,c
 11049  011AB8  A4D8               	btfss	16344,2,c
 11050  011ABA  D008               	goto	i2l294
 11051  011ABC  0E68               	movlw	low _strCountdownNowTime
 11052  011ABE  243E               	addwf	countdown_now_num2str@i,w,c
 11053  011AC0  6ED9               	movwf	16345,c
 11054  011AC2  0E00               	movlw	high _strCountdownNowTime
 11055  011AC4  203F               	addwfc	countdown_now_num2str@i+1,w,c
 11056  011AC6  6EDA               	movwf	16346,c
 11057  011AC8  0E30               	movlw	48
 11058  011ACA  6EDF               	movwf	16351,c
 11059  011ACC                     i2l294:
 11060                           
 11061                           ;countdown.c: 102: if(numCountdownNowTime[i]==1){strCountdownNowTime[i] = '1';}
 11062  011ACC  90D8               	bcf	16344,0,c
 11063  011ACE  343E               	rlcf	countdown_now_num2str@i,w,c
 11064  011AD0  6ED9               	movwf	16345,c
 11065  011AD2  343F               	rlcf	countdown_now_num2str@i+1,w,c
 11066  011AD4  6EDA               	movwf	16346,c
 11067  011AD6  0E01               	movlw	low _numCountdownNowTime
 11068  011AD8  26D9               	addwf	16345,f,c
 11069  011ADA  0E00               	movlw	high _numCountdownNowTime
 11070  011ADC  22DA               	addwfc	16346,f,c
 11071  011ADE  04DE               	decf	16350,w,c
 11072  011AE0  10DE               	iorwf	16350,w,c
 11073  011AE2  A4D8               	btfss	16344,2,c
 11074  011AE4  D008               	goto	i2l295
 11075  011AE6  0E68               	movlw	low _strCountdownNowTime
 11076  011AE8  243E               	addwf	countdown_now_num2str@i,w,c
 11077  011AEA  6ED9               	movwf	16345,c
 11078  011AEC  0E00               	movlw	high _strCountdownNowTime
 11079  011AEE  203F               	addwfc	countdown_now_num2str@i+1,w,c
 11080  011AF0  6EDA               	movwf	16346,c
 11081  011AF2  0E31               	movlw	49
 11082  011AF4  6EDF               	movwf	16351,c
 11083  011AF6                     i2l295:
 11084                           
 11085                           ;countdown.c: 103: if(numCountdownNowTime[i]==2){strCountdownNowTime[i] = '2';}
 11086  011AF6  90D8               	bcf	16344,0,c
 11087  011AF8  343E               	rlcf	countdown_now_num2str@i,w,c
 11088  011AFA  6ED9               	movwf	16345,c
 11089  011AFC  343F               	rlcf	countdown_now_num2str@i+1,w,c
 11090  011AFE  6EDA               	movwf	16346,c
 11091  011B00  0E01               	movlw	low _numCountdownNowTime
 11092  011B02  26D9               	addwf	16345,f,c
 11093  011B04  0E00               	movlw	high _numCountdownNowTime
 11094  011B06  22DA               	addwfc	16346,f,c
 11095  011B08  0E02               	movlw	2
 11096  011B0A  18DE               	xorwf	16350,w,c
 11097  011B0C  10DE               	iorwf	16350,w,c
 11098  011B0E  A4D8               	btfss	16344,2,c
 11099  011B10  D008               	goto	i2l296
 11100  011B12  0E68               	movlw	low _strCountdownNowTime
 11101  011B14  243E               	addwf	countdown_now_num2str@i,w,c
 11102  011B16  6ED9               	movwf	16345,c
 11103  011B18  0E00               	movlw	high _strCountdownNowTime
 11104  011B1A  203F               	addwfc	countdown_now_num2str@i+1,w,c
 11105  011B1C  6EDA               	movwf	16346,c
 11106  011B1E  0E32               	movlw	50
 11107  011B20  6EDF               	movwf	16351,c
 11108  011B22                     i2l296:
 11109                           
 11110                           ;countdown.c: 104: if(numCountdownNowTime[i]==3){strCountdownNowTime[i] = '3';}
 11111  011B22  90D8               	bcf	16344,0,c
 11112  011B24  343E               	rlcf	countdown_now_num2str@i,w,c
 11113  011B26  6ED9               	movwf	16345,c
 11114  011B28  343F               	rlcf	countdown_now_num2str@i+1,w,c
 11115  011B2A  6EDA               	movwf	16346,c
 11116  011B2C  0E01               	movlw	low _numCountdownNowTime
 11117  011B2E  26D9               	addwf	16345,f,c
 11118  011B30  0E00               	movlw	high _numCountdownNowTime
 11119  011B32  22DA               	addwfc	16346,f,c
 11120  011B34  0E03               	movlw	3
 11121  011B36  18DE               	xorwf	16350,w,c
 11122  011B38  10DE               	iorwf	16350,w,c
 11123  011B3A  A4D8               	btfss	16344,2,c
 11124  011B3C  D008               	goto	i2l297
 11125  011B3E  0E68               	movlw	low _strCountdownNowTime
 11126  011B40  243E               	addwf	countdown_now_num2str@i,w,c
 11127  011B42  6ED9               	movwf	16345,c
 11128  011B44  0E00               	movlw	high _strCountdownNowTime
 11129  011B46  203F               	addwfc	countdown_now_num2str@i+1,w,c
 11130  011B48  6EDA               	movwf	16346,c
 11131  011B4A  0E33               	movlw	51
 11132  011B4C  6EDF               	movwf	16351,c
 11133  011B4E                     i2l297:
 11134                           
 11135                           ;countdown.c: 105: if(numCountdownNowTime[i]==4){strCountdownNowTime[i] = '4';}
 11136  011B4E  90D8               	bcf	16344,0,c
 11137  011B50  343E               	rlcf	countdown_now_num2str@i,w,c
 11138  011B52  6ED9               	movwf	16345,c
 11139  011B54  343F               	rlcf	countdown_now_num2str@i+1,w,c
 11140  011B56  6EDA               	movwf	16346,c
 11141  011B58  0E01               	movlw	low _numCountdownNowTime
 11142  011B5A  26D9               	addwf	16345,f,c
 11143  011B5C  0E00               	movlw	high _numCountdownNowTime
 11144  011B5E  22DA               	addwfc	16346,f,c
 11145  011B60  0E04               	movlw	4
 11146  011B62  18DE               	xorwf	16350,w,c
 11147  011B64  10DE               	iorwf	16350,w,c
 11148  011B66  A4D8               	btfss	16344,2,c
 11149  011B68  D008               	goto	i2l298
 11150  011B6A  0E68               	movlw	low _strCountdownNowTime
 11151  011B6C  243E               	addwf	countdown_now_num2str@i,w,c
 11152  011B6E  6ED9               	movwf	16345,c
 11153  011B70  0E00               	movlw	high _strCountdownNowTime
 11154  011B72  203F               	addwfc	countdown_now_num2str@i+1,w,c
 11155  011B74  6EDA               	movwf	16346,c
 11156  011B76  0E34               	movlw	52
 11157  011B78  6EDF               	movwf	16351,c
 11158  011B7A                     i2l298:
 11159                           
 11160                           ;countdown.c: 106: if(numCountdownNowTime[i]==5){strCountdownNowTime[i] = '5';}
 11161  011B7A  90D8               	bcf	16344,0,c
 11162  011B7C  343E               	rlcf	countdown_now_num2str@i,w,c
 11163  011B7E  6ED9               	movwf	16345,c
 11164  011B80  343F               	rlcf	countdown_now_num2str@i+1,w,c
 11165  011B82  6EDA               	movwf	16346,c
 11166  011B84  0E01               	movlw	low _numCountdownNowTime
 11167  011B86  26D9               	addwf	16345,f,c
 11168  011B88  0E00               	movlw	high _numCountdownNowTime
 11169  011B8A  22DA               	addwfc	16346,f,c
 11170  011B8C  0E05               	movlw	5
 11171  011B8E  18DE               	xorwf	16350,w,c
 11172  011B90  10DE               	iorwf	16350,w,c
 11173  011B92  A4D8               	btfss	16344,2,c
 11174  011B94  D008               	goto	i2l299
 11175  011B96  0E68               	movlw	low _strCountdownNowTime
 11176  011B98  243E               	addwf	countdown_now_num2str@i,w,c
 11177  011B9A  6ED9               	movwf	16345,c
 11178  011B9C  0E00               	movlw	high _strCountdownNowTime
 11179  011B9E  203F               	addwfc	countdown_now_num2str@i+1,w,c
 11180  011BA0  6EDA               	movwf	16346,c
 11181  011BA2  0E35               	movlw	53
 11182  011BA4  6EDF               	movwf	16351,c
 11183  011BA6                     i2l299:
 11184                           
 11185                           ;countdown.c: 107: if(numCountdownNowTime[i]==6){strCountdownNowTime[i] = '6';}
 11186  011BA6  90D8               	bcf	16344,0,c
 11187  011BA8  343E               	rlcf	countdown_now_num2str@i,w,c
 11188  011BAA  6ED9               	movwf	16345,c
 11189  011BAC  343F               	rlcf	countdown_now_num2str@i+1,w,c
 11190  011BAE  6EDA               	movwf	16346,c
 11191  011BB0  0E01               	movlw	low _numCountdownNowTime
 11192  011BB2  26D9               	addwf	16345,f,c
 11193  011BB4  0E00               	movlw	high _numCountdownNowTime
 11194  011BB6  22DA               	addwfc	16346,f,c
 11195  011BB8  0E06               	movlw	6
 11196  011BBA  18DE               	xorwf	16350,w,c
 11197  011BBC  10DE               	iorwf	16350,w,c
 11198  011BBE  A4D8               	btfss	16344,2,c
 11199  011BC0  D008               	goto	i2l300
 11200  011BC2  0E68               	movlw	low _strCountdownNowTime
 11201  011BC4  243E               	addwf	countdown_now_num2str@i,w,c
 11202  011BC6  6ED9               	movwf	16345,c
 11203  011BC8  0E00               	movlw	high _strCountdownNowTime
 11204  011BCA  203F               	addwfc	countdown_now_num2str@i+1,w,c
 11205  011BCC  6EDA               	movwf	16346,c
 11206  011BCE  0E36               	movlw	54
 11207  011BD0  6EDF               	movwf	16351,c
 11208  011BD2                     i2l300:
 11209                           
 11210                           ;countdown.c: 108: if(numCountdownNowTime[i]==7){strCountdownNowTime[i] = '7';}
 11211  011BD2  90D8               	bcf	16344,0,c
 11212  011BD4  343E               	rlcf	countdown_now_num2str@i,w,c
 11213  011BD6  6ED9               	movwf	16345,c
 11214  011BD8  343F               	rlcf	countdown_now_num2str@i+1,w,c
 11215  011BDA  6EDA               	movwf	16346,c
 11216  011BDC  0E01               	movlw	low _numCountdownNowTime
 11217  011BDE  26D9               	addwf	16345,f,c
 11218  011BE0  0E00               	movlw	high _numCountdownNowTime
 11219  011BE2  22DA               	addwfc	16346,f,c
 11220  011BE4  0E07               	movlw	7
 11221  011BE6  18DE               	xorwf	16350,w,c
 11222  011BE8  10DE               	iorwf	16350,w,c
 11223  011BEA  A4D8               	btfss	16344,2,c
 11224  011BEC  D008               	goto	i2l301
 11225  011BEE  0E68               	movlw	low _strCountdownNowTime
 11226  011BF0  243E               	addwf	countdown_now_num2str@i,w,c
 11227  011BF2  6ED9               	movwf	16345,c
 11228  011BF4  0E00               	movlw	high _strCountdownNowTime
 11229  011BF6  203F               	addwfc	countdown_now_num2str@i+1,w,c
 11230  011BF8  6EDA               	movwf	16346,c
 11231  011BFA  0E37               	movlw	55
 11232  011BFC  6EDF               	movwf	16351,c
 11233  011BFE                     i2l301:
 11234                           
 11235                           ;countdown.c: 109: if(numCountdownNowTime[i]==8){strCountdownNowTime[i] = '8';}
 11236  011BFE  90D8               	bcf	16344,0,c
 11237  011C00  343E               	rlcf	countdown_now_num2str@i,w,c
 11238  011C02  6ED9               	movwf	16345,c
 11239  011C04  343F               	rlcf	countdown_now_num2str@i+1,w,c
 11240  011C06  6EDA               	movwf	16346,c
 11241  011C08  0E01               	movlw	low _numCountdownNowTime
 11242  011C0A  26D9               	addwf	16345,f,c
 11243  011C0C  0E00               	movlw	high _numCountdownNowTime
 11244  011C0E  22DA               	addwfc	16346,f,c
 11245  011C10  0E08               	movlw	8
 11246  011C12  18DE               	xorwf	16350,w,c
 11247  011C14  10DE               	iorwf	16350,w,c
 11248  011C16  A4D8               	btfss	16344,2,c
 11249  011C18  D008               	goto	i2l302
 11250  011C1A  0E68               	movlw	low _strCountdownNowTime
 11251  011C1C  243E               	addwf	countdown_now_num2str@i,w,c
 11252  011C1E  6ED9               	movwf	16345,c
 11253  011C20  0E00               	movlw	high _strCountdownNowTime
 11254  011C22  203F               	addwfc	countdown_now_num2str@i+1,w,c
 11255  011C24  6EDA               	movwf	16346,c
 11256  011C26  0E38               	movlw	56
 11257  011C28  6EDF               	movwf	16351,c
 11258  011C2A                     i2l302:
 11259                           
 11260                           ;countdown.c: 110: if(numCountdownNowTime[i]==9){strCountdownNowTime[i] = '9';}
 11261  011C2A  90D8               	bcf	16344,0,c
 11262  011C2C  343E               	rlcf	countdown_now_num2str@i,w,c
 11263  011C2E  6ED9               	movwf	16345,c
 11264  011C30  343F               	rlcf	countdown_now_num2str@i+1,w,c
 11265  011C32  6EDA               	movwf	16346,c
 11266  011C34  0E01               	movlw	low _numCountdownNowTime
 11267  011C36  26D9               	addwf	16345,f,c
 11268  011C38  0E00               	movlw	high _numCountdownNowTime
 11269  011C3A  22DA               	addwfc	16346,f,c
 11270  011C3C  0E09               	movlw	9
 11271  011C3E  18DE               	xorwf	16350,w,c
 11272  011C40  10DE               	iorwf	16350,w,c
 11273  011C42  A4D8               	btfss	16344,2,c
 11274  011C44  D008               	goto	i2l303
 11275  011C46  0E68               	movlw	low _strCountdownNowTime
 11276  011C48  243E               	addwf	countdown_now_num2str@i,w,c
 11277  011C4A  6ED9               	movwf	16345,c
 11278  011C4C  0E00               	movlw	high _strCountdownNowTime
 11279  011C4E  203F               	addwfc	countdown_now_num2str@i+1,w,c
 11280  011C50  6EDA               	movwf	16346,c
 11281  011C52  0E39               	movlw	57
 11282  011C54  6EDF               	movwf	16351,c
 11283  011C56                     i2l303:
 11284                           
 11285                           ;countdown.c: 111: };countdown.c: 113: if(i==2||i==3)
 11286  011C56  0E02               	movlw	2
 11287  011C58  183E               	xorwf	countdown_now_num2str@i,w,c
 11288  011C5A  103F               	iorwf	countdown_now_num2str@i+1,w,c
 11289  011C5C  B4D8               	btfsc	16344,2,c
 11290  011C5E  D005               	goto	i2u339_40
 11291  011C60  0E03               	movlw	3
 11292  011C62  183E               	xorwf	countdown_now_num2str@i,w,c
 11293  011C64  103F               	iorwf	countdown_now_num2str@i+1,w,c
 11294  011C66  A4D8               	btfss	16344,2,c
 11295  011C68  D116               	goto	i2l316
 11296  011C6A                     i2u339_40:
 11297                           
 11298                           ;countdown.c: 114: {;countdown.c: 115: if(numCountdownNowTime[i]==0){strCountdownNowTime
      +                          [i+1] = '0';}
 11299  011C6A  90D8               	bcf	16344,0,c
 11300  011C6C  343E               	rlcf	countdown_now_num2str@i,w,c
 11301  011C6E  6ED9               	movwf	16345,c
 11302  011C70  343F               	rlcf	countdown_now_num2str@i+1,w,c
 11303  011C72  6EDA               	movwf	16346,c
 11304  011C74  0E01               	movlw	low _numCountdownNowTime
 11305  011C76  26D9               	addwf	16345,f,c
 11306  011C78  0E00               	movlw	high _numCountdownNowTime
 11307  011C7A  22DA               	addwfc	16346,f,c
 11308  011C7C  50DE               	movf	16350,w,c
 11309  011C7E  10DE               	iorwf	16350,w,c
 11310  011C80  A4D8               	btfss	16344,2,c
 11311  011C82  D00E               	goto	i2l307
 11312  011C84  0E01               	movlw	1
 11313  011C86  243E               	addwf	countdown_now_num2str@i,w,c
 11314  011C88  6E3C               	movwf	??_countdown_now_num2str& (0+255),c
 11315  011C8A  0E00               	movlw	0
 11316  011C8C  203F               	addwfc	countdown_now_num2str@i+1,w,c
 11317  011C8E  6E3D               	movwf	(??_countdown_now_num2str+1)& (0+255),c
 11318  011C90  0E68               	movlw	low _strCountdownNowTime
 11319  011C92  243C               	addwf	??_countdown_now_num2str,w,c
 11320  011C94  6ED9               	movwf	16345,c
 11321  011C96  0E00               	movlw	high _strCountdownNowTime
 11322  011C98  203D               	addwfc	??_countdown_now_num2str+1,w,c
 11323  011C9A  6EDA               	movwf	16346,c
 11324  011C9C  0E30               	movlw	48
 11325  011C9E  6EDF               	movwf	16351,c
 11326  011CA0                     i2l307:
 11327                           
 11328                           ;countdown.c: 116: if(numCountdownNowTime[i]==1){strCountdownNowTime[i+1] = '1';}
 11329  011CA0  90D8               	bcf	16344,0,c
 11330  011CA2  343E               	rlcf	countdown_now_num2str@i,w,c
 11331  011CA4  6ED9               	movwf	16345,c
 11332  011CA6  343F               	rlcf	countdown_now_num2str@i+1,w,c
 11333  011CA8  6EDA               	movwf	16346,c
 11334  011CAA  0E01               	movlw	low _numCountdownNowTime
 11335  011CAC  26D9               	addwf	16345,f,c
 11336  011CAE  0E00               	movlw	high _numCountdownNowTime
 11337  011CB0  22DA               	addwfc	16346,f,c
 11338  011CB2  04DE               	decf	16350,w,c
 11339  011CB4  10DE               	iorwf	16350,w,c
 11340  011CB6  A4D8               	btfss	16344,2,c
 11341  011CB8  D00E               	goto	i2l308
 11342  011CBA  0E01               	movlw	1
 11343  011CBC  243E               	addwf	countdown_now_num2str@i,w,c
 11344  011CBE  6E3C               	movwf	??_countdown_now_num2str& (0+255),c
 11345  011CC0  0E00               	movlw	0
 11346  011CC2  203F               	addwfc	countdown_now_num2str@i+1,w,c
 11347  011CC4  6E3D               	movwf	(??_countdown_now_num2str+1)& (0+255),c
 11348  011CC6  0E68               	movlw	low _strCountdownNowTime
 11349  011CC8  243C               	addwf	??_countdown_now_num2str,w,c
 11350  011CCA  6ED9               	movwf	16345,c
 11351  011CCC  0E00               	movlw	high _strCountdownNowTime
 11352  011CCE  203D               	addwfc	??_countdown_now_num2str+1,w,c
 11353  011CD0  6EDA               	movwf	16346,c
 11354  011CD2  0E31               	movlw	49
 11355  011CD4  6EDF               	movwf	16351,c
 11356  011CD6                     i2l308:
 11357                           
 11358                           ;countdown.c: 117: if(numCountdownNowTime[i]==2){strCountdownNowTime[i+1] = '2';}
 11359  011CD6  90D8               	bcf	16344,0,c
 11360  011CD8  343E               	rlcf	countdown_now_num2str@i,w,c
 11361  011CDA  6ED9               	movwf	16345,c
 11362  011CDC  343F               	rlcf	countdown_now_num2str@i+1,w,c
 11363  011CDE  6EDA               	movwf	16346,c
 11364  011CE0  0E01               	movlw	low _numCountdownNowTime
 11365  011CE2  26D9               	addwf	16345,f,c
 11366  011CE4  0E00               	movlw	high _numCountdownNowTime
 11367  011CE6  22DA               	addwfc	16346,f,c
 11368  011CE8  0E02               	movlw	2
 11369  011CEA  18DE               	xorwf	16350,w,c
 11370  011CEC  10DE               	iorwf	16350,w,c
 11371  011CEE  A4D8               	btfss	16344,2,c
 11372  011CF0  D00E               	goto	i2l309
 11373  011CF2  0E01               	movlw	1
 11374  011CF4  243E               	addwf	countdown_now_num2str@i,w,c
 11375  011CF6  6E3C               	movwf	??_countdown_now_num2str& (0+255),c
 11376  011CF8  0E00               	movlw	0
 11377  011CFA  203F               	addwfc	countdown_now_num2str@i+1,w,c
 11378  011CFC  6E3D               	movwf	(??_countdown_now_num2str+1)& (0+255),c
 11379  011CFE  0E68               	movlw	low _strCountdownNowTime
 11380  011D00  243C               	addwf	??_countdown_now_num2str,w,c
 11381  011D02  6ED9               	movwf	16345,c
 11382  011D04  0E00               	movlw	high _strCountdownNowTime
 11383  011D06  203D               	addwfc	??_countdown_now_num2str+1,w,c
 11384  011D08  6EDA               	movwf	16346,c
 11385  011D0A  0E32               	movlw	50
 11386  011D0C  6EDF               	movwf	16351,c
 11387  011D0E                     i2l309:
 11388                           
 11389                           ;countdown.c: 118: if(numCountdownNowTime[i]==3){strCountdownNowTime[i+1] = '3';}
 11390  011D0E  90D8               	bcf	16344,0,c
 11391  011D10  343E               	rlcf	countdown_now_num2str@i,w,c
 11392  011D12  6ED9               	movwf	16345,c
 11393  011D14  343F               	rlcf	countdown_now_num2str@i+1,w,c
 11394  011D16  6EDA               	movwf	16346,c
 11395  011D18  0E01               	movlw	low _numCountdownNowTime
 11396  011D1A  26D9               	addwf	16345,f,c
 11397  011D1C  0E00               	movlw	high _numCountdownNowTime
 11398  011D1E  22DA               	addwfc	16346,f,c
 11399  011D20  0E03               	movlw	3
 11400  011D22  18DE               	xorwf	16350,w,c
 11401  011D24  10DE               	iorwf	16350,w,c
 11402  011D26  A4D8               	btfss	16344,2,c
 11403  011D28  D00E               	goto	i2l310
 11404  011D2A  0E01               	movlw	1
 11405  011D2C  243E               	addwf	countdown_now_num2str@i,w,c
 11406  011D2E  6E3C               	movwf	??_countdown_now_num2str& (0+255),c
 11407  011D30  0E00               	movlw	0
 11408  011D32  203F               	addwfc	countdown_now_num2str@i+1,w,c
 11409  011D34  6E3D               	movwf	(??_countdown_now_num2str+1)& (0+255),c
 11410  011D36  0E68               	movlw	low _strCountdownNowTime
 11411  011D38  243C               	addwf	??_countdown_now_num2str,w,c
 11412  011D3A  6ED9               	movwf	16345,c
 11413  011D3C  0E00               	movlw	high _strCountdownNowTime
 11414  011D3E  203D               	addwfc	??_countdown_now_num2str+1,w,c
 11415  011D40  6EDA               	movwf	16346,c
 11416  011D42  0E33               	movlw	51
 11417  011D44  6EDF               	movwf	16351,c
 11418  011D46                     i2l310:
 11419                           
 11420                           ;countdown.c: 119: if(numCountdownNowTime[i]==4){strCountdownNowTime[i+1] = '4';}
 11421  011D46  90D8               	bcf	16344,0,c
 11422  011D48  343E               	rlcf	countdown_now_num2str@i,w,c
 11423  011D4A  6ED9               	movwf	16345,c
 11424  011D4C  343F               	rlcf	countdown_now_num2str@i+1,w,c
 11425  011D4E  6EDA               	movwf	16346,c
 11426  011D50  0E01               	movlw	low _numCountdownNowTime
 11427  011D52  26D9               	addwf	16345,f,c
 11428  011D54  0E00               	movlw	high _numCountdownNowTime
 11429  011D56  22DA               	addwfc	16346,f,c
 11430  011D58  0E04               	movlw	4
 11431  011D5A  18DE               	xorwf	16350,w,c
 11432  011D5C  10DE               	iorwf	16350,w,c
 11433  011D5E  A4D8               	btfss	16344,2,c
 11434  011D60  D00E               	goto	i2l311
 11435  011D62  0E01               	movlw	1
 11436  011D64  243E               	addwf	countdown_now_num2str@i,w,c
 11437  011D66  6E3C               	movwf	??_countdown_now_num2str& (0+255),c
 11438  011D68  0E00               	movlw	0
 11439  011D6A  203F               	addwfc	countdown_now_num2str@i+1,w,c
 11440  011D6C  6E3D               	movwf	(??_countdown_now_num2str+1)& (0+255),c
 11441  011D6E  0E68               	movlw	low _strCountdownNowTime
 11442  011D70  243C               	addwf	??_countdown_now_num2str,w,c
 11443  011D72  6ED9               	movwf	16345,c
 11444  011D74  0E00               	movlw	high _strCountdownNowTime
 11445  011D76  203D               	addwfc	??_countdown_now_num2str+1,w,c
 11446  011D78  6EDA               	movwf	16346,c
 11447  011D7A  0E34               	movlw	52
 11448  011D7C  6EDF               	movwf	16351,c
 11449  011D7E                     i2l311:
 11450                           
 11451                           ;countdown.c: 120: if(numCountdownNowTime[i]==5){strCountdownNowTime[i+1] = '5';}
 11452  011D7E  90D8               	bcf	16344,0,c
 11453  011D80  343E               	rlcf	countdown_now_num2str@i,w,c
 11454  011D82  6ED9               	movwf	16345,c
 11455  011D84  343F               	rlcf	countdown_now_num2str@i+1,w,c
 11456  011D86  6EDA               	movwf	16346,c
 11457  011D88  0E01               	movlw	low _numCountdownNowTime
 11458  011D8A  26D9               	addwf	16345,f,c
 11459  011D8C  0E00               	movlw	high _numCountdownNowTime
 11460  011D8E  22DA               	addwfc	16346,f,c
 11461  011D90  0E05               	movlw	5
 11462  011D92  18DE               	xorwf	16350,w,c
 11463  011D94  10DE               	iorwf	16350,w,c
 11464  011D96  A4D8               	btfss	16344,2,c
 11465  011D98  D00E               	goto	i2l312
 11466  011D9A  0E01               	movlw	1
 11467  011D9C  243E               	addwf	countdown_now_num2str@i,w,c
 11468  011D9E  6E3C               	movwf	??_countdown_now_num2str& (0+255),c
 11469  011DA0  0E00               	movlw	0
 11470  011DA2  203F               	addwfc	countdown_now_num2str@i+1,w,c
 11471  011DA4  6E3D               	movwf	(??_countdown_now_num2str+1)& (0+255),c
 11472  011DA6  0E68               	movlw	low _strCountdownNowTime
 11473  011DA8  243C               	addwf	??_countdown_now_num2str,w,c
 11474  011DAA  6ED9               	movwf	16345,c
 11475  011DAC  0E00               	movlw	high _strCountdownNowTime
 11476  011DAE  203D               	addwfc	??_countdown_now_num2str+1,w,c
 11477  011DB0  6EDA               	movwf	16346,c
 11478  011DB2  0E35               	movlw	53
 11479  011DB4  6EDF               	movwf	16351,c
 11480  011DB6                     i2l312:
 11481                           
 11482                           ;countdown.c: 121: if(numCountdownNowTime[i]==6){strCountdownNowTime[i+1] = '6';}
 11483  011DB6  90D8               	bcf	16344,0,c
 11484  011DB8  343E               	rlcf	countdown_now_num2str@i,w,c
 11485  011DBA  6ED9               	movwf	16345,c
 11486  011DBC  343F               	rlcf	countdown_now_num2str@i+1,w,c
 11487  011DBE  6EDA               	movwf	16346,c
 11488  011DC0  0E01               	movlw	low _numCountdownNowTime
 11489  011DC2  26D9               	addwf	16345,f,c
 11490  011DC4  0E00               	movlw	high _numCountdownNowTime
 11491  011DC6  22DA               	addwfc	16346,f,c
 11492  011DC8  0E06               	movlw	6
 11493  011DCA  18DE               	xorwf	16350,w,c
 11494  011DCC  10DE               	iorwf	16350,w,c
 11495  011DCE  A4D8               	btfss	16344,2,c
 11496  011DD0  D00E               	goto	i2l313
 11497  011DD2  0E01               	movlw	1
 11498  011DD4  243E               	addwf	countdown_now_num2str@i,w,c
 11499  011DD6  6E3C               	movwf	??_countdown_now_num2str& (0+255),c
 11500  011DD8  0E00               	movlw	0
 11501  011DDA  203F               	addwfc	countdown_now_num2str@i+1,w,c
 11502  011DDC  6E3D               	movwf	(??_countdown_now_num2str+1)& (0+255),c
 11503  011DDE  0E68               	movlw	low _strCountdownNowTime
 11504  011DE0  243C               	addwf	??_countdown_now_num2str,w,c
 11505  011DE2  6ED9               	movwf	16345,c
 11506  011DE4  0E00               	movlw	high _strCountdownNowTime
 11507  011DE6  203D               	addwfc	??_countdown_now_num2str+1,w,c
 11508  011DE8  6EDA               	movwf	16346,c
 11509  011DEA  0E36               	movlw	54
 11510  011DEC  6EDF               	movwf	16351,c
 11511  011DEE                     i2l313:
 11512                           
 11513                           ;countdown.c: 122: if(numCountdownNowTime[i]==7){strCountdownNowTime[i+1] = '7';}
 11514  011DEE  90D8               	bcf	16344,0,c
 11515  011DF0  343E               	rlcf	countdown_now_num2str@i,w,c
 11516  011DF2  6ED9               	movwf	16345,c
 11517  011DF4  343F               	rlcf	countdown_now_num2str@i+1,w,c
 11518  011DF6  6EDA               	movwf	16346,c
 11519  011DF8  0E01               	movlw	low _numCountdownNowTime
 11520  011DFA  26D9               	addwf	16345,f,c
 11521  011DFC  0E00               	movlw	high _numCountdownNowTime
 11522  011DFE  22DA               	addwfc	16346,f,c
 11523  011E00  0E07               	movlw	7
 11524  011E02  18DE               	xorwf	16350,w,c
 11525  011E04  10DE               	iorwf	16350,w,c
 11526  011E06  A4D8               	btfss	16344,2,c
 11527  011E08  D00E               	goto	i2l314
 11528  011E0A  0E01               	movlw	1
 11529  011E0C  243E               	addwf	countdown_now_num2str@i,w,c
 11530  011E0E  6E3C               	movwf	??_countdown_now_num2str& (0+255),c
 11531  011E10  0E00               	movlw	0
 11532  011E12  203F               	addwfc	countdown_now_num2str@i+1,w,c
 11533  011E14  6E3D               	movwf	(??_countdown_now_num2str+1)& (0+255),c
 11534  011E16  0E68               	movlw	low _strCountdownNowTime
 11535  011E18  243C               	addwf	??_countdown_now_num2str,w,c
 11536  011E1A  6ED9               	movwf	16345,c
 11537  011E1C  0E00               	movlw	high _strCountdownNowTime
 11538  011E1E  203D               	addwfc	??_countdown_now_num2str+1,w,c
 11539  011E20  6EDA               	movwf	16346,c
 11540  011E22  0E37               	movlw	55
 11541  011E24  6EDF               	movwf	16351,c
 11542  011E26                     i2l314:
 11543                           
 11544                           ;countdown.c: 123: if(numCountdownNowTime[i]==8){strCountdownNowTime[i+1] = '8';}
 11545  011E26  90D8               	bcf	16344,0,c
 11546  011E28  343E               	rlcf	countdown_now_num2str@i,w,c
 11547  011E2A  6ED9               	movwf	16345,c
 11548  011E2C  343F               	rlcf	countdown_now_num2str@i+1,w,c
 11549  011E2E  6EDA               	movwf	16346,c
 11550  011E30  0E01               	movlw	low _numCountdownNowTime
 11551  011E32  26D9               	addwf	16345,f,c
 11552  011E34  0E00               	movlw	high _numCountdownNowTime
 11553  011E36  22DA               	addwfc	16346,f,c
 11554  011E38  0E08               	movlw	8
 11555  011E3A  18DE               	xorwf	16350,w,c
 11556  011E3C  10DE               	iorwf	16350,w,c
 11557  011E3E  A4D8               	btfss	16344,2,c
 11558  011E40  D00E               	goto	i2l315
 11559  011E42  0E01               	movlw	1
 11560  011E44  243E               	addwf	countdown_now_num2str@i,w,c
 11561  011E46  6E3C               	movwf	??_countdown_now_num2str& (0+255),c
 11562  011E48  0E00               	movlw	0
 11563  011E4A  203F               	addwfc	countdown_now_num2str@i+1,w,c
 11564  011E4C  6E3D               	movwf	(??_countdown_now_num2str+1)& (0+255),c
 11565  011E4E  0E68               	movlw	low _strCountdownNowTime
 11566  011E50  243C               	addwf	??_countdown_now_num2str,w,c
 11567  011E52  6ED9               	movwf	16345,c
 11568  011E54  0E00               	movlw	high _strCountdownNowTime
 11569  011E56  203D               	addwfc	??_countdown_now_num2str+1,w,c
 11570  011E58  6EDA               	movwf	16346,c
 11571  011E5A  0E38               	movlw	56
 11572  011E5C  6EDF               	movwf	16351,c
 11573  011E5E                     i2l315:
 11574                           
 11575                           ;countdown.c: 124: if(numCountdownNowTime[i]==9){strCountdownNowTime[i+1] = '9';}
 11576  011E5E  90D8               	bcf	16344,0,c
 11577  011E60  343E               	rlcf	countdown_now_num2str@i,w,c
 11578  011E62  6ED9               	movwf	16345,c
 11579  011E64  343F               	rlcf	countdown_now_num2str@i+1,w,c
 11580  011E66  6EDA               	movwf	16346,c
 11581  011E68  0E01               	movlw	low _numCountdownNowTime
 11582  011E6A  26D9               	addwf	16345,f,c
 11583  011E6C  0E00               	movlw	high _numCountdownNowTime
 11584  011E6E  22DA               	addwfc	16346,f,c
 11585  011E70  0E09               	movlw	9
 11586  011E72  18DE               	xorwf	16350,w,c
 11587  011E74  10DE               	iorwf	16350,w,c
 11588  011E76  A4D8               	btfss	16344,2,c
 11589  011E78  D00E               	goto	i2l316
 11590  011E7A  0E01               	movlw	1
 11591  011E7C  243E               	addwf	countdown_now_num2str@i,w,c
 11592  011E7E  6E3C               	movwf	??_countdown_now_num2str& (0+255),c
 11593  011E80  0E00               	movlw	0
 11594  011E82  203F               	addwfc	countdown_now_num2str@i+1,w,c
 11595  011E84  6E3D               	movwf	(??_countdown_now_num2str+1)& (0+255),c
 11596  011E86  0E68               	movlw	low _strCountdownNowTime
 11597  011E88  243C               	addwf	??_countdown_now_num2str,w,c
 11598  011E8A  6ED9               	movwf	16345,c
 11599  011E8C  0E00               	movlw	high _strCountdownNowTime
 11600  011E8E  203D               	addwfc	??_countdown_now_num2str+1,w,c
 11601  011E90  6EDA               	movwf	16346,c
 11602  011E92  0E39               	movlw	57
 11603  011E94  6EDF               	movwf	16351,c
 11604  011E96                     i2l316:
 11605                           
 11606                           ;countdown.c: 125: };countdown.c: 127: if(i==4||i==5)
 11607  011E96  0E04               	movlw	4
 11608  011E98  183E               	xorwf	countdown_now_num2str@i,w,c
 11609  011E9A  103F               	iorwf	countdown_now_num2str@i+1,w,c
 11610  011E9C  B4D8               	btfsc	16344,2,c
 11611  011E9E  D005               	goto	i2u351_40
 11612  011EA0  0E05               	movlw	5
 11613  011EA2  183E               	xorwf	countdown_now_num2str@i,w,c
 11614  011EA4  103F               	iorwf	countdown_now_num2str@i+1,w,c
 11615  011EA6  A4D8               	btfss	16344,2,c
 11616  011EA8  D116               	goto	i2l329
 11617  011EAA                     i2u351_40:
 11618                           
 11619                           ;countdown.c: 128: {;countdown.c: 129: if(numCountdownNowTime[i]==0){strCountdownNowTime
      +                          [i+2] = '0';}
 11620  011EAA  90D8               	bcf	16344,0,c
 11621  011EAC  343E               	rlcf	countdown_now_num2str@i,w,c
 11622  011EAE  6ED9               	movwf	16345,c
 11623  011EB0  343F               	rlcf	countdown_now_num2str@i+1,w,c
 11624  011EB2  6EDA               	movwf	16346,c
 11625  011EB4  0E01               	movlw	low _numCountdownNowTime
 11626  011EB6  26D9               	addwf	16345,f,c
 11627  011EB8  0E00               	movlw	high _numCountdownNowTime
 11628  011EBA  22DA               	addwfc	16346,f,c
 11629  011EBC  50DE               	movf	16350,w,c
 11630  011EBE  10DE               	iorwf	16350,w,c
 11631  011EC0  A4D8               	btfss	16344,2,c
 11632  011EC2  D00E               	goto	i2l320
 11633  011EC4  0E02               	movlw	2
 11634  011EC6  243E               	addwf	countdown_now_num2str@i,w,c
 11635  011EC8  6E3C               	movwf	??_countdown_now_num2str& (0+255),c
 11636  011ECA  0E00               	movlw	0
 11637  011ECC  203F               	addwfc	countdown_now_num2str@i+1,w,c
 11638  011ECE  6E3D               	movwf	(??_countdown_now_num2str+1)& (0+255),c
 11639  011ED0  0E68               	movlw	low _strCountdownNowTime
 11640  011ED2  243C               	addwf	??_countdown_now_num2str,w,c
 11641  011ED4  6ED9               	movwf	16345,c
 11642  011ED6  0E00               	movlw	high _strCountdownNowTime
 11643  011ED8  203D               	addwfc	??_countdown_now_num2str+1,w,c
 11644  011EDA  6EDA               	movwf	16346,c
 11645  011EDC  0E30               	movlw	48
 11646  011EDE  6EDF               	movwf	16351,c
 11647  011EE0                     i2l320:
 11648                           
 11649                           ;countdown.c: 130: if(numCountdownNowTime[i]==1){strCountdownNowTime[i+2] = '1';}
 11650  011EE0  90D8               	bcf	16344,0,c
 11651  011EE2  343E               	rlcf	countdown_now_num2str@i,w,c
 11652  011EE4  6ED9               	movwf	16345,c
 11653  011EE6  343F               	rlcf	countdown_now_num2str@i+1,w,c
 11654  011EE8  6EDA               	movwf	16346,c
 11655  011EEA  0E01               	movlw	low _numCountdownNowTime
 11656  011EEC  26D9               	addwf	16345,f,c
 11657  011EEE  0E00               	movlw	high _numCountdownNowTime
 11658  011EF0  22DA               	addwfc	16346,f,c
 11659  011EF2  04DE               	decf	16350,w,c
 11660  011EF4  10DE               	iorwf	16350,w,c
 11661  011EF6  A4D8               	btfss	16344,2,c
 11662  011EF8  D00E               	goto	i2l321
 11663  011EFA  0E02               	movlw	2
 11664  011EFC  243E               	addwf	countdown_now_num2str@i,w,c
 11665  011EFE  6E3C               	movwf	??_countdown_now_num2str& (0+255),c
 11666  011F00  0E00               	movlw	0
 11667  011F02  203F               	addwfc	countdown_now_num2str@i+1,w,c
 11668  011F04  6E3D               	movwf	(??_countdown_now_num2str+1)& (0+255),c
 11669  011F06  0E68               	movlw	low _strCountdownNowTime
 11670  011F08  243C               	addwf	??_countdown_now_num2str,w,c
 11671  011F0A  6ED9               	movwf	16345,c
 11672  011F0C  0E00               	movlw	high _strCountdownNowTime
 11673  011F0E  203D               	addwfc	??_countdown_now_num2str+1,w,c
 11674  011F10  6EDA               	movwf	16346,c
 11675  011F12  0E31               	movlw	49
 11676  011F14  6EDF               	movwf	16351,c
 11677  011F16                     i2l321:
 11678                           
 11679                           ;countdown.c: 131: if(numCountdownNowTime[i]==2){strCountdownNowTime[i+2] = '2';}
 11680  011F16  90D8               	bcf	16344,0,c
 11681  011F18  343E               	rlcf	countdown_now_num2str@i,w,c
 11682  011F1A  6ED9               	movwf	16345,c
 11683  011F1C  343F               	rlcf	countdown_now_num2str@i+1,w,c
 11684  011F1E  6EDA               	movwf	16346,c
 11685  011F20  0E01               	movlw	low _numCountdownNowTime
 11686  011F22  26D9               	addwf	16345,f,c
 11687  011F24  0E00               	movlw	high _numCountdownNowTime
 11688  011F26  22DA               	addwfc	16346,f,c
 11689  011F28  0E02               	movlw	2
 11690  011F2A  18DE               	xorwf	16350,w,c
 11691  011F2C  10DE               	iorwf	16350,w,c
 11692  011F2E  A4D8               	btfss	16344,2,c
 11693  011F30  D00E               	goto	i2l322
 11694  011F32  0E02               	movlw	2
 11695  011F34  243E               	addwf	countdown_now_num2str@i,w,c
 11696  011F36  6E3C               	movwf	??_countdown_now_num2str& (0+255),c
 11697  011F38  0E00               	movlw	0
 11698  011F3A  203F               	addwfc	countdown_now_num2str@i+1,w,c
 11699  011F3C  6E3D               	movwf	(??_countdown_now_num2str+1)& (0+255),c
 11700  011F3E  0E68               	movlw	low _strCountdownNowTime
 11701  011F40  243C               	addwf	??_countdown_now_num2str,w,c
 11702  011F42  6ED9               	movwf	16345,c
 11703  011F44  0E00               	movlw	high _strCountdownNowTime
 11704  011F46  203D               	addwfc	??_countdown_now_num2str+1,w,c
 11705  011F48  6EDA               	movwf	16346,c
 11706  011F4A  0E32               	movlw	50
 11707  011F4C  6EDF               	movwf	16351,c
 11708  011F4E                     i2l322:
 11709                           
 11710                           ;countdown.c: 132: if(numCountdownNowTime[i]==3){strCountdownNowTime[i+2] = '3';}
 11711  011F4E  90D8               	bcf	16344,0,c
 11712  011F50  343E               	rlcf	countdown_now_num2str@i,w,c
 11713  011F52  6ED9               	movwf	16345,c
 11714  011F54  343F               	rlcf	countdown_now_num2str@i+1,w,c
 11715  011F56  6EDA               	movwf	16346,c
 11716  011F58  0E01               	movlw	low _numCountdownNowTime
 11717  011F5A  26D9               	addwf	16345,f,c
 11718  011F5C  0E00               	movlw	high _numCountdownNowTime
 11719  011F5E  22DA               	addwfc	16346,f,c
 11720  011F60  0E03               	movlw	3
 11721  011F62  18DE               	xorwf	16350,w,c
 11722  011F64  10DE               	iorwf	16350,w,c
 11723  011F66  A4D8               	btfss	16344,2,c
 11724  011F68  D00E               	goto	i2l323
 11725  011F6A  0E02               	movlw	2
 11726  011F6C  243E               	addwf	countdown_now_num2str@i,w,c
 11727  011F6E  6E3C               	movwf	??_countdown_now_num2str& (0+255),c
 11728  011F70  0E00               	movlw	0
 11729  011F72  203F               	addwfc	countdown_now_num2str@i+1,w,c
 11730  011F74  6E3D               	movwf	(??_countdown_now_num2str+1)& (0+255),c
 11731  011F76  0E68               	movlw	low _strCountdownNowTime
 11732  011F78  243C               	addwf	??_countdown_now_num2str,w,c
 11733  011F7A  6ED9               	movwf	16345,c
 11734  011F7C  0E00               	movlw	high _strCountdownNowTime
 11735  011F7E  203D               	addwfc	??_countdown_now_num2str+1,w,c
 11736  011F80  6EDA               	movwf	16346,c
 11737  011F82  0E33               	movlw	51
 11738  011F84  6EDF               	movwf	16351,c
 11739  011F86                     i2l323:
 11740                           
 11741                           ;countdown.c: 133: if(numCountdownNowTime[i]==4){strCountdownNowTime[i+2] = '4';}
 11742  011F86  90D8               	bcf	16344,0,c
 11743  011F88  343E               	rlcf	countdown_now_num2str@i,w,c
 11744  011F8A  6ED9               	movwf	16345,c
 11745  011F8C  343F               	rlcf	countdown_now_num2str@i+1,w,c
 11746  011F8E  6EDA               	movwf	16346,c
 11747  011F90  0E01               	movlw	low _numCountdownNowTime
 11748  011F92  26D9               	addwf	16345,f,c
 11749  011F94  0E00               	movlw	high _numCountdownNowTime
 11750  011F96  22DA               	addwfc	16346,f,c
 11751  011F98  0E04               	movlw	4
 11752  011F9A  18DE               	xorwf	16350,w,c
 11753  011F9C  10DE               	iorwf	16350,w,c
 11754  011F9E  A4D8               	btfss	16344,2,c
 11755  011FA0  D00E               	goto	i2l324
 11756  011FA2  0E02               	movlw	2
 11757  011FA4  243E               	addwf	countdown_now_num2str@i,w,c
 11758  011FA6  6E3C               	movwf	??_countdown_now_num2str& (0+255),c
 11759  011FA8  0E00               	movlw	0
 11760  011FAA  203F               	addwfc	countdown_now_num2str@i+1,w,c
 11761  011FAC  6E3D               	movwf	(??_countdown_now_num2str+1)& (0+255),c
 11762  011FAE  0E68               	movlw	low _strCountdownNowTime
 11763  011FB0  243C               	addwf	??_countdown_now_num2str,w,c
 11764  011FB2  6ED9               	movwf	16345,c
 11765  011FB4  0E00               	movlw	high _strCountdownNowTime
 11766  011FB6  203D               	addwfc	??_countdown_now_num2str+1,w,c
 11767  011FB8  6EDA               	movwf	16346,c
 11768  011FBA  0E34               	movlw	52
 11769  011FBC  6EDF               	movwf	16351,c
 11770  011FBE                     i2l324:
 11771                           
 11772                           ;countdown.c: 134: if(numCountdownNowTime[i]==5){strCountdownNowTime[i+2] = '5';}
 11773  011FBE  90D8               	bcf	16344,0,c
 11774  011FC0  343E               	rlcf	countdown_now_num2str@i,w,c
 11775  011FC2  6ED9               	movwf	16345,c
 11776  011FC4  343F               	rlcf	countdown_now_num2str@i+1,w,c
 11777  011FC6  6EDA               	movwf	16346,c
 11778  011FC8  0E01               	movlw	low _numCountdownNowTime
 11779  011FCA  26D9               	addwf	16345,f,c
 11780  011FCC  0E00               	movlw	high _numCountdownNowTime
 11781  011FCE  22DA               	addwfc	16346,f,c
 11782  011FD0  0E05               	movlw	5
 11783  011FD2  18DE               	xorwf	16350,w,c
 11784  011FD4  10DE               	iorwf	16350,w,c
 11785  011FD6  A4D8               	btfss	16344,2,c
 11786  011FD8  D00E               	goto	i2l325
 11787  011FDA  0E02               	movlw	2
 11788  011FDC  243E               	addwf	countdown_now_num2str@i,w,c
 11789  011FDE  6E3C               	movwf	??_countdown_now_num2str& (0+255),c
 11790  011FE0  0E00               	movlw	0
 11791  011FE2  203F               	addwfc	countdown_now_num2str@i+1,w,c
 11792  011FE4  6E3D               	movwf	(??_countdown_now_num2str+1)& (0+255),c
 11793  011FE6  0E68               	movlw	low _strCountdownNowTime
 11794  011FE8  243C               	addwf	??_countdown_now_num2str,w,c
 11795  011FEA  6ED9               	movwf	16345,c
 11796  011FEC  0E00               	movlw	high _strCountdownNowTime
 11797  011FEE  203D               	addwfc	??_countdown_now_num2str+1,w,c
 11798  011FF0  6EDA               	movwf	16346,c
 11799  011FF2  0E35               	movlw	53
 11800  011FF4  6EDF               	movwf	16351,c
 11801  011FF6                     i2l325:
 11802                           
 11803                           ;countdown.c: 135: if(numCountdownNowTime[i]==6){strCountdownNowTime[i+2] = '6';}
 11804  011FF6  90D8               	bcf	16344,0,c
 11805  011FF8  343E               	rlcf	countdown_now_num2str@i,w,c
 11806  011FFA  6ED9               	movwf	16345,c
 11807  011FFC  343F               	rlcf	countdown_now_num2str@i+1,w,c
 11808  011FFE  6EDA               	movwf	16346,c
 11809  012000  0E01               	movlw	low _numCountdownNowTime
 11810  012002  26D9               	addwf	16345,f,c
 11811  012004  0E00               	movlw	high _numCountdownNowTime
 11812  012006  22DA               	addwfc	16346,f,c
 11813  012008  0E06               	movlw	6
 11814  01200A  18DE               	xorwf	16350,w,c
 11815  01200C  10DE               	iorwf	16350,w,c
 11816  01200E  A4D8               	btfss	16344,2,c
 11817  012010  D00E               	goto	i2l326
 11818  012012  0E02               	movlw	2
 11819  012014  243E               	addwf	countdown_now_num2str@i,w,c
 11820  012016  6E3C               	movwf	??_countdown_now_num2str& (0+255),c
 11821  012018  0E00               	movlw	0
 11822  01201A  203F               	addwfc	countdown_now_num2str@i+1,w,c
 11823  01201C  6E3D               	movwf	(??_countdown_now_num2str+1)& (0+255),c
 11824  01201E  0E68               	movlw	low _strCountdownNowTime
 11825  012020  243C               	addwf	??_countdown_now_num2str,w,c
 11826  012022  6ED9               	movwf	16345,c
 11827  012024  0E00               	movlw	high _strCountdownNowTime
 11828  012026  203D               	addwfc	??_countdown_now_num2str+1,w,c
 11829  012028  6EDA               	movwf	16346,c
 11830  01202A  0E36               	movlw	54
 11831  01202C  6EDF               	movwf	16351,c
 11832  01202E                     i2l326:
 11833                           
 11834                           ;countdown.c: 136: if(numCountdownNowTime[i]==7){strCountdownNowTime[i+2] = '7';}
 11835  01202E  90D8               	bcf	16344,0,c
 11836  012030  343E               	rlcf	countdown_now_num2str@i,w,c
 11837  012032  6ED9               	movwf	16345,c
 11838  012034  343F               	rlcf	countdown_now_num2str@i+1,w,c
 11839  012036  6EDA               	movwf	16346,c
 11840  012038  0E01               	movlw	low _numCountdownNowTime
 11841  01203A  26D9               	addwf	16345,f,c
 11842  01203C  0E00               	movlw	high _numCountdownNowTime
 11843  01203E  22DA               	addwfc	16346,f,c
 11844  012040  0E07               	movlw	7
 11845  012042  18DE               	xorwf	16350,w,c
 11846  012044  10DE               	iorwf	16350,w,c
 11847  012046  A4D8               	btfss	16344,2,c
 11848  012048  D00E               	goto	i2l327
 11849  01204A  0E02               	movlw	2
 11850  01204C  243E               	addwf	countdown_now_num2str@i,w,c
 11851  01204E  6E3C               	movwf	??_countdown_now_num2str& (0+255),c
 11852  012050  0E00               	movlw	0
 11853  012052  203F               	addwfc	countdown_now_num2str@i+1,w,c
 11854  012054  6E3D               	movwf	(??_countdown_now_num2str+1)& (0+255),c
 11855  012056  0E68               	movlw	low _strCountdownNowTime
 11856  012058  243C               	addwf	??_countdown_now_num2str,w,c
 11857  01205A  6ED9               	movwf	16345,c
 11858  01205C  0E00               	movlw	high _strCountdownNowTime
 11859  01205E  203D               	addwfc	??_countdown_now_num2str+1,w,c
 11860  012060  6EDA               	movwf	16346,c
 11861  012062  0E37               	movlw	55
 11862  012064  6EDF               	movwf	16351,c
 11863  012066                     i2l327:
 11864                           
 11865                           ;countdown.c: 137: if(numCountdownNowTime[i]==8){strCountdownNowTime[i+2] = '8';}
 11866  012066  90D8               	bcf	16344,0,c
 11867  012068  343E               	rlcf	countdown_now_num2str@i,w,c
 11868  01206A  6ED9               	movwf	16345,c
 11869  01206C  343F               	rlcf	countdown_now_num2str@i+1,w,c
 11870  01206E  6EDA               	movwf	16346,c
 11871  012070  0E01               	movlw	low _numCountdownNowTime
 11872  012072  26D9               	addwf	16345,f,c
 11873  012074  0E00               	movlw	high _numCountdownNowTime
 11874  012076  22DA               	addwfc	16346,f,c
 11875  012078  0E08               	movlw	8
 11876  01207A  18DE               	xorwf	16350,w,c
 11877  01207C  10DE               	iorwf	16350,w,c
 11878  01207E  A4D8               	btfss	16344,2,c
 11879  012080  D00E               	goto	i2l328
 11880  012082  0E02               	movlw	2
 11881  012084  243E               	addwf	countdown_now_num2str@i,w,c
 11882  012086  6E3C               	movwf	??_countdown_now_num2str& (0+255),c
 11883  012088  0E00               	movlw	0
 11884  01208A  203F               	addwfc	countdown_now_num2str@i+1,w,c
 11885  01208C  6E3D               	movwf	(??_countdown_now_num2str+1)& (0+255),c
 11886  01208E  0E68               	movlw	low _strCountdownNowTime
 11887  012090  243C               	addwf	??_countdown_now_num2str,w,c
 11888  012092  6ED9               	movwf	16345,c
 11889  012094  0E00               	movlw	high _strCountdownNowTime
 11890  012096  203D               	addwfc	??_countdown_now_num2str+1,w,c
 11891  012098  6EDA               	movwf	16346,c
 11892  01209A  0E38               	movlw	56
 11893  01209C  6EDF               	movwf	16351,c
 11894  01209E                     i2l328:
 11895                           
 11896                           ;countdown.c: 138: if(numCountdownNowTime[i]==9){strCountdownNowTime[i+2] = '9';}
 11897  01209E  90D8               	bcf	16344,0,c
 11898  0120A0  343E               	rlcf	countdown_now_num2str@i,w,c
 11899  0120A2  6ED9               	movwf	16345,c
 11900  0120A4  343F               	rlcf	countdown_now_num2str@i+1,w,c
 11901  0120A6  6EDA               	movwf	16346,c
 11902  0120A8  0E01               	movlw	low _numCountdownNowTime
 11903  0120AA  26D9               	addwf	16345,f,c
 11904  0120AC  0E00               	movlw	high _numCountdownNowTime
 11905  0120AE  22DA               	addwfc	16346,f,c
 11906  0120B0  0E09               	movlw	9
 11907  0120B2  18DE               	xorwf	16350,w,c
 11908  0120B4  10DE               	iorwf	16350,w,c
 11909  0120B6  A4D8               	btfss	16344,2,c
 11910  0120B8  D00E               	goto	i2l329
 11911  0120BA  0E02               	movlw	2
 11912  0120BC  243E               	addwf	countdown_now_num2str@i,w,c
 11913  0120BE  6E3C               	movwf	??_countdown_now_num2str& (0+255),c
 11914  0120C0  0E00               	movlw	0
 11915  0120C2  203F               	addwfc	countdown_now_num2str@i+1,w,c
 11916  0120C4  6E3D               	movwf	(??_countdown_now_num2str+1)& (0+255),c
 11917  0120C6  0E68               	movlw	low _strCountdownNowTime
 11918  0120C8  243C               	addwf	??_countdown_now_num2str,w,c
 11919  0120CA  6ED9               	movwf	16345,c
 11920  0120CC  0E00               	movlw	high _strCountdownNowTime
 11921  0120CE  203D               	addwfc	??_countdown_now_num2str+1,w,c
 11922  0120D0  6EDA               	movwf	16346,c
 11923  0120D2  0E39               	movlw	57
 11924  0120D4  6EDF               	movwf	16351,c
 11925  0120D6                     i2l329:
 11926  0120D6  4A3E               	infsnz	countdown_now_num2str@i,f,c
 11927  0120D8  2A3F               	incf	countdown_now_num2str@i+1,f,c
 11928  0120DA  BE3F               	btfsc	countdown_now_num2str@i+1,7,c
 11929  0120DC  D4DA               	goto	i2l289
 11930  0120DE  503F               	movf	countdown_now_num2str@i+1,w,c
 11931  0120E0  E101               	bnz	i2l330
 11932  0120E2  D4D1               	goto	L17
 11933  0120E4                     i2l330:
 11934  0120E4  0012               	return		;funcret
 11935  0120E6                     __end_of_countdown_now_num2str:
 11936                           	opt stack 0
 11937                           
 11938                           ;
 11939                           ; Interrupt Vector Table @ 0x8
 11940                           ;
 11941                           
 11942                           	psect	ivt0x8
 11943  000008                     __pivt0x8:
 11944                           	opt stack 0
 11945  000008                     ivt0x8_base:
 11946                           	opt stack 0
 11947                           
 11948                           ; high-priority vector
 11949  000008  EFE1  F092         	goto	_ISR
 11950  000018                     	org	16
 11951                           
 11952                           ; low-priority vector
 11953  000018  00FF               	reset	
 11954                           
 11955                           	psect	rparam


Data Sizes:
    Strings     301
    Constant    0
    Data        63
    BSS         38
    Persistent  0
    Stack       0

Auto Spaces:
    Space          Size  Autos    Used
    COMRAM           95     23      82
    BANK0           160     17      59
    BANK1           256      0       0
    BANK2           256      0       0
    BANK3           256      0       0
    BANK4           256      0       0
    BANK5           256      0       0
    BANK6           256      0       0
    BANK7           256      0       0
    BANK8           256      0       0
    BANK9           256      0       0
    BANK10          256      0       0
    BANK11          256      0       0
    BANK12          256      0       0
    BANK13          256      0       0
    BANK14          256      0       0
    BANK15          256      0       0
    BANK16          256      0       0
    BANK17          256      0       0
    BANK18          256      0       0
    BANK19          256      0       0
    BANK20          256      0       0
    BANK21          256      0       0
    BANK22          256      0       0
    BANK23          256      0       0
    BANK24          256      0       0
    BANK25          256      0       0
    BANK26          256      0       0
    BANK27          256      0       0
    BANK28          256      0       0
    BANK29          256      0       0
    BANK30          256      0       0
    BANK31          256      0       0

Pointer List with Targets:

    strlen@s	PTR const unsigned char  size(2) Largest target is 8
		 -> userPswdEntry(BANK0[8]), 

    strlen@cp	PTR const unsigned char  size(2) Largest target is 8
		 -> userPswdEntry(BANK0[8]), 

    strcmp@s2	PTR const unsigned char  size(2) Largest target is 8
		 -> password(BANK0[8]), 

    strcmp@s1	PTR const unsigned char  size(2) Largest target is 8
		 -> userPswdEntry(BANK0[8]), 

    verifyPassword@pass	PTR unsigned char  size(2) Largest target is 8
		 -> password(BANK0[8]), 

    verifyPassword@user	PTR unsigned char  size(2) Largest target is 8
		 -> userPswdEntry(BANK0[8]), 

    resetEntry@str	PTR unsigned char  size(2) Largest target is 8
		 -> userPswdEntry(BANK0[8]), 

    LCD_Write_String@f	PTR unsigned char  size(2) Largest target is 17
		 -> STR_35(CODE[17]), STR_34(CODE[17]), STR_33(CODE[17]), STR_32(CODE[17]), 
		 -> STR_31(CODE[17]), STR_30(CODE[17]), STR_29(CODE[17]), STR_28(CODE[17]), 
		 -> STR_27(CODE[17]), STR_26(CODE[17]), STR_25(CODE[17]), STR_24(CODE[17]), 
		 -> STR_23(CODE[17]), STR_22(CODE[17]), STR_21(CODE[17]), STR_20(CODE[17]), 
		 -> STR_19(CODE[17]), STR_18(CODE[17]), STR_17(CODE[17]), STR_16(CODE[13]), 
		 -> STR_15(CODE[17]), STR_14(CODE[17]), STR_13(CODE[7]), STR_12(CODE[9]), 
		 -> STR_11(CODE[7]), STR_10(CODE[9]), STR_9(CODE[17]), STR_8(CODE[9]), 
		 -> STR_7(CODE[9]), STR_6(CODE[17]), STR_5(CODE[9]), STR_4(CODE[9]), 
		 -> STR_3(CODE[17]), STR_2(CODE[17]), STR_1(CODE[7]), 


Critical Paths under _main in COMRAM

    _main->_LCD_printAccepted
    _main->_LCD_printDeclined
    _verifyPassword->_strcmp
    _LCD_Cursor_Blink_On->_LCD_Cmd
    _stanbyPageReset->_resetEntry
    _setup->_LCD_Initialize
    _LCD_Initialize->_LCD_Clear
    _LCD_Initialize->_LCD_Cmd
    _keypadRead->_keypadScan
    _disarmedPageReset->_resetEntry
    _LCD_printNowCountdown->_LCD_Set_Cursor
    _armedPageReset->_resetEntry
    _resetEntry->_strlen
    _LCD_resetPasswordEntry->_LCD_Write_String
    _LCD_printInitialCountdown->_LCD_Set_Cursor
    _LCD_printDeclined->_LCD_Write_String
    _LCD_printAccepted->_LCD_Write_String
    _LCD_Write_String->_LCD_Write_Char
    _LCD_Set_Cursor->_LCD_Cmd
    _LCD_Cursor_Blink_Off->_LCD_Cmd
    _LCD_Cursor_Right->_LCD_Cmd
    _LCD_Cursor_Left->_LCD_Cmd

Critical Paths under _ISR in COMRAM

    i2_LCD_Write_String->i2_LCD_Write_Char
    _countdown_drop_timer->i2_LCD_printNowCountdown
    i2_LCD_printNowCountdown->i2_LCD_Set_Cursor
    i2_LCD_Set_Cursor->i2_LCD_Cmd

Critical Paths under _main in BANK0

    _main->_keypadRead

Critical Paths under _ISR in BANK0

    None.

Critical Paths under _main in BANK1

    None.

Critical Paths under _ISR in BANK1

    None.

Critical Paths under _main in BANK2

    None.

Critical Paths under _ISR in BANK2

    None.

Critical Paths under _main in BANK3

    None.

Critical Paths under _ISR in BANK3

    None.

Critical Paths under _main in BANK4

    None.

Critical Paths under _ISR in BANK4

    None.

Critical Paths under _main in BANK5

    None.

Critical Paths under _ISR in BANK5

    None.

Critical Paths under _main in BANK6

    None.

Critical Paths under _ISR in BANK6

    None.

Critical Paths under _main in BANK7

    None.

Critical Paths under _ISR in BANK7

    None.

Critical Paths under _main in BANK8

    None.

Critical Paths under _ISR in BANK8

    None.

Critical Paths under _main in BANK9

    None.

Critical Paths under _ISR in BANK9

    None.

Critical Paths under _main in BANK10

    None.

Critical Paths under _ISR in BANK10

    None.

Critical Paths under _main in BANK11

    None.

Critical Paths under _ISR in BANK11

    None.

Critical Paths under _main in BANK12

    None.

Critical Paths under _ISR in BANK12

    None.

Critical Paths under _main in BANK13

    None.

Critical Paths under _ISR in BANK13

    None.

Critical Paths under _main in BANK14

    None.

Critical Paths under _ISR in BANK14

    None.

Critical Paths under _main in BANK15

    None.

Critical Paths under _ISR in BANK15

    None.

Critical Paths under _main in BANK16

    None.

Critical Paths under _ISR in BANK16

    None.

Critical Paths under _main in BANK17

    None.

Critical Paths under _ISR in BANK17

    None.

Critical Paths under _main in BANK18

    None.

Critical Paths under _ISR in BANK18

    None.

Critical Paths under _main in BANK19

    None.

Critical Paths under _ISR in BANK19

    None.

Critical Paths under _main in BANK20

    None.

Critical Paths under _ISR in BANK20

    None.

Critical Paths under _main in BANK21

    None.

Critical Paths under _ISR in BANK21

    None.

Critical Paths under _main in BANK22

    None.

Critical Paths under _ISR in BANK22

    None.

Critical Paths under _main in BANK23

    None.

Critical Paths under _ISR in BANK23

    None.

Critical Paths under _main in BANK24

    None.

Critical Paths under _ISR in BANK24

    None.

Critical Paths under _main in BANK25

    None.

Critical Paths under _ISR in BANK25

    None.

Critical Paths under _main in BANK26

    None.

Critical Paths under _ISR in BANK26

    None.

Critical Paths under _main in BANK27

    None.

Critical Paths under _ISR in BANK27

    None.

Critical Paths under _main in BANK28

    None.

Critical Paths under _ISR in BANK28

    None.

Critical Paths under _main in BANK29

    None.

Critical Paths under _ISR in BANK29

    None.

Critical Paths under _main in BANK30

    None.

Critical Paths under _ISR in BANK30

    None.

Critical Paths under _main in BANK31

    None.

Critical Paths under _ISR in BANK31

    None.

Call Graph Tables:

 ---------------------------------------------------------------------------------
 (Depth) Function   	        Calls       Base Space   Used Autos Params    Refs
 ---------------------------------------------------------------------------------
 (0) _main                                                 8     8      0  149519
                                              9 BANK0      8     8      0
               _LCD_Cursor_Blink_Off
                _LCD_Cursor_Blink_On
                    _LCD_Cursor_Left
                   _LCD_Cursor_Right
                     _LCD_Set_Cursor
                     _LCD_Write_Char
                   _LCD_Write_String
                  _LCD_printAccepted
                  _LCD_printDeclined
          _LCD_printInitialCountdown
              _LCD_printNowCountdown
             _LCD_resetPasswordEntry
                            _armBeep
                     _armedPageReset
                     _countdownStart
                      _countdownStop
          _countdown_initial_str2num
     _countdown_now_reset_to_initial
                         _disarmBeep
                  _disarmedPageReset
                         _keypadRead
                         _resetEntry
                 _resetPasswordEntry
                         _serialSend
                              _setup
                    _stanbyPageReset
             _verifyInterfaceOptions
                     _verifyPassword
 ---------------------------------------------------------------------------------
 (1) _verifyPassword                                       4     0      4    1095
                                             18 COMRAM     4     0      4
                             _strcmp
 ---------------------------------------------------------------------------------
 (2) _strcmp                                               6     2      4     313
                                             12 COMRAM     6     2      4
 ---------------------------------------------------------------------------------
 (1) _verifyInterfaceOptions                               0     0      0      62
               _LCD_Cursor_Blink_Off
                _LCD_Cursor_Blink_On
 ---------------------------------------------------------------------------------
 (2) _LCD_Cursor_Blink_On                                  0     0      0      31
                            _LCD_Cmd
 ---------------------------------------------------------------------------------
 (1) _stanbyPageReset                                      0     0      0   30462
                          _LCD_Clear
                     _LCD_Set_Cursor
                   _LCD_Write_String
              _LCD_printNowCountdown
             _LCD_resetPasswordEntry
                         _resetEntry
 ---------------------------------------------------------------------------------
 (1) _setup                                                0     0      0      62
                  _BEEPER_Initialize
               _COUNTDOWN_Initialize
                  _KEYPAD_Initialize
                     _LCD_Initialize
                  _SYSTEM_Initialize
                   _UART1_Initialize
                         _serialSend
 ---------------------------------------------------------------------------------
 (2) _serialSend                                           1     1      0      31
                                             12 COMRAM     1     1      0
 ---------------------------------------------------------------------------------
 (2) _UART1_Initialize                                     0     0      0       0
 ---------------------------------------------------------------------------------
 (2) _SYSTEM_Initialize                                    0     0      0       0
             _ADC_MANAGER_Initialize
           _CONFIGURATION_Initialize
               _INTERRUPT_Initialize
              _OSCILLATOR_Initialize
             _PIN_MANAGER_Initialize
                     _PMD_Initialize
 ---------------------------------------------------------------------------------
 (3) _PMD_Initialize                                       0     0      0       0
 ---------------------------------------------------------------------------------
 (3) _PIN_MANAGER_Initialize                               0     0      0       0
 ---------------------------------------------------------------------------------
 (3) _OSCILLATOR_Initialize                                0     0      0       0
 ---------------------------------------------------------------------------------
 (3) _INTERRUPT_Initialize                                 0     0      0       0
 ---------------------------------------------------------------------------------
 (3) _CONFIGURATION_Initialize                             0     0      0       0
 ---------------------------------------------------------------------------------
 (3) _ADC_MANAGER_Initialize                               0     0      0       0
 ---------------------------------------------------------------------------------
 (2) _LCD_Initialize                                       1     1      0      31
                                             13 COMRAM     1     1      0
                          _LCD_Clear
                            _LCD_Cmd
 ---------------------------------------------------------------------------------
 (2) _KEYPAD_Initialize                                    0     0      0       0
 ---------------------------------------------------------------------------------
 (2) _COUNTDOWN_Initialize                                 0     0      0       0
 ---------------------------------------------------------------------------------
 (2) _BEEPER_Initialize                                    0     0      0       0
 ---------------------------------------------------------------------------------
 (1) _resetPasswordEntry                                   2     2      0      99
                                             12 COMRAM     2     2      0
 ---------------------------------------------------------------------------------
 (1) _keypadRead                                          13    11      2     386
                                             15 COMRAM     4     2      2
                                              0 BANK0      9     9      0
                         _keypadScan
                         _normalBeep
                        _normalBlink
                          _quickBeep
                         _quickBlink
 ---------------------------------------------------------------------------------
 (2) _quickBlink                                           0     0      0       0
 ---------------------------------------------------------------------------------
 (2) _quickBeep                                            0     0      0       0
 ---------------------------------------------------------------------------------
 (2) _normalBlink                                          0     0      0       0
 ---------------------------------------------------------------------------------
 (2) _normalBeep                                           0     0      0       0
 ---------------------------------------------------------------------------------
 (2) _keypadScan                                           3     1      2       0
                                             12 COMRAM     3     1      2
 ---------------------------------------------------------------------------------
 (1) _disarmedPageReset                                    0     0      0   30462
                          _LCD_Clear
                     _LCD_Set_Cursor
                   _LCD_Write_String
              _LCD_printNowCountdown
             _LCD_resetPasswordEntry
                         _resetEntry
 ---------------------------------------------------------------------------------
 (2) _LCD_printNowCountdown                                2     2      0    7804
                                             18 COMRAM     2     2      0
                     _LCD_Set_Cursor
                     _LCD_Write_Char
 ---------------------------------------------------------------------------------
 (2) _LCD_Clear                                            1     1      0       0
                                             12 COMRAM     1     1      0
 ---------------------------------------------------------------------------------
 (1) _disarmBeep                                           2     2      0       0
                                             12 COMRAM     2     2      0
                        _veryLowBeep
 ---------------------------------------------------------------------------------
 (1) _countdown_now_reset_to_initial                       6     6      0     471
                                             12 COMRAM     6     6      0
 ---------------------------------------------------------------------------------
 (1) _countdown_initial_str2num                            6     6      0    2114
                                             12 COMRAM     6     6      0
 ---------------------------------------------------------------------------------
 (1) _countdownStop                                        0     0      0       0
 ---------------------------------------------------------------------------------
 (1) _countdownStart                                       0     0      0       0
 ---------------------------------------------------------------------------------
 (1) _armedPageReset                                       0     0      0   22658
                     _LCD_Set_Cursor
                   _LCD_Write_String
             _LCD_resetPasswordEntry
                         _resetEntry
 ---------------------------------------------------------------------------------
 (2) _resetEntry                                           4     2      2     890
                                             18 COMRAM     4     2      2
                             _strlen
 ---------------------------------------------------------------------------------
 (3) _strlen                                               6     4      2     310
                                             12 COMRAM     6     4      2
 ---------------------------------------------------------------------------------
 (2) _LCD_resetPasswordEntry                               0     0      0   10884
                     _LCD_Set_Cursor
                   _LCD_Write_String
 ---------------------------------------------------------------------------------
 (1) _armBeep                                              2     2      0       0
                                             12 COMRAM     2     2      0
                        _veryLowBeep
 ---------------------------------------------------------------------------------
 (2) _veryLowBeep                                          0     0      0       0
 ---------------------------------------------------------------------------------
 (1) _LCD_printInitialCountdown                            2     2      0    7804
                                             18 COMRAM     2     2      0
                     _LCD_Set_Cursor
                     _LCD_Write_Char
 ---------------------------------------------------------------------------------
 (1) _LCD_printDeclined                                    4     4      0   10983
                                             19 COMRAM     4     4      0
               _LCD_Cursor_Blink_Off
                     _LCD_Set_Cursor
                   _LCD_Write_String
                        _longLowBeep
 ---------------------------------------------------------------------------------
 (1) _LCD_printAccepted                                    4     4      0   10983
                                             19 COMRAM     4     4      0
               _LCD_Cursor_Blink_Off
                     _LCD_Set_Cursor
                   _LCD_Write_String
                        _longLowBeep
 ---------------------------------------------------------------------------------
 (2) _longLowBeep                                          0     0      0       0
 ---------------------------------------------------------------------------------
 (3) _LCD_Write_String                                     6     4      2    3241
                                             13 COMRAM     6     4      2
                     _LCD_Write_Char
 ---------------------------------------------------------------------------------
 (4) _LCD_Write_Char                                       1     1      0      31
                                             12 COMRAM     1     1      0
 ---------------------------------------------------------------------------------
 (3) _LCD_Set_Cursor                                       5     1      4    7643
                                             13 COMRAM     5     1      4
                            _LCD_Cmd
 ---------------------------------------------------------------------------------
 (2) _LCD_Cursor_Blink_Off                                 0     0      0      31
                            _LCD_Cmd
 ---------------------------------------------------------------------------------
 (1) _LCD_Cursor_Right                                     0     0      0      31
                            _LCD_Cmd
 ---------------------------------------------------------------------------------
 (1) _LCD_Cursor_Left                                      0     0      0      31
                            _LCD_Cmd
 ---------------------------------------------------------------------------------
 (3) _LCD_Cmd                                              1     1      0      31
                                             12 COMRAM     1     1      0
 ---------------------------------------------------------------------------------
 Estimated maximum stack depth 4
 ---------------------------------------------------------------------------------
 (Depth) Function   	        Calls       Base Space   Used Autos Params    Refs
 ---------------------------------------------------------------------------------
 (5) _ISR                                                  4     4      0    2490
                                              8 COMRAM     4     4      0
               _countdown_drop_timer
                   i2_LCD_Set_Cursor
                 i2_LCD_Write_String
 ---------------------------------------------------------------------------------
 (6) i2_LCD_Write_String                                   6     4      2     164
                                              1 COMRAM     6     4      2
                   i2_LCD_Write_Char
 ---------------------------------------------------------------------------------
 (6) _countdown_drop_timer                                 0     0      0    2014
              _countdown_now_num2str
                            _endBeep
            i2_LCD_printNowCountdown
                    i2_countdownStop
                       i2_normalBeep
 ---------------------------------------------------------------------------------
 (7) i2_normalBeep                                         0     0      0       0
 ---------------------------------------------------------------------------------
 (7) i2_countdownStop                                      0     0      0       0
 ---------------------------------------------------------------------------------
 (7) i2_LCD_printNowCountdown                              2     2      0     424
                                              6 COMRAM     2     2      0
                   i2_LCD_Set_Cursor
                   i2_LCD_Write_Char
 ---------------------------------------------------------------------------------
 (7) i2_LCD_Write_Char                                     1     1      0      22
                                              0 COMRAM     1     1      0
 ---------------------------------------------------------------------------------
 (6) i2_LCD_Set_Cursor                                     5     1      4     312
                                              1 COMRAM     5     1      4
                          i2_LCD_Cmd
 ---------------------------------------------------------------------------------
 (7) i2_LCD_Cmd                                            1     1      0      22
                                              0 COMRAM     1     1      0
 ---------------------------------------------------------------------------------
 (7) _endBeep                                              5     5      0      92
                                              0 COMRAM     5     5      0
 ---------------------------------------------------------------------------------
 (7) _countdown_now_num2str                                4     4      0    1498
                                              0 COMRAM     4     4      0
 ---------------------------------------------------------------------------------
 Estimated maximum stack depth 7
 ---------------------------------------------------------------------------------

 Call Graph Graphs:

 _main (ROOT)
   _LCD_Cursor_Blink_Off
     _LCD_Cmd
   _LCD_Cursor_Blink_On
     _LCD_Cmd
   _LCD_Cursor_Left
     _LCD_Cmd
   _LCD_Cursor_Right
     _LCD_Cmd
   _LCD_Set_Cursor
     _LCD_Cmd
   _LCD_Write_Char
   _LCD_Write_String
     _LCD_Write_Char
   _LCD_printAccepted
     _LCD_Cursor_Blink_Off
       _LCD_Cmd
     _LCD_Set_Cursor
       _LCD_Cmd
     _LCD_Write_String
       _LCD_Write_Char
     _longLowBeep
   _LCD_printDeclined
     _LCD_Cursor_Blink_Off
       _LCD_Cmd
     _LCD_Set_Cursor
       _LCD_Cmd
     _LCD_Write_String
       _LCD_Write_Char
     _longLowBeep
   _LCD_printInitialCountdown
     _LCD_Set_Cursor
       _LCD_Cmd
     _LCD_Write_Char
   _LCD_printNowCountdown
     _LCD_Set_Cursor
       _LCD_Cmd
     _LCD_Write_Char
   _LCD_resetPasswordEntry
     _LCD_Set_Cursor
       _LCD_Cmd
     _LCD_Write_String
       _LCD_Write_Char
   _armBeep
     _veryLowBeep
   _armedPageReset
     _LCD_Set_Cursor
       _LCD_Cmd
     _LCD_Write_String
       _LCD_Write_Char
     _LCD_resetPasswordEntry
       _LCD_Set_Cursor
         _LCD_Cmd
       _LCD_Write_String
         _LCD_Write_Char
     _resetEntry
       _strlen
   _countdownStart
   _countdownStop
   _countdown_initial_str2num
   _countdown_now_reset_to_initial
   _disarmBeep
     _veryLowBeep
   _disarmedPageReset
     _LCD_Clear
     _LCD_Set_Cursor
       _LCD_Cmd
     _LCD_Write_String
       _LCD_Write_Char
     _LCD_printNowCountdown
       _LCD_Set_Cursor
         _LCD_Cmd
       _LCD_Write_Char
     _LCD_resetPasswordEntry
       _LCD_Set_Cursor
         _LCD_Cmd
       _LCD_Write_String
         _LCD_Write_Char
     _resetEntry
       _strlen
   _keypadRead
     _keypadScan
     _normalBeep
     _normalBlink
     _quickBeep
     _quickBlink
   _resetEntry
     _strlen
   _resetPasswordEntry
   _serialSend
   _setup
     _BEEPER_Initialize
     _COUNTDOWN_Initialize
     _KEYPAD_Initialize
     _LCD_Initialize
       _LCD_Clear
       _LCD_Cmd
     _SYSTEM_Initialize
       _ADC_MANAGER_Initialize
       _CONFIGURATION_Initialize
       _INTERRUPT_Initialize
       _OSCILLATOR_Initialize
       _PIN_MANAGER_Initialize
       _PMD_Initialize
     _UART1_Initialize
     _serialSend
   _stanbyPageReset
     _LCD_Clear
     _LCD_Set_Cursor
       _LCD_Cmd
     _LCD_Write_String
       _LCD_Write_Char
     _LCD_printNowCountdown
       _LCD_Set_Cursor
         _LCD_Cmd
       _LCD_Write_Char
     _LCD_resetPasswordEntry
       _LCD_Set_Cursor
         _LCD_Cmd
       _LCD_Write_String
         _LCD_Write_Char
     _resetEntry
       _strlen
   _verifyInterfaceOptions
     _LCD_Cursor_Blink_Off
       _LCD_Cmd
     _LCD_Cursor_Blink_On
       _LCD_Cmd
   _verifyPassword
     _strcmp

 _ISR (ROOT)
   _countdown_drop_timer
     _countdown_now_num2str
     _endBeep
     i2_LCD_printNowCountdown
       i2_LCD_Set_Cursor
         i2_LCD_Cmd
       i2_LCD_Write_Char
     i2_countdownStop
     i2_normalBeep
   i2_LCD_Set_Cursor
     i2_LCD_Cmd
   i2_LCD_Write_String
     i2_LCD_Write_Char

 Address spaces:
Name               Size   Autos  Total    Cost      Usage
BIGRAM            1FFF      0       0      69        0.0%
EEDATA             400      0       0       0        0.0%
BITBANK31          100      0       0      67        0.0%
BANK31             100      0       0      68        0.0%
BITBANK30          100      0       0      65        0.0%
BANK30             100      0       0      66        0.0%
BITBANK29          100      0       0      63        0.0%
BANK29             100      0       0      64        0.0%
BITBANK28          100      0       0      61        0.0%
BANK28             100      0       0      62        0.0%
BITBANK27          100      0       0      59        0.0%
BANK27             100      0       0      60        0.0%
BITBANK26          100      0       0      56        0.0%
BANK26             100      0       0      57        0.0%
BITBANK25          100      0       0      54        0.0%
BANK25             100      0       0      55        0.0%
BITBANK24          100      0       0      52        0.0%
BANK24             100      0       0      53        0.0%
BITBANK23          100      0       0      50        0.0%
BANK23             100      0       0      51        0.0%
BITBANK22          100      0       0      48        0.0%
BANK22             100      0       0      49        0.0%
BITBANK21          100      0       0      46        0.0%
BANK21             100      0       0      47        0.0%
BITBANK20          100      0       0      44        0.0%
BANK20             100      0       0      45        0.0%
BITBANK19          100      0       0      42        0.0%
BANK19             100      0       0      43        0.0%
BITBANK18          100      0       0      40        0.0%
BANK18             100      0       0      41        0.0%
BITBANK17          100      0       0      38        0.0%
BANK17             100      0       0      39        0.0%
BITBANK16          100      0       0      36        0.0%
BANK16             100      0       0      37        0.0%
BITBANK15          100      0       0      34        0.0%
BANK15             100      0       0      35        0.0%
BITBANK14          100      0       0      32        0.0%
BANK14             100      0       0      33        0.0%
BITBANK13          100      0       0      30        0.0%
BANK13             100      0       0      31        0.0%
BITBANK12          100      0       0      28        0.0%
BANK12             100      0       0      29        0.0%
BITBANK11          100      0       0      26        0.0%
BANK11             100      0       0      27        0.0%
BITBANK10          100      0       0      24        0.0%
BANK10             100      0       0      25        0.0%
BITBANK9           100      0       0      22        0.0%
BANK9              100      0       0      23        0.0%
BITBANK8           100      0       0      20        0.0%
BANK8              100      0       0      21        0.0%
BITBANK7           100      0       0      18        0.0%
BANK7              100      0       0      19        0.0%
BITBANK6           100      0       0      16        0.0%
BANK6              100      0       0      17        0.0%
BITBANK5           100      0       0      14        0.0%
BANK5              100      0       0      15        0.0%
BITBANK4           100      0       0      12        0.0%
BANK4              100      0       0      13        0.0%
BITBANK3           100      0       0      10        0.0%
BANK3              100      0       0      11        0.0%
BITBANK2           100      0       0       8        0.0%
BANK2              100      0       0       9        0.0%
BITBANK1           100      0       0       6        0.0%
BANK1              100      0       0       7        0.0%
BITBANK0            A0      0       0       4        0.0%
BANK0               A0     11      3B       5       36.9%
BITCOMRAM           5F      0       0       0        0.0%
COMRAM              5F     17      52       1       86.3%
BITSFR_8             0      0       0     200        0.0%
SFR_8                0      0       0     200        0.0%
BITSFR_7             0      0       0     200        0.0%
SFR_7                0      0       0     200        0.0%
BITSFR_6             0      0       0     200        0.0%
SFR_6                0      0       0     200        0.0%
BITSFR_5             0      0       0     200        0.0%
SFR_5                0      0       0     200        0.0%
BITSFR_4             0      0       0     200        0.0%
SFR_4                0      0       0     200        0.0%
BITSFR_3             0      0       0     200        0.0%
SFR_3                0      0       0     200        0.0%
BITSFR_2             0      0       0     200        0.0%
SFR_2                0      0       0     200        0.0%
BITSFR_1             0      0       0     200        0.0%
SFR_1                0      0       0     200        0.0%
BITSFR               0      0       0     200        0.0%
SFR                  0      0       0     200        0.0%
STACK                0      0       0       2        0.0%
NULL                 0      0       0       0        0.0%
ABS                  0      0      8D      58        0.0%
DATA                 0      0      8D       3        0.0%
CODE                 0      0       0       0        0.0%


Microchip Technology PIC18 Macro Assembler V2.00 build -1524193055 
Symbol Table                                                                                   Tue Jan 29 08:41:55 2019

                         _LCD_Initialize 2918                              __CFG_CP$OFF 000000  
                                     _ON 001B                   __end_of_verifyPassword 2DDC  
      __end_of_LCD_printInitialCountdown 2B9A                          _LCD_Cursor_Left 316A  
                            __CFG_LVP$ON 000000                                      l240 2446  
                                    l241 249C                                      l250 12D8  
                                    l242 24AA                                      l251 1306  
                                    l252 1334                                      l420 2106  
                                    l253 1362                                      l245 129A  
                                    l237 2392                                      l270 16DA  
                                    l254 1390                                      l430 220A  
                                    l422 214A                                      l271 1724  
                                    l263 14D4                                      l255 13BE  
                                    l239 23F0                                      l423 214E  
                                    l280 18F4                                      l272 176E  
                                    l264 151E                                      l256 13EC  
                                    l440 2264                                      l281 193E  
                                    l265 1568                                      l257 141A  
                                    l282 1988                                      l266 15B2  
                                    l258 1448                                      l450 22C0  
                                    l442 2272                                      l426 2166  
                                    l283 19D2                                      l267 15FC  
                                    l259 1476                                      l435 2248  
                                    l427 21A6                                      l284 1A1C  
                                    l276 17CC                                      l268 1646  
                                    l460 2332                                      l452 22E4  
                                    l444 2296                                      l285 1A66  
                                    l277 1816                                      l269 1690  
                                    l429 21EA                                      l278 1860  
                                    l286 1A74                                      l462 2340  
                                    l454 22F2                                      l446 22A4  
                                    l438 2256                                      l279 18AA  
                                    l464 234E                                      l456 2300  
                                    l448 22B2                                      l800 05A0  
                                    l801 054E                                      l466 235C  
                                    l458 230E                                      l730 2E5C  
                                    l803 0566                                      l724 2D12  
                                    l732 2E72                                      l900 0E0A  
                                    l820 0600                                      l549 2E8A  
                                    l581 26C4                                      l725 2CFE  
                                    l813 062C                                      l805 0576  
                                    l558 2A90                                      l750 28C8  
                                    l902 0E1A                                      l822 0614  
                                    l559 2A6C                                      l583 273E  
                                    l591 2B68                                      l751 28E4  
                                    l735 2DD2                                      l807 058A  
                                    l576 277C                                      l752 28F0  
                                    l920 100E                                      l904 0E2E  
                                    l840 07B4                                      l832 06A8  
                                    l816 05D4                                      l760 0008  
                                    l593 2B98                                      l753 2912  
                                    l921 101A                                      l578 27F6  
                                    l586 2B1E                                      l930 1160  
                                    l914 0EC2                                      l850 0906  
                                    l762 08AA                                      l842 07F2  
                                    l826 068C                                      l818 05F0  
                                    l923 10EC                                      l851 0966  
                                    l835 0764                                      l827 067C  
                                    l763 01C6                                      l588 2B4E  
                                    l924 108C                                      l908 0EA6  
                                    l836 0738                                      l764 0082  
                                    l749 28BC                                      l917 0FBC  
                                    l909 0E96                                      l861 0AAE  
                                    l845 087C                                      l837 0744  
                                    l765 00E2                                      l926 10CA  
                                    l870 0BE8                                      l846 0888  
                                    l782 0460                                      l790 0438  
                                    l919 103C                                      l855 09EA  
                                    l839 0814                                      l775 04A2  
                                    l872 0C76                                      l848 0B44  
                                    l864 0B16                                      l784 0344  
                                    l929 1154                                      l881 0D20  
                                    l865 0B22                                      l849 09F2  
                                    l785 03C0                                      l777 0232  
                                    l769 0194                                      l882 0DBA  
                                    l794 048E                                      l778 02A2  
                                    l867 1182                                      l883 0D68  
                                    l859 0A5C                                      l868 0C92  
                                    l885 0D80                                      l877 0CBC  
                                    l869 0B94                                      l797 06D2  
                                    l789 0406                                      l879 0EE2  
                                    l895 0E46                                      l887 0D90  
                                    l799 0506                                      l889 0DA4  
                                    l898 0DEE                                      _OFF 002A  
                                    _ISR 25C2               __size_of_BEEPER_Initialize 0046  
                         _isPasswordTrue 0034                  __size_of_PMD_Initialize 0024  
                                    wreg 003FE8                         _LCD_Cursor_Right 3162  
                  keypadRead@flagPressed 007E                     __end_ofi2_normalBeep 310E  
                          __CFG_BBEN$OFF 000000                          __end_of_LCD_Cmd 3060  
                                   ?_ISR 003C                             __CFG_ZCD$OFF 000000  
                         _LCD_Set_Cursor 2E74                                     l1810 2A12  
                                   l1817 2C3C                                     l1809 2A1A  
                                   l1818 2C38                                     l7002 0B16  
                                   l7020 0B94                                     l6302 21EA  
                                   l7110 0D78                                     l6160 23F0  
                                   l6400 2E4C                                     l7200 0EA6  
                                   l6322 276C                                     l7034 0BE8  
                                   l6172 249C                                     l6308 220A  
                                   l7132 0DB2                                     l6166 2446  
                                   l7054 0C66                                     l6502 0082  
                                   l6352 26B4                                     l7208 0ED2  
                                   l7136 0DBA                                     l6520 00E2  
                                   l6290 21A6                                     l7154 0E00  
                                   l7058 0C76                                     l6276 214A  
                                   l7308 1154                                     l7148 0DEA  
                                   l6376 2B58                                     l7280 108C  
                                   l6552 0194                                     l7290 10CA  
                                   l7258 100E                                     l7178 0E46  
                                   l6476 2912                                     l6726 055E  
                                   l6824 06B8                                     l6816 068C  
                                   l6752 05A0                                     l6672 044E  
                                   l6648 03C0                                     l6770 05E6  
                                   l6674 044E                                     l6916 0906  
                                   l6764 05D0                                     l6748 0598  
                                   l5878 2B0E                                     l6934 0966  
                                   l6846 0738                                     l6598 02A2  
                                   l6686 048E                       _resetPasswordEntry 2E44  
                                   l6794 062C                                     l6868 07B4  
                                   l6958 09EA                                     l6878 07F2  
                                   l6896 087C                                     STR_1 FFF7  
                                   STR_2 FFAE                                     STR_3 FF8C  
                                   STR_4 FFE7                                     STR_5 FF94  
                                   STR_6 FF8C                                     STR_7 FFDE  
                                   STR_8 FF94                                     STR_9 FF9D  
                                   _LATA 003FBA                                     _LATB 003FBB  
                                   _LATC 003FBC                                     _LATD 003FBD  
                                   _LATE 003FBE                                     _T2PR 003FAB  
                                   _PMD0 0039C0                                     _PMD1 0039C1  
                                   _PMD2 0039C2                                     _PMD3 0039C3  
                                   _PMD4 0039C4                                     _PMD5 0039C5  
                                   u7050 221A                                     _PMD6 0039C6  
                                   u7211 003C                                     _PMD7 0039C7  
                                   u7220 0056                                     u7310 0108  
                                   u7231 0068                                     u7160 28AE  
                                   u8040 0926                                     u6610 1298  
                                   u6530 2A56                                     u8211 0B52  
                                   u7331 01A0                                     u6540 2390  
                                   u8220 0B68                                     u7420 02C8  
                                   u7340 01DC                                     u7421 02C6  
                                   u6630 12AA                                     u6550 23D2  
                                   u7190 290C                                     u8310 0C0E  
                                   u8070 0990                                     u7510 0438  
                                   u9007 10D6                                     u8311 0C0A  
                                   u8231 0B7A                                     u8071 098C  
                                   u7431 030A                                     u6560 2400  
                                   u8160 0ACE                                     u7280 00A2  
                                   u9017 116C                                     u6570 2410  
                                   u8170 0AD0                                     u8090 0A0A  
                                   u9107 216C                                     u9027 1200  
                                   u8331 0C82                                     u6580 2456  
                                   u8340 0CAA                                     u8180 0AE0  
                                   u7540 04A0                                     u7460 0380  
                                   u9117 21D6                                     u9037 1220  
                                   u6750 148A                                     u6590 2466  
                                   u8190 0AE2                                     u7390 026E  
                                   u9207 2FF8                                     u9127 21F8  
                                   u9047 1240                                     u8280 0BB4  
                                   u9217 26F2                                     u9137 227A  
                                   u9057 1260                                     u7810 06F0  
                                   u7490 03E6                                     u9227 272A  
                                   u9147 22C8                                     u9067 292A  
                                   u7820 06F2                                     u7740 0672  
                                   u9237 27AA                                     u9157 2316  
                                   u9077 2940                                     _NONE 0026  
                                   u6870 1782                                     u7830 0702  
                                   u9247 27E2                                     u9167 2364  
                                   u9087 2954                                     u8560 0E8C  
                                   u7920 0834                                     u7840 0704  
                                   u9257 2F78                                     u9177 2FDA  
                                   u9097 296A                                     u8650 0FD8  
                                   u7930 0836                          _stanbyPageReset 2C70  
                                   u9267 3054                                     u9187 2D3E  
                                   u8740 110C                                     u8660 0FDA  
                                   u7940 0846                                     u9197 2D58  
                                   u6990 2124                                     u8750 110E  
                                   u7950 0848                                     u8760 111E  
                                   u8770 1120                                     u7971 08B6  
                                   u8907 0894                                     u7980 08DA  
                                   u8917 0A46                                     u8791 1190  
                                   u8927 0A98                                     u7991 08EC  
                                   u8847 0116                                     u8937 0B2E  
                                   u8857 0148                                     u8947 0C1A  
                                   u8867 01B2                                     u8957 0F3E  
                                   u8877 02D0                                     u8967 0F5E  
                                   u8887 0750                                     u8977 0F7E  
                                   u8897 07FE                                     u8987 0F9E  
                                   u8997 1026                                     _TRUE 0019  
                                   _WPUA 003A41                                     _WPUD 003A71  
                          __CFG_FCMEN$ON 000000                        ?_LCD_Write_String 0049  
                                   _main 0000                                     _mode 003B  
                     __size_of_LCD_Clear 0020                                     fsr1h 003FE2  
                                   fsr2h 003FDA                                     indf1 003FE7  
                                   indf2 003FDF                                     fsr1l 003FE1  
                                   fsr2l 003FD9                        _disarmedPageReset 2CB2  
                                   start 001A                       ??_LCD_Write_String 004B  
                    ?_resetPasswordEntry 003C                       ?_disarmedPageReset 003C  
                 __end_of_LCD_Initialize 299E                            __CFG_CSWEN$ON 000000  
            ??_countdown_initial_str2num 0048                             ___param_bank 000000  
                   keypadRead@keyPressed 0083         ??_countdown_now_reset_to_initial 0048  
        ?_countdown_now_reset_to_initial 003C                                    ??_ISR 0044  
                 __size_of_countdownStop 0006                       __size_ofi2_LCD_Cmd 001C  
                        ?_verifyPassword 004E                      ??_disarmedPageReset 0052  
         __size_of_OSCILLATOR_Initialize 0018            __end_of_OSCILLATOR_Initialize 30AE  
                                  ?_main 003C                                    STR_10 FFD5  
                                  STR_11 FFF0                                    STR_12 FFCC  
                                  STR_20 FEF3                                    STR_13 FFF0  
                                  STR_21 FF59                                    STR_30 FF37  
                                  STR_14 FF7B                                    STR_22 FF6A  
                                  STR_31 FEE2                                    STR_23 FF48  
                                  STR_15 FF15                                    STR_32 FEF3  
                                  STR_24 FF48                                    STR_16 FFBF  
                                  STR_33 FF59                                    STR_25 FF59  
                                  STR_17 FF04                            __CFG_WDTE$OFF 000000  
                                  STR_34 FF6A                                    STR_26 FF6A  
                                  STR_18 FF37                                    STR_35 FED1  
                                  STR_27 FF26                                    STR_19 FEE2  
                                  STR_28 FED1                                    STR_29 FF04  
                                  _FALSE 0028                                    _T1CLK 003FB5  
                                  _T1CON 003FB2                           __CFG_DEBUG$OFF 000000  
                                  i2l112 25F2                                    i2l114 261E  
                                  _U1TXB 003DEA                                    i2l300 1BD2  
                                  i2l116 266E                                    i2l301 1BFE  
                                  i2l117 266E                                    i2l310 1D46  
                                  i2l302 1C2A                                    i2l150 2886  
                                  i2l311 1D7E                                    i2l303 1C56  
                                  i2l320 1EE0                                    i2l312 1DB6  
                                  i2l321 1F16                                    i2l313 1DEE  
                                  i2l322 1F4E                                    i2l314 1E26  
                                  i2l330 20E4                                    i2l323 1F86  
                                  i2l315 1E5E                                    i2l307 1CA0  
                                  i2l147 2818                                    i2l324 1FBE  
                                  i2l316 1E96                                    i2l308 1CD6  
                                  i2l325 1FF6                                    i2l309 1D0E  
                                  i2l149 284C                                    i2l341 253C  
                                  i2l333 24BC                                    i2l326 202E  
                                  i2l327 2066                                    i2l343 256C  
                                  i2l335 24D4                                    i2l328 209E  
                                  i2l329 20D6                                    i2l345 25A4  
                                  i2l337 2504                                    i2l346 25B8  
                                  i2l294 1ACC                                    i2l295 1AF6  
                                  i2l296 1B22                                    i2l297 1B4E  
                                  i2l289 1A92                                    i2l298 1B7A  
                                  i2l299 1BA6                                    i2l549 2EB8  
                                  i2l558 2AE2                                    i2l559 2ABE  
                                  i2l586 2BB2                                    i2l588 2BE2  
                   ??_resetPasswordEntry 0048                                    _OSCEN 0039DD  
                                  _TMR0H 003FB7                                    _TMR1H 003FB1  
                                  _TMR0L 003FB6                                    _TMR1L 003FB0  
                                  _TRISC 003FC4                                    _TRISD 003FC5  
                        __end_of_endBeep 2890                          __end_of_armBeep 300A  
          __size_of_countdown_drop_timer 0116                   __end_of_LCD_Set_Cursor 2EA2  
                          __CFG_WRTB$OFF 000000                            __CFG_WRTC$OFF 000000  
                          __CFG_WRTD$OFF 000000                                    _armed 0021  
                     __CFG_MCLRE$EXTMCLR 000000                                    _setup 2FAA  
                                  main@i 0087                 __end_ofi2_LCD_Set_Cursor 2ED0  
                                  tablat 003FF5                __end_of_disarmedPageReset 2CF4  
                  keypadRead@keyHoldTime 007C                                    status 003FD8  
                           ?_longLowBeep 003C                 ??_LCD_resetPasswordEntry 004F  
                __end_of_LCD_Cursor_Left 3172                        keypadRead@keyHeld 0082  
                        ?_LCD_Initialize 003C                           _LCD_Write_Char 2F66  
                        __initialization 299E                       main@cursorPos_1250 008B  
                           __end_of_main 127E                           __CFG_SAFEN$OFF 000000  
                                 ??_main 0085                  __size_of_countdownStart 000E  
                         __CFG_PR1WAY$ON 000000                        __end_of_LCD_Clear 2FEA  
                          __activetblptr 000002                       verifyPassword@pass 0050  
                              ??_LCD_Cmd 0048                       verifyPassword@user 004E  
                __end_of_stanbyPageReset 2CB2                            _userPswdEntry 0093  
              _countdown_initial_str2num 127E                         _UART1_Initialize 2ED0  
                        ?_LCD_Set_Cursor 0049                            _countdownMode 003A  
                          _countdownStop 3172                                   ?_setup 003C  
                                 _ANSELD 003A70                                   _U1BRGH 003DF6  
                                 _U1BRGL 003DF5                                   _RA1PPS 003A01  
                                 _RC1PPS 003A11                        __end_ofi2_LCD_Cmd 307C  
                                 _ODCONA 003A42                                   _ODCOND 003A72  
                         __CFG_WDTCCS$SC 000000                                   i2l4008 2834  
                                 i2l4408 24EC                                   i2l4418 2514  
                                 i2l4380 2BA2                                   i2l4840 261E  
                                 i2l3998 2808                                   _OSCFRQ 0039DF  
                 __end_of_LCD_Write_Char 2F88                            main@cursorPos 0089  
                         __CFG_XINST$OFF 000000                 __size_ofi2_countdownStop 0006  
                           _CCPTMRS1bits 003F5F                __CFG_RSTOSC$HFINTOSC_1MHZ 000000  
                           ?_normalBlink 003C                 __end_ofi2_LCD_Write_Char 2FAA  
                         __CFG_STVREN$ON 000000                      i2LCD_Write_String@f 003D  
                    i2LCD_Write_String@i 0041              ??_LCD_printInitialCountdown 004E  
                    _LCD_Cursor_Blink_On 3152                                   clear_0 29E8  
                                 clear_1 29F4                                ??_endBeep 003C  
                              ??_armBeep 0048                           _passwordChange 008F  
                                 _stanby 0030           __size_of_LCD_printNowCountdown 004A  
                                 _status 0032                    __size_ofi2_normalBeep 0012  
                                 _strcmp 2A10                                   _strlen 2C2A  
          __end_of_LCD_printNowCountdown 2B50                           _PMD_Initialize 2EFC  
                           __pdataCOMRAM 0001                             __mediumconst FED0  
                                 tblptrh 003FF7                                   tblptrl 003FF6  
                                 tblptru 003FF8                           ?_countdownStop 003C  
                        LCD_Set_Cursor@c 0049                          LCD_Set_Cursor@d 004B  
          __size_of_COUNTDOWN_Initialize 0022            __size_of_INTERRUPT_Initialize 000C  
                   ?_LCD_Cursor_Blink_On 003C               __size_of_disarmedPageReset 0042  
                      _SYSTEM_Initialize 307C                               __accesstop 0060  
                __end_of__initialization 2A06                        _KEYPAD_Initialize 300A  
           __end_of_LCD_Cursor_Blink_Off 3162                       ?_SYSTEM_Initialize 003C  
                          ___rparam_used 000001                          ?_LCD_Write_Char 003C  
                     ?_KEYPAD_Initialize 003C                 __end_of_LCD_Cursor_Right 316A  
                           ?_veryLowBeep 003C                         ?_LCD_Cursor_Left 003C  
        __size_of_LCD_resetPasswordEntry 0036                 ?i2_LCD_printNowCountdown 003C  
                         __pcstackCOMRAM 003C                             i2_normalBeep 30FC  
                           __pidataBANK0 3028                      ??_SYSTEM_Initialize 0048  
      __size_of_CONFIGURATION_Initialize 0002                            __end_of_setup 2FCA  
                  _countdown_now_num2str 1A76                      ??_KEYPAD_Initialize 0048  
              ?_CONFIGURATION_Initialize 003C              __size_ofi2_LCD_Write_String 0052  
                 __end_of_PMD_Initialize 2F20                        i2LCD_Write_Char@e 003C  
                _numCountdownInitialTime 000D                         ?_stanbyPageReset 003C  
              __end_of_SYSTEM_Initialize 3096                          __CFG_IVT1WAY$ON 000000  
              _LCD_printInitialCountdown 2B50                                  ??_setup 004A  
                  ??_LCD_Cursor_Blink_On 0049                               __pbssBANK0 008D  
              __end_of_KEYPAD_Initialize 3028                          __CFG_MVECEN$OFF 000000  
                                IVTBASEH 003FD6                                  IVTBASEL 003FD5  
                                IVTBASEU 003FD7                         ??_verifyPassword 0052  
                   __size_of_longLowBeep 0016                          __CFG_PPS1WAY$ON 000000  
                   i2LCD_Set_Cursor@temp 0041                           _countdownBeeps 001F  
              __size_of_LCD_Write_String 0052                        ??i2_countdownStop 003C  
                         _countdownStart 312E                          ?_PMD_Initialize 003C  
                                ?_strcmp 0048                                  ?_strlen 0048  
                             _disarmBeep 2D30                                  _LCD_Cmd 3044  
                    __CFG_PWRTS$PWRT_OFF 000000                                  _U1RXPPS 003AE5  
                     __size_of_quickBeep 0012                          ??_countdownStop 0048  
                 _LCD_resetPasswordEntry 2DDC                                  _OSCCON1 0039D9  
                                _OSCCON3 0039DB   __end_of_countdown_now_reset_to_initial 24AC  
__size_of_countdown_now_reset_to_initial 0136           _countdown_now_reset_to_initial 2376  
                                _OSCTUNE 0039DE                                  _PWM5DCH 003F6D  
                                _PWM5DCL 003F6C                        ?i2_LCD_Set_Cursor 003D  
                       ??_LCD_Initialize 0049       __size_of_countdown_initial_str2num 07F8  
        __end_ofi2_LCD_printNowCountdown 2BE4                  __size_of_armedPageReset 003A  
                     ??i2_LCD_Set_Cursor 0041                 ??_verifyInterfaceOptions 0049  
           __end_of_countdown_drop_timer 25C2                                  __Hparam 0000  
                 countdown_now_num2str@i 003E                               _keyPressed 0038  
                                __Lparam 0000                 __end_of_UART1_Initialize 2EFC  
                            resetEntry@i 0050                   ?_countdown_now_num2str 003C  
                 __end_of_countdownStart 313C                 ??_ADC_MANAGER_Initialize 0048  
                   __size_of_normalBlink 0010                                  _endBeep 27F8  
                                _armBeep 2FEA                                  __pcinit 299E  
                                __ramtop 2000                               _keypadRead 20E6  
                             _keypadScan 2234                         ??_LCD_Set_Cursor 004D  
                                __ptext0 0000                                  __ptext1 2DA4  
                                __ptext2 2A10                                  __ptext3 2890  
                                __ptext4 3152                                  __ptext5 2C70  
                                __ptext6 2FAA                                  __ptext7 3148  
                                __ptext8 2ED0                                  __ptext9 307C  
                                _keyHeld 0039                          __CFG_WRTAPP$OFF 000000  
                        __size_of_strcmp 0052                          __size_of_strlen 0046  
                           __size_of_ISR 00C6                                _T2CLKbits 003FAE  
                              _T1CONbits 003FB2                    _OSCILLATOR_Initialize 3096  
                              _T2CONbits 003FAC              __size_of_resetPasswordEntry 0030  
                   _LCD_Cursor_Blink_Off 315A                 ??_PIN_MANAGER_Initialize 0048  
                        __CFG_WRTSAF$OFF 000000                                _LCD_Clear 2FCA  
                         serialSend@word 0048               __size_of_SYSTEM_Initialize 001A  
                   end_of_initialization 2A06               __size_of_KEYPAD_Initialize 001E  
                          __Lmediumconst FED0                      resetPasswordEntry@i 0048  
                              i2_LCD_Cmd 3060        __end_of_countdown_initial_str2num 1A76  
                             _resetEntry 2CF4                        __end_of_quickBeep 30EA  
                             _serialSend 3148                               _normalBeep 30EA  
                                postdec1 003FE5          countdown_now_reset_to_initial@i 004C  
                                postdec2 003FDD                                  postinc0 003FEE  
                                postinc1 003FE6                                  postinc2 003FDE  
                      ?i2_LCD_Write_Char 003C                     __size_of_veryLowBeep 0014  
                        ?_countdownStart 003C                                  strcmp@r 004D  
                  __CFG_WDTCPS$WDTCPS_31 000000                                  strlen@s 0048  
                     ??i2_LCD_Write_Char 003C                                _PORTBbits 003FCB  
                             _quickBlink 310E                              ?_disarmBeep 003C  
                  ?_LCD_Cursor_Blink_Off 003C                                _TRISAbits 003FC2  
                              _TRISBbits 003FC3                                _TRISCbits 003FC4  
                             ?_LCD_Clear 003C                         __CFG_FEXTOSC$OFF 000000  
                      LCD_Write_String@f 0049                        LCD_Write_String@i 004D  
                       ??_LCD_Write_Char 0048         __end_of_CONFIGURATION_Initialize 3180  
                             ?i2_LCD_Cmd 003C          __size_of_verifyInterfaceOptions 0088  
                 LCD_printNowCountdown@i 004E                        ?_LCD_Cursor_Right 003C  
           __end_of_COUNTDOWN_Initialize 2F66             __end_of_INTERRUPT_Initialize 3148  
                     ??_LCD_Cursor_Right 0049          __size_of_ADC_MANAGER_Initialize 0002  
                       _LCD_Write_String 2A62                            __pidataCOMRAM 2F20  
                            ?_keypadRead 004B                              ?_keypadScan 0048  
                 ?_OSCILLATOR_Initialize 003C               LCD_printInitialCountdown@i 004E  
                         __end_of_strcmp 2A62                           __end_of_strlen 2C70  
       __size_ofi2_LCD_printNowCountdown 004A                      start_initialization 299E  
                   _countdown_drop_timer 24AC                    _LCD_printNowCountdown 2B06  
                            __end_of_ISR 2688          __size_of_PIN_MANAGER_Initialize 0032  
                           _keyIterrator 0036               countdown_initial_str2num@i 004C  
                       keypadRead@output 0080                               ivt0x8_base 0008  
                         _armedPageReset 2D6A                              ?_resetEntry 004E  
                    __size_of_disarmBeep 003A                          i2_countdownStop 3178  
                       __CFG_LPBOREN$OFF 000000                              ?_serialSend 003C  
                            ?_normalBeep 003C                         ??_PMD_Initialize 0048  
             __end_ofi2_LCD_Write_String 2B06                              __pdataBANK0 0060  
                     LCD_printAccepted@i 0051                          LCD_Write_Char@e 0048  
                 ??_LCD_Cursor_Blink_Off 0049                 __size_of_LCD_Cursor_Left 0008  
                ?_LCD_resetPasswordEntry 003C                                 ??_strcmp 004C  
                               ??_strlen 004A                              ?_quickBlink 003C  
                 _verifyInterfaceOptions 2890                            resetEntry@str 004E  
                               ?_LCD_Cmd 003C                    ?_countdown_drop_timer 003C  
            __end_of_LCD_Cursor_Blink_On 315A                              __pbssCOMRAM 0024  
                               LCD_Cmd@b 0048                            __pcstackBANK0 007C  
                            ??_LCD_Clear 0048                   _ADC_MANAGER_Initialize 3180  
                 __end_of_armedPageReset 2DA4                       LCD_printDeclined@i 0051  
                         _cursorBlinkMem 002C                 __size_of_stanbyPageReset 0042  
                    __size_of_keypadRead 014E                      __size_of_keypadScan 0142  
                           endBeep@i_538 003F                            ??_longLowBeep 0048  
                            ??i2_LCD_Cmd 003C                                _alarmMode 0023  
                ??_countdown_now_num2str 003C                   _PIN_MANAGER_Initialize 2E12  
               _CONFIGURATION_Initialize 317E                        ?_UART1_Initialize 003C  
                          __pmediumconst FED0                       ??_UART1_Initialize 0048  
                           _keypadOutput 0024                __size_ofi2_LCD_Set_Cursor 002E  
         __end_of_LCD_resetPasswordEntry 2E12                                 ?_endBeep 003C  
                               ?_armBeep 003C                   __CFG_BBSIZE$BBSIZE_512 000000  
                 ?_LCD_printNowCountdown 003C                      _strCountdownNowTime 0068  
                    __size_of_resetEntry 003C                      __size_of_serialSend 000A  
                  __end_of_countdownStop 3178                      __size_of_normalBeep 0012  
                         __size_of_setup 0020                     _COUNTDOWN_Initialize 2F44  
                __end_ofi2_countdownStop 317E                     _INTERRUPT_Initialize 313C  
                        ?_armedPageReset 003C                                 _LATAbits 003FBA  
                               _LATBbits 003FBB                                 _LATCbits 003FBC  
                               _PIE0bits 003990                                 _IPR3bits 003983  
                               _PIE3bits 003993                                 _PIE4bits 003994  
                    __size_of_quickBlink 0010                      __CFG_BORV$VBOR_2P45 000000  
                       ??_countdownStart 0048                                 i2u322_40 2834  
                               i2u324_40 2886                                 i2u325_40 1A90  
                               i2u351_40 1EAA                                 i2u327_40 1AA2  
                               i2u339_40 1C6A                                 _PIR3bits 0039A3  
                               _PIR4bits 0039A4                            ??_normalBlink 0048  
                               i2u930_47 2856                                 i2u931_47 286A  
                               i2u927_47 2F9A                                 i2u928_47 3070  
                               i2u929_47 2824                      __end_of_longLowBeep 30C4  
                      _LCD_printAccepted 2740                                _quickBeep 30D8  
                     ?_LCD_printAccepted 003C               __end_of_resetPasswordEntry 2E74  
                            _keyBeepsMem 008D                        _LCD_printDeclined 2688  
                      _countdownBeepsMem 001D                             ??_disarmBeep 0048  
                 ??_countdown_drop_timer 0044                  __size_of_verifyPassword 0038  
                i2_LCD_printNowCountdown 2B9A                       ?_LCD_printDeclined 003C  
                       __size_of_LCD_Cmd 001C                      ??_LCD_printAccepted 004F  
                      ??_LCD_Cursor_Left 0049                __size_ofi2_LCD_Write_Char 0022  
                    _numCountdownNowTime 0001                              _INTCON0bits 003FD2  
                  ?_COUNTDOWN_Initialize 003C                                copy_data0 29B2  
                              copy_data1 29D4                      ??_LCD_printDeclined 004F  
                  ?_INTERRUPT_Initialize 003C                 __end_of_LCD_Write_String 2AB4  
                               __Hrparam 0000                            ??_veryLowBeep 0048  
                     __end_of_disarmBeep 2D6A               ?_countdown_initial_str2num 003C  
                               __Lrparam 0000                __end_of_LCD_printAccepted 27F8  
                          ?i2_normalBeep 003C                        ??_stanbyPageReset 0052  
                     __CFG_BOREN$SBORDIS 000000                  ??_OSCILLATOR_Initialize 0048  
                __size_of_LCD_Initialize 0086                               ?_quickBeep 003C  
              __end_of_LCD_printDeclined 2740                             ??_keypadRead 004D  
                           ??_keypadScan 004A                      __end_of_normalBlink 312E  
                       __size_of_endBeep 0098                         __size_of_armBeep 0020  
                             _ANSELBbits 003A50                               _T0CON0bits 003FB8  
                             _T0CON1bits 003FB9                               i2LCD_Cmd@b 003C  
              __size_of_LCD_Cursor_Right 0008                                 __pivt0x8 0008  
                      _BEEPER_Initialize 2BE4                                 __ptext10 2EFC  
                               __ptext11 2E12                                 __ptext20 2E44  
                               __ptext12 3096                                 __ptext21 20E6  
                               __ptext13 313C                                 __ptext30 2D30  
                               __ptext22 310E                                 __ptext14 317E  
                               __ptext31 2376                                 __ptext23 30D8  
                               __ptext15 3180                                 __ptext40 30C4  
                               __ptext32 127E                                 __ptext24 311E  
                               __ptext16 2918                                 __ptext41 2B50  
                               __ptext33 3172                                 __ptext25 30EA  
                               __ptext17 300A                                 __ptext50 316A  
                               __ptext42 2688                                 __ptext34 312E  
                               __ptext26 2234                                 __ptext18 2F44  
                               __ptext51 3044                                 __ptext43 2740  
                               __ptext35 2D6A                                 __ptext27 2CB2  
                               __ptext19 2BE4                                 __ptext60 3060  
                               __ptext52 25C2                                 __ptext44 30AE  
                               __ptext36 2CF4                                 __ptext28 2B06  
                               __ptext61 27F8                                 __ptext53 2AB4  
                               __ptext45 2A62                                 __ptext37 2C2A  
                               __ptext29 2FCA                                 __ptext62 1A76  
                               __ptext54 24AC                                 __ptext46 2F66  
                               __ptext38 2DDC                                 __ptext55 30FC  
                               __ptext47 2E74                                 __ptext39 2FEA  
                               __ptext56 3178                                 __ptext48 315A  
                               __ptext57 2B9A                                 __ptext49 3162  
                               __ptext58 2F88                                 __ptext59 2EA2  
                               _disarmed 0072                               _U1CON0bits 003DF2  
                     ?_BEEPER_Initialize 003C                               _U1CON1bits 003DF3  
                __size_of_LCD_Set_Cursor 002E                                 _keyBeeps 002E  
                       ?i2_countdownStop 003C                            __size_of_main 127E  
                               endBeep@i 003D                      ??_BEEPER_Initialize 0048  
                               _exploded 0070                             ??_resetEntry 0050  
                     __end_of_keypadRead 2234                       __end_of_keypadScan 2376  
                   __CFG_WDTCWS$WDTCWS_7 000000                              _longLowBeep 30AE  
                               _password 0074                             ??_serialSend 0048  
                         ??i2_normalBeep 003C                             ??_normalBeep 0048  
                       i2_LCD_Set_Cursor 2EA2                  ?_verifyInterfaceOptions 003C  
              ??i2_LCD_printNowCountdown 0042                      __end_of_veryLowBeep 30D8  
                           ??_quickBlink 0048                __end_of_BEEPER_Initialize 2C2A  
                     i2_LCD_Write_String 2AB4                  ?_ADC_MANAGER_Initialize 003C  
                     __end_of_resetEntry 2D30                   ??_COUNTDOWN_Initialize 0048  
                 ??_INTERRUPT_Initialize 0048                              _PWM5CONbits 003F6E  
                     __end_of_serialSend 3152                       __end_of_normalBeep 30FC  
                               intlevel2 0000                      ?i2_LCD_Write_String 003D  
             ??_CONFIGURATION_Initialize 0048                        i2LCD_Set_Cursor@c 003D  
                      i2LCD_Set_Cursor@d 003F                  ?_PIN_MANAGER_Initialize 003C  
               i2LCD_printNowCountdown@i 0042                        __CFG_CLKOUTEN$OFF 000000  
                     __end_of_quickBlink 311E               __size_of_LCD_printAccepted 00B8  
         __size_of_countdown_now_num2str 0670                  __size_of_LCD_Write_Char 0022  
                            _normalBlink 311E            __end_of_countdown_now_num2str 20E6  
         __end_of_verifyInterfaceOptions 2918       __size_of_LCD_printInitialCountdown 004A  
             ?_LCD_printInitialCountdown 003C                              ??_quickBeep 0048  
             __size_of_LCD_printDeclined 00B8                       LCD_Set_Cursor@temp 004D  
                   ??i2_LCD_Write_String 003F                            keypadRead@key 0084  
                ??_LCD_printNowCountdown 004E                           _verifyPassword 2DA4  
                            _timerChange 0091                                 strcmp@s1 0048  
                               strcmp@s2 004A           __end_of_ADC_MANAGER_Initialize 3182  
          __size_of_LCD_Cursor_Blink_Off 0008                                 strlen@cp 004C  
                       ??_armedPageReset 0052                __size_of_UART1_Initialize 002C  
                       i2_LCD_Write_Char 2F88                  _strCountdownInitialTime 0060  
         __end_of_PIN_MANAGER_Initialize 2E44             __size_of_LCD_Cursor_Blink_On 0008  
                            _veryLowBeep 30C4  
